
LAB-4.elf:     file format elf32-littlearm

Sections:
Idx Name          Size      VMA       LMA       File off  Algn
  0 .isr_vector   000001ac  08000000  08000000  00001000  2**0
                  CONTENTS, ALLOC, LOAD, READONLY, DATA
  1 .text         000075a4  080001b0  080001b0  000011b0  2**4
                  CONTENTS, ALLOC, LOAD, READONLY, CODE
  2 .rodata       000001b4  08007754  08007754  00008754  2**2
                  CONTENTS, ALLOC, LOAD, READONLY, DATA
  3 .ARM.extab    00000000  08007908  08007908  00009084  2**0
                  CONTENTS, READONLY
  4 .ARM          00000008  08007908  08007908  00008908  2**2
                  CONTENTS, ALLOC, LOAD, READONLY, DATA
  5 .preinit_array 00000000  08007910  08007910  00009084  2**0
                  CONTENTS, ALLOC, LOAD, DATA
  6 .init_array   00000004  08007910  08007910  00008910  2**2
                  CONTENTS, ALLOC, LOAD, READONLY, DATA
  7 .fini_array   00000004  08007914  08007914  00008914  2**2
                  CONTENTS, ALLOC, LOAD, READONLY, DATA
  8 .data         00000084  20000000  08007918  00009000  2**2
                  CONTENTS, ALLOC, LOAD, DATA
  9 .ccmram       00000000  10000000  10000000  00009084  2**0
                  CONTENTS
 10 .bss          000003c4  20000084  20000084  00009084  2**2
                  ALLOC
 11 ._user_heap_stack 00000600  20000448  20000448  00009084  2**0
                  ALLOC
 12 .ARM.attributes 00000030  00000000  00000000  00009084  2**0
                  CONTENTS, READONLY
 13 .debug_info   000132d2  00000000  00000000  000090b4  2**0
                  CONTENTS, READONLY, DEBUGGING, OCTETS
 14 .debug_abbrev 00003160  00000000  00000000  0001c386  2**0
                  CONTENTS, READONLY, DEBUGGING, OCTETS
 15 .debug_aranges 000011a0  00000000  00000000  0001f4e8  2**3
                  CONTENTS, READONLY, DEBUGGING, OCTETS
 16 .debug_rnglists 00000dbd  00000000  00000000  00020688  2**0
                  CONTENTS, READONLY, DEBUGGING, OCTETS
 17 .debug_macro  00025744  00000000  00000000  00021445  2**0
                  CONTENTS, READONLY, DEBUGGING, OCTETS
 18 .debug_line   0001824a  00000000  00000000  00046b89  2**0
                  CONTENTS, READONLY, DEBUGGING, OCTETS
 19 .debug_str    000dbea1  00000000  00000000  0005edd3  2**0
                  CONTENTS, READONLY, DEBUGGING, OCTETS
 20 .comment      00000043  00000000  00000000  0013ac74  2**0
                  CONTENTS, READONLY
 21 .debug_frame  00004e9c  00000000  00000000  0013acb8  2**2
                  CONTENTS, READONLY, DEBUGGING, OCTETS
 22 .debug_line_str 00000060  00000000  00000000  0013fb54  2**0
                  CONTENTS, READONLY, DEBUGGING, OCTETS

Disassembly of section .text:

080001b0 <__do_global_dtors_aux>:
 80001b0:	b510      	push	{r4, lr}
 80001b2:	4c05      	ldr	r4, [pc, #20]	@ (80001c8 <__do_global_dtors_aux+0x18>)
 80001b4:	7823      	ldrb	r3, [r4, #0]
 80001b6:	b933      	cbnz	r3, 80001c6 <__do_global_dtors_aux+0x16>
 80001b8:	4b04      	ldr	r3, [pc, #16]	@ (80001cc <__do_global_dtors_aux+0x1c>)
 80001ba:	b113      	cbz	r3, 80001c2 <__do_global_dtors_aux+0x12>
 80001bc:	4804      	ldr	r0, [pc, #16]	@ (80001d0 <__do_global_dtors_aux+0x20>)
 80001be:	f3af 8000 	nop.w
 80001c2:	2301      	movs	r3, #1
 80001c4:	7023      	strb	r3, [r4, #0]
 80001c6:	bd10      	pop	{r4, pc}
 80001c8:	20000084 	.word	0x20000084
 80001cc:	00000000 	.word	0x00000000
 80001d0:	0800773c 	.word	0x0800773c

080001d4 <frame_dummy>:
 80001d4:	b508      	push	{r3, lr}
 80001d6:	4b03      	ldr	r3, [pc, #12]	@ (80001e4 <frame_dummy+0x10>)
 80001d8:	b11b      	cbz	r3, 80001e2 <frame_dummy+0xe>
 80001da:	4903      	ldr	r1, [pc, #12]	@ (80001e8 <frame_dummy+0x14>)
 80001dc:	4803      	ldr	r0, [pc, #12]	@ (80001ec <frame_dummy+0x18>)
 80001de:	f3af 8000 	nop.w
 80001e2:	bd08      	pop	{r3, pc}
 80001e4:	00000000 	.word	0x00000000
 80001e8:	20000088 	.word	0x20000088
 80001ec:	0800773c 	.word	0x0800773c

080001f0 <strlen>:
 80001f0:	4603      	mov	r3, r0
 80001f2:	f813 2b01 	ldrb.w	r2, [r3], #1
 80001f6:	2a00      	cmp	r2, #0
 80001f8:	d1fb      	bne.n	80001f2 <strlen+0x2>
 80001fa:	1a18      	subs	r0, r3, r0
 80001fc:	3801      	subs	r0, #1
 80001fe:	4770      	bx	lr

08000200 <memchr>:
 8000200:	f001 01ff 	and.w	r1, r1, #255	@ 0xff
 8000204:	2a10      	cmp	r2, #16
 8000206:	db2b      	blt.n	8000260 <memchr+0x60>
 8000208:	f010 0f07 	tst.w	r0, #7
 800020c:	d008      	beq.n	8000220 <memchr+0x20>
 800020e:	f810 3b01 	ldrb.w	r3, [r0], #1
 8000212:	3a01      	subs	r2, #1
 8000214:	428b      	cmp	r3, r1
 8000216:	d02d      	beq.n	8000274 <memchr+0x74>
 8000218:	f010 0f07 	tst.w	r0, #7
 800021c:	b342      	cbz	r2, 8000270 <memchr+0x70>
 800021e:	d1f6      	bne.n	800020e <memchr+0xe>
 8000220:	b4f0      	push	{r4, r5, r6, r7}
 8000222:	ea41 2101 	orr.w	r1, r1, r1, lsl #8
 8000226:	ea41 4101 	orr.w	r1, r1, r1, lsl #16
 800022a:	f022 0407 	bic.w	r4, r2, #7
 800022e:	f07f 0700 	mvns.w	r7, #0
 8000232:	2300      	movs	r3, #0
 8000234:	e8f0 5602 	ldrd	r5, r6, [r0], #8
 8000238:	3c08      	subs	r4, #8
 800023a:	ea85 0501 	eor.w	r5, r5, r1
 800023e:	ea86 0601 	eor.w	r6, r6, r1
 8000242:	fa85 f547 	uadd8	r5, r5, r7
 8000246:	faa3 f587 	sel	r5, r3, r7
 800024a:	fa86 f647 	uadd8	r6, r6, r7
 800024e:	faa5 f687 	sel	r6, r5, r7
 8000252:	b98e      	cbnz	r6, 8000278 <memchr+0x78>
 8000254:	d1ee      	bne.n	8000234 <memchr+0x34>
 8000256:	bcf0      	pop	{r4, r5, r6, r7}
 8000258:	f001 01ff 	and.w	r1, r1, #255	@ 0xff
 800025c:	f002 0207 	and.w	r2, r2, #7
 8000260:	b132      	cbz	r2, 8000270 <memchr+0x70>
 8000262:	f810 3b01 	ldrb.w	r3, [r0], #1
 8000266:	3a01      	subs	r2, #1
 8000268:	ea83 0301 	eor.w	r3, r3, r1
 800026c:	b113      	cbz	r3, 8000274 <memchr+0x74>
 800026e:	d1f8      	bne.n	8000262 <memchr+0x62>
 8000270:	2000      	movs	r0, #0
 8000272:	4770      	bx	lr
 8000274:	3801      	subs	r0, #1
 8000276:	4770      	bx	lr
 8000278:	2d00      	cmp	r5, #0
 800027a:	bf06      	itte	eq
 800027c:	4635      	moveq	r5, r6
 800027e:	3803      	subeq	r0, #3
 8000280:	3807      	subne	r0, #7
 8000282:	f015 0f01 	tst.w	r5, #1
 8000286:	d107      	bne.n	8000298 <memchr+0x98>
 8000288:	3001      	adds	r0, #1
 800028a:	f415 7f80 	tst.w	r5, #256	@ 0x100
 800028e:	bf02      	ittt	eq
 8000290:	3001      	addeq	r0, #1
 8000292:	f415 3fc0 	tsteq.w	r5, #98304	@ 0x18000
 8000296:	3001      	addeq	r0, #1
 8000298:	bcf0      	pop	{r4, r5, r6, r7}
 800029a:	3801      	subs	r0, #1
 800029c:	4770      	bx	lr
 800029e:	bf00      	nop

080002a0 <__aeabi_drsub>:
 80002a0:	f081 4100 	eor.w	r1, r1, #2147483648	@ 0x80000000
 80002a4:	e002      	b.n	80002ac <__adddf3>
 80002a6:	bf00      	nop

080002a8 <__aeabi_dsub>:
 80002a8:	f083 4300 	eor.w	r3, r3, #2147483648	@ 0x80000000

080002ac <__adddf3>:
 80002ac:	b530      	push	{r4, r5, lr}
 80002ae:	ea4f 0441 	mov.w	r4, r1, lsl #1
 80002b2:	ea4f 0543 	mov.w	r5, r3, lsl #1
 80002b6:	ea94 0f05 	teq	r4, r5
 80002ba:	bf08      	it	eq
 80002bc:	ea90 0f02 	teqeq	r0, r2
 80002c0:	bf1f      	itttt	ne
 80002c2:	ea54 0c00 	orrsne.w	ip, r4, r0
 80002c6:	ea55 0c02 	orrsne.w	ip, r5, r2
 80002ca:	ea7f 5c64 	mvnsne.w	ip, r4, asr #21
 80002ce:	ea7f 5c65 	mvnsne.w	ip, r5, asr #21
 80002d2:	f000 80e2 	beq.w	800049a <__adddf3+0x1ee>
 80002d6:	ea4f 5454 	mov.w	r4, r4, lsr #21
 80002da:	ebd4 5555 	rsbs	r5, r4, r5, lsr #21
 80002de:	bfb8      	it	lt
 80002e0:	426d      	neglt	r5, r5
 80002e2:	dd0c      	ble.n	80002fe <__adddf3+0x52>
 80002e4:	442c      	add	r4, r5
 80002e6:	ea80 0202 	eor.w	r2, r0, r2
 80002ea:	ea81 0303 	eor.w	r3, r1, r3
 80002ee:	ea82 0000 	eor.w	r0, r2, r0
 80002f2:	ea83 0101 	eor.w	r1, r3, r1
 80002f6:	ea80 0202 	eor.w	r2, r0, r2
 80002fa:	ea81 0303 	eor.w	r3, r1, r3
 80002fe:	2d36      	cmp	r5, #54	@ 0x36
 8000300:	bf88      	it	hi
 8000302:	bd30      	pophi	{r4, r5, pc}
 8000304:	f011 4f00 	tst.w	r1, #2147483648	@ 0x80000000
 8000308:	ea4f 3101 	mov.w	r1, r1, lsl #12
 800030c:	f44f 1c80 	mov.w	ip, #1048576	@ 0x100000
 8000310:	ea4c 3111 	orr.w	r1, ip, r1, lsr #12
 8000314:	d002      	beq.n	800031c <__adddf3+0x70>
 8000316:	4240      	negs	r0, r0
 8000318:	eb61 0141 	sbc.w	r1, r1, r1, lsl #1
 800031c:	f013 4f00 	tst.w	r3, #2147483648	@ 0x80000000
 8000320:	ea4f 3303 	mov.w	r3, r3, lsl #12
 8000324:	ea4c 3313 	orr.w	r3, ip, r3, lsr #12
 8000328:	d002      	beq.n	8000330 <__adddf3+0x84>
 800032a:	4252      	negs	r2, r2
 800032c:	eb63 0343 	sbc.w	r3, r3, r3, lsl #1
 8000330:	ea94 0f05 	teq	r4, r5
 8000334:	f000 80a7 	beq.w	8000486 <__adddf3+0x1da>
 8000338:	f1a4 0401 	sub.w	r4, r4, #1
 800033c:	f1d5 0e20 	rsbs	lr, r5, #32
 8000340:	db0d      	blt.n	800035e <__adddf3+0xb2>
 8000342:	fa02 fc0e 	lsl.w	ip, r2, lr
 8000346:	fa22 f205 	lsr.w	r2, r2, r5
 800034a:	1880      	adds	r0, r0, r2
 800034c:	f141 0100 	adc.w	r1, r1, #0
 8000350:	fa03 f20e 	lsl.w	r2, r3, lr
 8000354:	1880      	adds	r0, r0, r2
 8000356:	fa43 f305 	asr.w	r3, r3, r5
 800035a:	4159      	adcs	r1, r3
 800035c:	e00e      	b.n	800037c <__adddf3+0xd0>
 800035e:	f1a5 0520 	sub.w	r5, r5, #32
 8000362:	f10e 0e20 	add.w	lr, lr, #32
 8000366:	2a01      	cmp	r2, #1
 8000368:	fa03 fc0e 	lsl.w	ip, r3, lr
 800036c:	bf28      	it	cs
 800036e:	f04c 0c02 	orrcs.w	ip, ip, #2
 8000372:	fa43 f305 	asr.w	r3, r3, r5
 8000376:	18c0      	adds	r0, r0, r3
 8000378:	eb51 71e3 	adcs.w	r1, r1, r3, asr #31
 800037c:	f001 4500 	and.w	r5, r1, #2147483648	@ 0x80000000
 8000380:	d507      	bpl.n	8000392 <__adddf3+0xe6>
 8000382:	f04f 0e00 	mov.w	lr, #0
 8000386:	f1dc 0c00 	rsbs	ip, ip, #0
 800038a:	eb7e 0000 	sbcs.w	r0, lr, r0
 800038e:	eb6e 0101 	sbc.w	r1, lr, r1
 8000392:	f5b1 1f80 	cmp.w	r1, #1048576	@ 0x100000
 8000396:	d31b      	bcc.n	80003d0 <__adddf3+0x124>
 8000398:	f5b1 1f00 	cmp.w	r1, #2097152	@ 0x200000
 800039c:	d30c      	bcc.n	80003b8 <__adddf3+0x10c>
 800039e:	0849      	lsrs	r1, r1, #1
 80003a0:	ea5f 0030 	movs.w	r0, r0, rrx
 80003a4:	ea4f 0c3c 	mov.w	ip, ip, rrx
 80003a8:	f104 0401 	add.w	r4, r4, #1
 80003ac:	ea4f 5244 	mov.w	r2, r4, lsl #21
 80003b0:	f512 0f80 	cmn.w	r2, #4194304	@ 0x400000
 80003b4:	f080 809a 	bcs.w	80004ec <__adddf3+0x240>
 80003b8:	f1bc 4f00 	cmp.w	ip, #2147483648	@ 0x80000000
 80003bc:	bf08      	it	eq
 80003be:	ea5f 0c50 	movseq.w	ip, r0, lsr #1
 80003c2:	f150 0000 	adcs.w	r0, r0, #0
 80003c6:	eb41 5104 	adc.w	r1, r1, r4, lsl #20
 80003ca:	ea41 0105 	orr.w	r1, r1, r5
 80003ce:	bd30      	pop	{r4, r5, pc}
 80003d0:	ea5f 0c4c 	movs.w	ip, ip, lsl #1
 80003d4:	4140      	adcs	r0, r0
 80003d6:	eb41 0101 	adc.w	r1, r1, r1
 80003da:	3c01      	subs	r4, #1
 80003dc:	bf28      	it	cs
 80003de:	f5b1 1f80 	cmpcs.w	r1, #1048576	@ 0x100000
 80003e2:	d2e9      	bcs.n	80003b8 <__adddf3+0x10c>
 80003e4:	f091 0f00 	teq	r1, #0
 80003e8:	bf04      	itt	eq
 80003ea:	4601      	moveq	r1, r0
 80003ec:	2000      	moveq	r0, #0
 80003ee:	fab1 f381 	clz	r3, r1
 80003f2:	bf08      	it	eq
 80003f4:	3320      	addeq	r3, #32
 80003f6:	f1a3 030b 	sub.w	r3, r3, #11
 80003fa:	f1b3 0220 	subs.w	r2, r3, #32
 80003fe:	da0c      	bge.n	800041a <__adddf3+0x16e>
 8000400:	320c      	adds	r2, #12
 8000402:	dd08      	ble.n	8000416 <__adddf3+0x16a>
 8000404:	f102 0c14 	add.w	ip, r2, #20
 8000408:	f1c2 020c 	rsb	r2, r2, #12
 800040c:	fa01 f00c 	lsl.w	r0, r1, ip
 8000410:	fa21 f102 	lsr.w	r1, r1, r2
 8000414:	e00c      	b.n	8000430 <__adddf3+0x184>
 8000416:	f102 0214 	add.w	r2, r2, #20
 800041a:	bfd8      	it	le
 800041c:	f1c2 0c20 	rsble	ip, r2, #32
 8000420:	fa01 f102 	lsl.w	r1, r1, r2
 8000424:	fa20 fc0c 	lsr.w	ip, r0, ip
 8000428:	bfdc      	itt	le
 800042a:	ea41 010c 	orrle.w	r1, r1, ip
 800042e:	4090      	lslle	r0, r2
 8000430:	1ae4      	subs	r4, r4, r3
 8000432:	bfa2      	ittt	ge
 8000434:	eb01 5104 	addge.w	r1, r1, r4, lsl #20
 8000438:	4329      	orrge	r1, r5
 800043a:	bd30      	popge	{r4, r5, pc}
 800043c:	ea6f 0404 	mvn.w	r4, r4
 8000440:	3c1f      	subs	r4, #31
 8000442:	da1c      	bge.n	800047e <__adddf3+0x1d2>
 8000444:	340c      	adds	r4, #12
 8000446:	dc0e      	bgt.n	8000466 <__adddf3+0x1ba>
 8000448:	f104 0414 	add.w	r4, r4, #20
 800044c:	f1c4 0220 	rsb	r2, r4, #32
 8000450:	fa20 f004 	lsr.w	r0, r0, r4
 8000454:	fa01 f302 	lsl.w	r3, r1, r2
 8000458:	ea40 0003 	orr.w	r0, r0, r3
 800045c:	fa21 f304 	lsr.w	r3, r1, r4
 8000460:	ea45 0103 	orr.w	r1, r5, r3
 8000464:	bd30      	pop	{r4, r5, pc}
 8000466:	f1c4 040c 	rsb	r4, r4, #12
 800046a:	f1c4 0220 	rsb	r2, r4, #32
 800046e:	fa20 f002 	lsr.w	r0, r0, r2
 8000472:	fa01 f304 	lsl.w	r3, r1, r4
 8000476:	ea40 0003 	orr.w	r0, r0, r3
 800047a:	4629      	mov	r1, r5
 800047c:	bd30      	pop	{r4, r5, pc}
 800047e:	fa21 f004 	lsr.w	r0, r1, r4
 8000482:	4629      	mov	r1, r5
 8000484:	bd30      	pop	{r4, r5, pc}
 8000486:	f094 0f00 	teq	r4, #0
 800048a:	f483 1380 	eor.w	r3, r3, #1048576	@ 0x100000
 800048e:	bf06      	itte	eq
 8000490:	f481 1180 	eoreq.w	r1, r1, #1048576	@ 0x100000
 8000494:	3401      	addeq	r4, #1
 8000496:	3d01      	subne	r5, #1
 8000498:	e74e      	b.n	8000338 <__adddf3+0x8c>
 800049a:	ea7f 5c64 	mvns.w	ip, r4, asr #21
 800049e:	bf18      	it	ne
 80004a0:	ea7f 5c65 	mvnsne.w	ip, r5, asr #21
 80004a4:	d029      	beq.n	80004fa <__adddf3+0x24e>
 80004a6:	ea94 0f05 	teq	r4, r5
 80004aa:	bf08      	it	eq
 80004ac:	ea90 0f02 	teqeq	r0, r2
 80004b0:	d005      	beq.n	80004be <__adddf3+0x212>
 80004b2:	ea54 0c00 	orrs.w	ip, r4, r0
 80004b6:	bf04      	itt	eq
 80004b8:	4619      	moveq	r1, r3
 80004ba:	4610      	moveq	r0, r2
 80004bc:	bd30      	pop	{r4, r5, pc}
 80004be:	ea91 0f03 	teq	r1, r3
 80004c2:	bf1e      	ittt	ne
 80004c4:	2100      	movne	r1, #0
 80004c6:	2000      	movne	r0, #0
 80004c8:	bd30      	popne	{r4, r5, pc}
 80004ca:	ea5f 5c54 	movs.w	ip, r4, lsr #21
 80004ce:	d105      	bne.n	80004dc <__adddf3+0x230>
 80004d0:	0040      	lsls	r0, r0, #1
 80004d2:	4149      	adcs	r1, r1
 80004d4:	bf28      	it	cs
 80004d6:	f041 4100 	orrcs.w	r1, r1, #2147483648	@ 0x80000000
 80004da:	bd30      	pop	{r4, r5, pc}
 80004dc:	f514 0480 	adds.w	r4, r4, #4194304	@ 0x400000
 80004e0:	bf3c      	itt	cc
 80004e2:	f501 1180 	addcc.w	r1, r1, #1048576	@ 0x100000
 80004e6:	bd30      	popcc	{r4, r5, pc}
 80004e8:	f001 4500 	and.w	r5, r1, #2147483648	@ 0x80000000
 80004ec:	f045 41fe 	orr.w	r1, r5, #2130706432	@ 0x7f000000
 80004f0:	f441 0170 	orr.w	r1, r1, #15728640	@ 0xf00000
 80004f4:	f04f 0000 	mov.w	r0, #0
 80004f8:	bd30      	pop	{r4, r5, pc}
 80004fa:	ea7f 5c64 	mvns.w	ip, r4, asr #21
 80004fe:	bf1a      	itte	ne
 8000500:	4619      	movne	r1, r3
 8000502:	4610      	movne	r0, r2
 8000504:	ea7f 5c65 	mvnseq.w	ip, r5, asr #21
 8000508:	bf1c      	itt	ne
 800050a:	460b      	movne	r3, r1
 800050c:	4602      	movne	r2, r0
 800050e:	ea50 3401 	orrs.w	r4, r0, r1, lsl #12
 8000512:	bf06      	itte	eq
 8000514:	ea52 3503 	orrseq.w	r5, r2, r3, lsl #12
 8000518:	ea91 0f03 	teqeq	r1, r3
 800051c:	f441 2100 	orrne.w	r1, r1, #524288	@ 0x80000
 8000520:	bd30      	pop	{r4, r5, pc}
 8000522:	bf00      	nop

08000524 <__aeabi_ui2d>:
 8000524:	f090 0f00 	teq	r0, #0
 8000528:	bf04      	itt	eq
 800052a:	2100      	moveq	r1, #0
 800052c:	4770      	bxeq	lr
 800052e:	b530      	push	{r4, r5, lr}
 8000530:	f44f 6480 	mov.w	r4, #1024	@ 0x400
 8000534:	f104 0432 	add.w	r4, r4, #50	@ 0x32
 8000538:	f04f 0500 	mov.w	r5, #0
 800053c:	f04f 0100 	mov.w	r1, #0
 8000540:	e750      	b.n	80003e4 <__adddf3+0x138>
 8000542:	bf00      	nop

08000544 <__aeabi_i2d>:
 8000544:	f090 0f00 	teq	r0, #0
 8000548:	bf04      	itt	eq
 800054a:	2100      	moveq	r1, #0
 800054c:	4770      	bxeq	lr
 800054e:	b530      	push	{r4, r5, lr}
 8000550:	f44f 6480 	mov.w	r4, #1024	@ 0x400
 8000554:	f104 0432 	add.w	r4, r4, #50	@ 0x32
 8000558:	f010 4500 	ands.w	r5, r0, #2147483648	@ 0x80000000
 800055c:	bf48      	it	mi
 800055e:	4240      	negmi	r0, r0
 8000560:	f04f 0100 	mov.w	r1, #0
 8000564:	e73e      	b.n	80003e4 <__adddf3+0x138>
 8000566:	bf00      	nop

08000568 <__aeabi_f2d>:
 8000568:	0042      	lsls	r2, r0, #1
 800056a:	ea4f 01e2 	mov.w	r1, r2, asr #3
 800056e:	ea4f 0131 	mov.w	r1, r1, rrx
 8000572:	ea4f 7002 	mov.w	r0, r2, lsl #28
 8000576:	bf1f      	itttt	ne
 8000578:	f012 437f 	andsne.w	r3, r2, #4278190080	@ 0xff000000
 800057c:	f093 4f7f 	teqne	r3, #4278190080	@ 0xff000000
 8000580:	f081 5160 	eorne.w	r1, r1, #939524096	@ 0x38000000
 8000584:	4770      	bxne	lr
 8000586:	f032 427f 	bics.w	r2, r2, #4278190080	@ 0xff000000
 800058a:	bf08      	it	eq
 800058c:	4770      	bxeq	lr
 800058e:	f093 4f7f 	teq	r3, #4278190080	@ 0xff000000
 8000592:	bf04      	itt	eq
 8000594:	f441 2100 	orreq.w	r1, r1, #524288	@ 0x80000
 8000598:	4770      	bxeq	lr
 800059a:	b530      	push	{r4, r5, lr}
 800059c:	f44f 7460 	mov.w	r4, #896	@ 0x380
 80005a0:	f001 4500 	and.w	r5, r1, #2147483648	@ 0x80000000
 80005a4:	f021 4100 	bic.w	r1, r1, #2147483648	@ 0x80000000
 80005a8:	e71c      	b.n	80003e4 <__adddf3+0x138>
 80005aa:	bf00      	nop

080005ac <__aeabi_ul2d>:
 80005ac:	ea50 0201 	orrs.w	r2, r0, r1
 80005b0:	bf08      	it	eq
 80005b2:	4770      	bxeq	lr
 80005b4:	b530      	push	{r4, r5, lr}
 80005b6:	f04f 0500 	mov.w	r5, #0
 80005ba:	e00a      	b.n	80005d2 <__aeabi_l2d+0x16>

080005bc <__aeabi_l2d>:
 80005bc:	ea50 0201 	orrs.w	r2, r0, r1
 80005c0:	bf08      	it	eq
 80005c2:	4770      	bxeq	lr
 80005c4:	b530      	push	{r4, r5, lr}
 80005c6:	f011 4500 	ands.w	r5, r1, #2147483648	@ 0x80000000
 80005ca:	d502      	bpl.n	80005d2 <__aeabi_l2d+0x16>
 80005cc:	4240      	negs	r0, r0
 80005ce:	eb61 0141 	sbc.w	r1, r1, r1, lsl #1
 80005d2:	f44f 6480 	mov.w	r4, #1024	@ 0x400
 80005d6:	f104 0432 	add.w	r4, r4, #50	@ 0x32
 80005da:	ea5f 5c91 	movs.w	ip, r1, lsr #22
 80005de:	f43f aed8 	beq.w	8000392 <__adddf3+0xe6>
 80005e2:	f04f 0203 	mov.w	r2, #3
 80005e6:	ea5f 0cdc 	movs.w	ip, ip, lsr #3
 80005ea:	bf18      	it	ne
 80005ec:	3203      	addne	r2, #3
 80005ee:	ea5f 0cdc 	movs.w	ip, ip, lsr #3
 80005f2:	bf18      	it	ne
 80005f4:	3203      	addne	r2, #3
 80005f6:	eb02 02dc 	add.w	r2, r2, ip, lsr #3
 80005fa:	f1c2 0320 	rsb	r3, r2, #32
 80005fe:	fa00 fc03 	lsl.w	ip, r0, r3
 8000602:	fa20 f002 	lsr.w	r0, r0, r2
 8000606:	fa01 fe03 	lsl.w	lr, r1, r3
 800060a:	ea40 000e 	orr.w	r0, r0, lr
 800060e:	fa21 f102 	lsr.w	r1, r1, r2
 8000612:	4414      	add	r4, r2
 8000614:	e6bd      	b.n	8000392 <__adddf3+0xe6>
 8000616:	bf00      	nop

08000618 <__aeabi_dmul>:
 8000618:	b570      	push	{r4, r5, r6, lr}
 800061a:	f04f 0cff 	mov.w	ip, #255	@ 0xff
 800061e:	f44c 6ce0 	orr.w	ip, ip, #1792	@ 0x700
 8000622:	ea1c 5411 	ands.w	r4, ip, r1, lsr #20
 8000626:	bf1d      	ittte	ne
 8000628:	ea1c 5513 	andsne.w	r5, ip, r3, lsr #20
 800062c:	ea94 0f0c 	teqne	r4, ip
 8000630:	ea95 0f0c 	teqne	r5, ip
 8000634:	f000 f8de 	bleq	80007f4 <__aeabi_dmul+0x1dc>
 8000638:	442c      	add	r4, r5
 800063a:	ea81 0603 	eor.w	r6, r1, r3
 800063e:	ea21 514c 	bic.w	r1, r1, ip, lsl #21
 8000642:	ea23 534c 	bic.w	r3, r3, ip, lsl #21
 8000646:	ea50 3501 	orrs.w	r5, r0, r1, lsl #12
 800064a:	bf18      	it	ne
 800064c:	ea52 3503 	orrsne.w	r5, r2, r3, lsl #12
 8000650:	f441 1180 	orr.w	r1, r1, #1048576	@ 0x100000
 8000654:	f443 1380 	orr.w	r3, r3, #1048576	@ 0x100000
 8000658:	d038      	beq.n	80006cc <__aeabi_dmul+0xb4>
 800065a:	fba0 ce02 	umull	ip, lr, r0, r2
 800065e:	f04f 0500 	mov.w	r5, #0
 8000662:	fbe1 e502 	umlal	lr, r5, r1, r2
 8000666:	f006 4200 	and.w	r2, r6, #2147483648	@ 0x80000000
 800066a:	fbe0 e503 	umlal	lr, r5, r0, r3
 800066e:	f04f 0600 	mov.w	r6, #0
 8000672:	fbe1 5603 	umlal	r5, r6, r1, r3
 8000676:	f09c 0f00 	teq	ip, #0
 800067a:	bf18      	it	ne
 800067c:	f04e 0e01 	orrne.w	lr, lr, #1
 8000680:	f1a4 04ff 	sub.w	r4, r4, #255	@ 0xff
 8000684:	f5b6 7f00 	cmp.w	r6, #512	@ 0x200
 8000688:	f564 7440 	sbc.w	r4, r4, #768	@ 0x300
 800068c:	d204      	bcs.n	8000698 <__aeabi_dmul+0x80>
 800068e:	ea5f 0e4e 	movs.w	lr, lr, lsl #1
 8000692:	416d      	adcs	r5, r5
 8000694:	eb46 0606 	adc.w	r6, r6, r6
 8000698:	ea42 21c6 	orr.w	r1, r2, r6, lsl #11
 800069c:	ea41 5155 	orr.w	r1, r1, r5, lsr #21
 80006a0:	ea4f 20c5 	mov.w	r0, r5, lsl #11
 80006a4:	ea40 505e 	orr.w	r0, r0, lr, lsr #21
 80006a8:	ea4f 2ece 	mov.w	lr, lr, lsl #11
 80006ac:	f1b4 0cfd 	subs.w	ip, r4, #253	@ 0xfd
 80006b0:	bf88      	it	hi
 80006b2:	f5bc 6fe0 	cmphi.w	ip, #1792	@ 0x700
 80006b6:	d81e      	bhi.n	80006f6 <__aeabi_dmul+0xde>
 80006b8:	f1be 4f00 	cmp.w	lr, #2147483648	@ 0x80000000
 80006bc:	bf08      	it	eq
 80006be:	ea5f 0e50 	movseq.w	lr, r0, lsr #1
 80006c2:	f150 0000 	adcs.w	r0, r0, #0
 80006c6:	eb41 5104 	adc.w	r1, r1, r4, lsl #20
 80006ca:	bd70      	pop	{r4, r5, r6, pc}
 80006cc:	f006 4600 	and.w	r6, r6, #2147483648	@ 0x80000000
 80006d0:	ea46 0101 	orr.w	r1, r6, r1
 80006d4:	ea40 0002 	orr.w	r0, r0, r2
 80006d8:	ea81 0103 	eor.w	r1, r1, r3
 80006dc:	ebb4 045c 	subs.w	r4, r4, ip, lsr #1
 80006e0:	bfc2      	ittt	gt
 80006e2:	ebd4 050c 	rsbsgt	r5, r4, ip
 80006e6:	ea41 5104 	orrgt.w	r1, r1, r4, lsl #20
 80006ea:	bd70      	popgt	{r4, r5, r6, pc}
 80006ec:	f441 1180 	orr.w	r1, r1, #1048576	@ 0x100000
 80006f0:	f04f 0e00 	mov.w	lr, #0
 80006f4:	3c01      	subs	r4, #1
 80006f6:	f300 80ab 	bgt.w	8000850 <__aeabi_dmul+0x238>
 80006fa:	f114 0f36 	cmn.w	r4, #54	@ 0x36
 80006fe:	bfde      	ittt	le
 8000700:	2000      	movle	r0, #0
 8000702:	f001 4100 	andle.w	r1, r1, #2147483648	@ 0x80000000
 8000706:	bd70      	pople	{r4, r5, r6, pc}
 8000708:	f1c4 0400 	rsb	r4, r4, #0
 800070c:	3c20      	subs	r4, #32
 800070e:	da35      	bge.n	800077c <__aeabi_dmul+0x164>
 8000710:	340c      	adds	r4, #12
 8000712:	dc1b      	bgt.n	800074c <__aeabi_dmul+0x134>
 8000714:	f104 0414 	add.w	r4, r4, #20
 8000718:	f1c4 0520 	rsb	r5, r4, #32
 800071c:	fa00 f305 	lsl.w	r3, r0, r5
 8000720:	fa20 f004 	lsr.w	r0, r0, r4
 8000724:	fa01 f205 	lsl.w	r2, r1, r5
 8000728:	ea40 0002 	orr.w	r0, r0, r2
 800072c:	f001 4200 	and.w	r2, r1, #2147483648	@ 0x80000000
 8000730:	f021 4100 	bic.w	r1, r1, #2147483648	@ 0x80000000
 8000734:	eb10 70d3 	adds.w	r0, r0, r3, lsr #31
 8000738:	fa21 f604 	lsr.w	r6, r1, r4
 800073c:	eb42 0106 	adc.w	r1, r2, r6
 8000740:	ea5e 0e43 	orrs.w	lr, lr, r3, lsl #1
 8000744:	bf08      	it	eq
 8000746:	ea20 70d3 	biceq.w	r0, r0, r3, lsr #31
 800074a:	bd70      	pop	{r4, r5, r6, pc}
 800074c:	f1c4 040c 	rsb	r4, r4, #12
 8000750:	f1c4 0520 	rsb	r5, r4, #32
 8000754:	fa00 f304 	lsl.w	r3, r0, r4
 8000758:	fa20 f005 	lsr.w	r0, r0, r5
 800075c:	fa01 f204 	lsl.w	r2, r1, r4
 8000760:	ea40 0002 	orr.w	r0, r0, r2
 8000764:	f001 4100 	and.w	r1, r1, #2147483648	@ 0x80000000
 8000768:	eb10 70d3 	adds.w	r0, r0, r3, lsr #31
 800076c:	f141 0100 	adc.w	r1, r1, #0
 8000770:	ea5e 0e43 	orrs.w	lr, lr, r3, lsl #1
 8000774:	bf08      	it	eq
 8000776:	ea20 70d3 	biceq.w	r0, r0, r3, lsr #31
 800077a:	bd70      	pop	{r4, r5, r6, pc}
 800077c:	f1c4 0520 	rsb	r5, r4, #32
 8000780:	fa00 f205 	lsl.w	r2, r0, r5
 8000784:	ea4e 0e02 	orr.w	lr, lr, r2
 8000788:	fa20 f304 	lsr.w	r3, r0, r4
 800078c:	fa01 f205 	lsl.w	r2, r1, r5
 8000790:	ea43 0302 	orr.w	r3, r3, r2
 8000794:	fa21 f004 	lsr.w	r0, r1, r4
 8000798:	f001 4100 	and.w	r1, r1, #2147483648	@ 0x80000000
 800079c:	fa21 f204 	lsr.w	r2, r1, r4
 80007a0:	ea20 0002 	bic.w	r0, r0, r2
 80007a4:	eb00 70d3 	add.w	r0, r0, r3, lsr #31
 80007a8:	ea5e 0e43 	orrs.w	lr, lr, r3, lsl #1
 80007ac:	bf08      	it	eq
 80007ae:	ea20 70d3 	biceq.w	r0, r0, r3, lsr #31
 80007b2:	bd70      	pop	{r4, r5, r6, pc}
 80007b4:	f094 0f00 	teq	r4, #0
 80007b8:	d10f      	bne.n	80007da <__aeabi_dmul+0x1c2>
 80007ba:	f001 4600 	and.w	r6, r1, #2147483648	@ 0x80000000
 80007be:	0040      	lsls	r0, r0, #1
 80007c0:	eb41 0101 	adc.w	r1, r1, r1
 80007c4:	f411 1f80 	tst.w	r1, #1048576	@ 0x100000
 80007c8:	bf08      	it	eq
 80007ca:	3c01      	subeq	r4, #1
 80007cc:	d0f7      	beq.n	80007be <__aeabi_dmul+0x1a6>
 80007ce:	ea41 0106 	orr.w	r1, r1, r6
 80007d2:	f095 0f00 	teq	r5, #0
 80007d6:	bf18      	it	ne
 80007d8:	4770      	bxne	lr
 80007da:	f003 4600 	and.w	r6, r3, #2147483648	@ 0x80000000
 80007de:	0052      	lsls	r2, r2, #1
 80007e0:	eb43 0303 	adc.w	r3, r3, r3
 80007e4:	f413 1f80 	tst.w	r3, #1048576	@ 0x100000
 80007e8:	bf08      	it	eq
 80007ea:	3d01      	subeq	r5, #1
 80007ec:	d0f7      	beq.n	80007de <__aeabi_dmul+0x1c6>
 80007ee:	ea43 0306 	orr.w	r3, r3, r6
 80007f2:	4770      	bx	lr
 80007f4:	ea94 0f0c 	teq	r4, ip
 80007f8:	ea0c 5513 	and.w	r5, ip, r3, lsr #20
 80007fc:	bf18      	it	ne
 80007fe:	ea95 0f0c 	teqne	r5, ip
 8000802:	d00c      	beq.n	800081e <__aeabi_dmul+0x206>
 8000804:	ea50 0641 	orrs.w	r6, r0, r1, lsl #1
 8000808:	bf18      	it	ne
 800080a:	ea52 0643 	orrsne.w	r6, r2, r3, lsl #1
 800080e:	d1d1      	bne.n	80007b4 <__aeabi_dmul+0x19c>
 8000810:	ea81 0103 	eor.w	r1, r1, r3
 8000814:	f001 4100 	and.w	r1, r1, #2147483648	@ 0x80000000
 8000818:	f04f 0000 	mov.w	r0, #0
 800081c:	bd70      	pop	{r4, r5, r6, pc}
 800081e:	ea50 0641 	orrs.w	r6, r0, r1, lsl #1
 8000822:	bf06      	itte	eq
 8000824:	4610      	moveq	r0, r2
 8000826:	4619      	moveq	r1, r3
 8000828:	ea52 0643 	orrsne.w	r6, r2, r3, lsl #1
 800082c:	d019      	beq.n	8000862 <__aeabi_dmul+0x24a>
 800082e:	ea94 0f0c 	teq	r4, ip
 8000832:	d102      	bne.n	800083a <__aeabi_dmul+0x222>
 8000834:	ea50 3601 	orrs.w	r6, r0, r1, lsl #12
 8000838:	d113      	bne.n	8000862 <__aeabi_dmul+0x24a>
 800083a:	ea95 0f0c 	teq	r5, ip
 800083e:	d105      	bne.n	800084c <__aeabi_dmul+0x234>
 8000840:	ea52 3603 	orrs.w	r6, r2, r3, lsl #12
 8000844:	bf1c      	itt	ne
 8000846:	4610      	movne	r0, r2
 8000848:	4619      	movne	r1, r3
 800084a:	d10a      	bne.n	8000862 <__aeabi_dmul+0x24a>
 800084c:	ea81 0103 	eor.w	r1, r1, r3
 8000850:	f001 4100 	and.w	r1, r1, #2147483648	@ 0x80000000
 8000854:	f041 41fe 	orr.w	r1, r1, #2130706432	@ 0x7f000000
 8000858:	f441 0170 	orr.w	r1, r1, #15728640	@ 0xf00000
 800085c:	f04f 0000 	mov.w	r0, #0
 8000860:	bd70      	pop	{r4, r5, r6, pc}
 8000862:	f041 41fe 	orr.w	r1, r1, #2130706432	@ 0x7f000000
 8000866:	f441 0178 	orr.w	r1, r1, #16252928	@ 0xf80000
 800086a:	bd70      	pop	{r4, r5, r6, pc}

0800086c <__aeabi_ddiv>:
 800086c:	b570      	push	{r4, r5, r6, lr}
 800086e:	f04f 0cff 	mov.w	ip, #255	@ 0xff
 8000872:	f44c 6ce0 	orr.w	ip, ip, #1792	@ 0x700
 8000876:	ea1c 5411 	ands.w	r4, ip, r1, lsr #20
 800087a:	bf1d      	ittte	ne
 800087c:	ea1c 5513 	andsne.w	r5, ip, r3, lsr #20
 8000880:	ea94 0f0c 	teqne	r4, ip
 8000884:	ea95 0f0c 	teqne	r5, ip
 8000888:	f000 f8a7 	bleq	80009da <__aeabi_ddiv+0x16e>
 800088c:	eba4 0405 	sub.w	r4, r4, r5
 8000890:	ea81 0e03 	eor.w	lr, r1, r3
 8000894:	ea52 3503 	orrs.w	r5, r2, r3, lsl #12
 8000898:	ea4f 3101 	mov.w	r1, r1, lsl #12
 800089c:	f000 8088 	beq.w	80009b0 <__aeabi_ddiv+0x144>
 80008a0:	ea4f 3303 	mov.w	r3, r3, lsl #12
 80008a4:	f04f 5580 	mov.w	r5, #268435456	@ 0x10000000
 80008a8:	ea45 1313 	orr.w	r3, r5, r3, lsr #4
 80008ac:	ea43 6312 	orr.w	r3, r3, r2, lsr #24
 80008b0:	ea4f 2202 	mov.w	r2, r2, lsl #8
 80008b4:	ea45 1511 	orr.w	r5, r5, r1, lsr #4
 80008b8:	ea45 6510 	orr.w	r5, r5, r0, lsr #24
 80008bc:	ea4f 2600 	mov.w	r6, r0, lsl #8
 80008c0:	f00e 4100 	and.w	r1, lr, #2147483648	@ 0x80000000
 80008c4:	429d      	cmp	r5, r3
 80008c6:	bf08      	it	eq
 80008c8:	4296      	cmpeq	r6, r2
 80008ca:	f144 04fd 	adc.w	r4, r4, #253	@ 0xfd
 80008ce:	f504 7440 	add.w	r4, r4, #768	@ 0x300
 80008d2:	d202      	bcs.n	80008da <__aeabi_ddiv+0x6e>
 80008d4:	085b      	lsrs	r3, r3, #1
 80008d6:	ea4f 0232 	mov.w	r2, r2, rrx
 80008da:	1ab6      	subs	r6, r6, r2
 80008dc:	eb65 0503 	sbc.w	r5, r5, r3
 80008e0:	085b      	lsrs	r3, r3, #1
 80008e2:	ea4f 0232 	mov.w	r2, r2, rrx
 80008e6:	f44f 1080 	mov.w	r0, #1048576	@ 0x100000
 80008ea:	f44f 2c00 	mov.w	ip, #524288	@ 0x80000
 80008ee:	ebb6 0e02 	subs.w	lr, r6, r2
 80008f2:	eb75 0e03 	sbcs.w	lr, r5, r3
 80008f6:	bf22      	ittt	cs
 80008f8:	1ab6      	subcs	r6, r6, r2
 80008fa:	4675      	movcs	r5, lr
 80008fc:	ea40 000c 	orrcs.w	r0, r0, ip
 8000900:	085b      	lsrs	r3, r3, #1
 8000902:	ea4f 0232 	mov.w	r2, r2, rrx
 8000906:	ebb6 0e02 	subs.w	lr, r6, r2
 800090a:	eb75 0e03 	sbcs.w	lr, r5, r3
 800090e:	bf22      	ittt	cs
 8000910:	1ab6      	subcs	r6, r6, r2
 8000912:	4675      	movcs	r5, lr
 8000914:	ea40 005c 	orrcs.w	r0, r0, ip, lsr #1
 8000918:	085b      	lsrs	r3, r3, #1
 800091a:	ea4f 0232 	mov.w	r2, r2, rrx
 800091e:	ebb6 0e02 	subs.w	lr, r6, r2
 8000922:	eb75 0e03 	sbcs.w	lr, r5, r3
 8000926:	bf22      	ittt	cs
 8000928:	1ab6      	subcs	r6, r6, r2
 800092a:	4675      	movcs	r5, lr
 800092c:	ea40 009c 	orrcs.w	r0, r0, ip, lsr #2
 8000930:	085b      	lsrs	r3, r3, #1
 8000932:	ea4f 0232 	mov.w	r2, r2, rrx
 8000936:	ebb6 0e02 	subs.w	lr, r6, r2
 800093a:	eb75 0e03 	sbcs.w	lr, r5, r3
 800093e:	bf22      	ittt	cs
 8000940:	1ab6      	subcs	r6, r6, r2
 8000942:	4675      	movcs	r5, lr
 8000944:	ea40 00dc 	orrcs.w	r0, r0, ip, lsr #3
 8000948:	ea55 0e06 	orrs.w	lr, r5, r6
 800094c:	d018      	beq.n	8000980 <__aeabi_ddiv+0x114>
 800094e:	ea4f 1505 	mov.w	r5, r5, lsl #4
 8000952:	ea45 7516 	orr.w	r5, r5, r6, lsr #28
 8000956:	ea4f 1606 	mov.w	r6, r6, lsl #4
 800095a:	ea4f 03c3 	mov.w	r3, r3, lsl #3
 800095e:	ea43 7352 	orr.w	r3, r3, r2, lsr #29
 8000962:	ea4f 02c2 	mov.w	r2, r2, lsl #3
 8000966:	ea5f 1c1c 	movs.w	ip, ip, lsr #4
 800096a:	d1c0      	bne.n	80008ee <__aeabi_ddiv+0x82>
 800096c:	f411 1f80 	tst.w	r1, #1048576	@ 0x100000
 8000970:	d10b      	bne.n	800098a <__aeabi_ddiv+0x11e>
 8000972:	ea41 0100 	orr.w	r1, r1, r0
 8000976:	f04f 0000 	mov.w	r0, #0
 800097a:	f04f 4c00 	mov.w	ip, #2147483648	@ 0x80000000
 800097e:	e7b6      	b.n	80008ee <__aeabi_ddiv+0x82>
 8000980:	f411 1f80 	tst.w	r1, #1048576	@ 0x100000
 8000984:	bf04      	itt	eq
 8000986:	4301      	orreq	r1, r0
 8000988:	2000      	moveq	r0, #0
 800098a:	f1b4 0cfd 	subs.w	ip, r4, #253	@ 0xfd
 800098e:	bf88      	it	hi
 8000990:	f5bc 6fe0 	cmphi.w	ip, #1792	@ 0x700
 8000994:	f63f aeaf 	bhi.w	80006f6 <__aeabi_dmul+0xde>
 8000998:	ebb5 0c03 	subs.w	ip, r5, r3
 800099c:	bf04      	itt	eq
 800099e:	ebb6 0c02 	subseq.w	ip, r6, r2
 80009a2:	ea5f 0c50 	movseq.w	ip, r0, lsr #1
 80009a6:	f150 0000 	adcs.w	r0, r0, #0
 80009aa:	eb41 5104 	adc.w	r1, r1, r4, lsl #20
 80009ae:	bd70      	pop	{r4, r5, r6, pc}
 80009b0:	f00e 4e00 	and.w	lr, lr, #2147483648	@ 0x80000000
 80009b4:	ea4e 3111 	orr.w	r1, lr, r1, lsr #12
 80009b8:	eb14 045c 	adds.w	r4, r4, ip, lsr #1
 80009bc:	bfc2      	ittt	gt
 80009be:	ebd4 050c 	rsbsgt	r5, r4, ip
 80009c2:	ea41 5104 	orrgt.w	r1, r1, r4, lsl #20
 80009c6:	bd70      	popgt	{r4, r5, r6, pc}
 80009c8:	f441 1180 	orr.w	r1, r1, #1048576	@ 0x100000
 80009cc:	f04f 0e00 	mov.w	lr, #0
 80009d0:	3c01      	subs	r4, #1
 80009d2:	e690      	b.n	80006f6 <__aeabi_dmul+0xde>
 80009d4:	ea45 0e06 	orr.w	lr, r5, r6
 80009d8:	e68d      	b.n	80006f6 <__aeabi_dmul+0xde>
 80009da:	ea0c 5513 	and.w	r5, ip, r3, lsr #20
 80009de:	ea94 0f0c 	teq	r4, ip
 80009e2:	bf08      	it	eq
 80009e4:	ea95 0f0c 	teqeq	r5, ip
 80009e8:	f43f af3b 	beq.w	8000862 <__aeabi_dmul+0x24a>
 80009ec:	ea94 0f0c 	teq	r4, ip
 80009f0:	d10a      	bne.n	8000a08 <__aeabi_ddiv+0x19c>
 80009f2:	ea50 3401 	orrs.w	r4, r0, r1, lsl #12
 80009f6:	f47f af34 	bne.w	8000862 <__aeabi_dmul+0x24a>
 80009fa:	ea95 0f0c 	teq	r5, ip
 80009fe:	f47f af25 	bne.w	800084c <__aeabi_dmul+0x234>
 8000a02:	4610      	mov	r0, r2
 8000a04:	4619      	mov	r1, r3
 8000a06:	e72c      	b.n	8000862 <__aeabi_dmul+0x24a>
 8000a08:	ea95 0f0c 	teq	r5, ip
 8000a0c:	d106      	bne.n	8000a1c <__aeabi_ddiv+0x1b0>
 8000a0e:	ea52 3503 	orrs.w	r5, r2, r3, lsl #12
 8000a12:	f43f aefd 	beq.w	8000810 <__aeabi_dmul+0x1f8>
 8000a16:	4610      	mov	r0, r2
 8000a18:	4619      	mov	r1, r3
 8000a1a:	e722      	b.n	8000862 <__aeabi_dmul+0x24a>
 8000a1c:	ea50 0641 	orrs.w	r6, r0, r1, lsl #1
 8000a20:	bf18      	it	ne
 8000a22:	ea52 0643 	orrsne.w	r6, r2, r3, lsl #1
 8000a26:	f47f aec5 	bne.w	80007b4 <__aeabi_dmul+0x19c>
 8000a2a:	ea50 0441 	orrs.w	r4, r0, r1, lsl #1
 8000a2e:	f47f af0d 	bne.w	800084c <__aeabi_dmul+0x234>
 8000a32:	ea52 0543 	orrs.w	r5, r2, r3, lsl #1
 8000a36:	f47f aeeb 	bne.w	8000810 <__aeabi_dmul+0x1f8>
 8000a3a:	e712      	b.n	8000862 <__aeabi_dmul+0x24a>

08000a3c <__aeabi_d2f>:
 8000a3c:	ea4f 0241 	mov.w	r2, r1, lsl #1
 8000a40:	f1b2 43e0 	subs.w	r3, r2, #1879048192	@ 0x70000000
 8000a44:	bf24      	itt	cs
 8000a46:	f5b3 1c00 	subscs.w	ip, r3, #2097152	@ 0x200000
 8000a4a:	f1dc 5cfe 	rsbscs	ip, ip, #532676608	@ 0x1fc00000
 8000a4e:	d90d      	bls.n	8000a6c <__aeabi_d2f+0x30>
 8000a50:	f001 4c00 	and.w	ip, r1, #2147483648	@ 0x80000000
 8000a54:	ea4f 02c0 	mov.w	r2, r0, lsl #3
 8000a58:	ea4c 7050 	orr.w	r0, ip, r0, lsr #29
 8000a5c:	f1b2 4f00 	cmp.w	r2, #2147483648	@ 0x80000000
 8000a60:	eb40 0083 	adc.w	r0, r0, r3, lsl #2
 8000a64:	bf08      	it	eq
 8000a66:	f020 0001 	biceq.w	r0, r0, #1
 8000a6a:	4770      	bx	lr
 8000a6c:	f011 4f80 	tst.w	r1, #1073741824	@ 0x40000000
 8000a70:	d121      	bne.n	8000ab6 <__aeabi_d2f+0x7a>
 8000a72:	f113 7238 	adds.w	r2, r3, #48234496	@ 0x2e00000
 8000a76:	bfbc      	itt	lt
 8000a78:	f001 4000 	andlt.w	r0, r1, #2147483648	@ 0x80000000
 8000a7c:	4770      	bxlt	lr
 8000a7e:	f441 1180 	orr.w	r1, r1, #1048576	@ 0x100000
 8000a82:	ea4f 5252 	mov.w	r2, r2, lsr #21
 8000a86:	f1c2 0218 	rsb	r2, r2, #24
 8000a8a:	f1c2 0c20 	rsb	ip, r2, #32
 8000a8e:	fa10 f30c 	lsls.w	r3, r0, ip
 8000a92:	fa20 f002 	lsr.w	r0, r0, r2
 8000a96:	bf18      	it	ne
 8000a98:	f040 0001 	orrne.w	r0, r0, #1
 8000a9c:	ea4f 23c1 	mov.w	r3, r1, lsl #11
 8000aa0:	ea4f 23d3 	mov.w	r3, r3, lsr #11
 8000aa4:	fa03 fc0c 	lsl.w	ip, r3, ip
 8000aa8:	ea40 000c 	orr.w	r0, r0, ip
 8000aac:	fa23 f302 	lsr.w	r3, r3, r2
 8000ab0:	ea4f 0343 	mov.w	r3, r3, lsl #1
 8000ab4:	e7cc      	b.n	8000a50 <__aeabi_d2f+0x14>
 8000ab6:	ea7f 5362 	mvns.w	r3, r2, asr #21
 8000aba:	d107      	bne.n	8000acc <__aeabi_d2f+0x90>
 8000abc:	ea50 3301 	orrs.w	r3, r0, r1, lsl #12
 8000ac0:	bf1e      	ittt	ne
 8000ac2:	f04f 40fe 	movne.w	r0, #2130706432	@ 0x7f000000
 8000ac6:	f440 0040 	orrne.w	r0, r0, #12582912	@ 0xc00000
 8000aca:	4770      	bxne	lr
 8000acc:	f001 4000 	and.w	r0, r1, #2147483648	@ 0x80000000
 8000ad0:	f040 40fe 	orr.w	r0, r0, #2130706432	@ 0x7f000000
 8000ad4:	f440 0000 	orr.w	r0, r0, #8388608	@ 0x800000
 8000ad8:	4770      	bx	lr
 8000ada:	bf00      	nop

08000adc <__aeabi_uldivmod>:
 8000adc:	b953      	cbnz	r3, 8000af4 <__aeabi_uldivmod+0x18>
 8000ade:	b94a      	cbnz	r2, 8000af4 <__aeabi_uldivmod+0x18>
 8000ae0:	2900      	cmp	r1, #0
 8000ae2:	bf08      	it	eq
 8000ae4:	2800      	cmpeq	r0, #0
 8000ae6:	bf1c      	itt	ne
 8000ae8:	f04f 31ff 	movne.w	r1, #4294967295
 8000aec:	f04f 30ff 	movne.w	r0, #4294967295
 8000af0:	f000 b988 	b.w	8000e04 <__aeabi_idiv0>
 8000af4:	f1ad 0c08 	sub.w	ip, sp, #8
 8000af8:	e96d ce04 	strd	ip, lr, [sp, #-16]!
 8000afc:	f000 f806 	bl	8000b0c <__udivmoddi4>
 8000b00:	f8dd e004 	ldr.w	lr, [sp, #4]
 8000b04:	e9dd 2302 	ldrd	r2, r3, [sp, #8]
 8000b08:	b004      	add	sp, #16
 8000b0a:	4770      	bx	lr

08000b0c <__udivmoddi4>:
 8000b0c:	e92d 47f0 	stmdb	sp!, {r4, r5, r6, r7, r8, r9, sl, lr}
 8000b10:	9d08      	ldr	r5, [sp, #32]
 8000b12:	468e      	mov	lr, r1
 8000b14:	4604      	mov	r4, r0
 8000b16:	4688      	mov	r8, r1
 8000b18:	2b00      	cmp	r3, #0
 8000b1a:	d14a      	bne.n	8000bb2 <__udivmoddi4+0xa6>
 8000b1c:	428a      	cmp	r2, r1
 8000b1e:	4617      	mov	r7, r2
 8000b20:	d962      	bls.n	8000be8 <__udivmoddi4+0xdc>
 8000b22:	fab2 f682 	clz	r6, r2
 8000b26:	b14e      	cbz	r6, 8000b3c <__udivmoddi4+0x30>
 8000b28:	f1c6 0320 	rsb	r3, r6, #32
 8000b2c:	fa01 f806 	lsl.w	r8, r1, r6
 8000b30:	fa20 f303 	lsr.w	r3, r0, r3
 8000b34:	40b7      	lsls	r7, r6
 8000b36:	ea43 0808 	orr.w	r8, r3, r8
 8000b3a:	40b4      	lsls	r4, r6
 8000b3c:	ea4f 4e17 	mov.w	lr, r7, lsr #16
 8000b40:	fa1f fc87 	uxth.w	ip, r7
 8000b44:	fbb8 f1fe 	udiv	r1, r8, lr
 8000b48:	0c23      	lsrs	r3, r4, #16
 8000b4a:	fb0e 8811 	mls	r8, lr, r1, r8
 8000b4e:	ea43 4308 	orr.w	r3, r3, r8, lsl #16
 8000b52:	fb01 f20c 	mul.w	r2, r1, ip
 8000b56:	429a      	cmp	r2, r3
 8000b58:	d909      	bls.n	8000b6e <__udivmoddi4+0x62>
 8000b5a:	18fb      	adds	r3, r7, r3
 8000b5c:	f101 30ff 	add.w	r0, r1, #4294967295
 8000b60:	f080 80ea 	bcs.w	8000d38 <__udivmoddi4+0x22c>
 8000b64:	429a      	cmp	r2, r3
 8000b66:	f240 80e7 	bls.w	8000d38 <__udivmoddi4+0x22c>
 8000b6a:	3902      	subs	r1, #2
 8000b6c:	443b      	add	r3, r7
 8000b6e:	1a9a      	subs	r2, r3, r2
 8000b70:	b2a3      	uxth	r3, r4
 8000b72:	fbb2 f0fe 	udiv	r0, r2, lr
 8000b76:	fb0e 2210 	mls	r2, lr, r0, r2
 8000b7a:	ea43 4302 	orr.w	r3, r3, r2, lsl #16
 8000b7e:	fb00 fc0c 	mul.w	ip, r0, ip
 8000b82:	459c      	cmp	ip, r3
 8000b84:	d909      	bls.n	8000b9a <__udivmoddi4+0x8e>
 8000b86:	18fb      	adds	r3, r7, r3
 8000b88:	f100 32ff 	add.w	r2, r0, #4294967295
 8000b8c:	f080 80d6 	bcs.w	8000d3c <__udivmoddi4+0x230>
 8000b90:	459c      	cmp	ip, r3
 8000b92:	f240 80d3 	bls.w	8000d3c <__udivmoddi4+0x230>
 8000b96:	443b      	add	r3, r7
 8000b98:	3802      	subs	r0, #2
 8000b9a:	ea40 4001 	orr.w	r0, r0, r1, lsl #16
 8000b9e:	eba3 030c 	sub.w	r3, r3, ip
 8000ba2:	2100      	movs	r1, #0
 8000ba4:	b11d      	cbz	r5, 8000bae <__udivmoddi4+0xa2>
 8000ba6:	40f3      	lsrs	r3, r6
 8000ba8:	2200      	movs	r2, #0
 8000baa:	e9c5 3200 	strd	r3, r2, [r5]
 8000bae:	e8bd 87f0 	ldmia.w	sp!, {r4, r5, r6, r7, r8, r9, sl, pc}
 8000bb2:	428b      	cmp	r3, r1
 8000bb4:	d905      	bls.n	8000bc2 <__udivmoddi4+0xb6>
 8000bb6:	b10d      	cbz	r5, 8000bbc <__udivmoddi4+0xb0>
 8000bb8:	e9c5 0100 	strd	r0, r1, [r5]
 8000bbc:	2100      	movs	r1, #0
 8000bbe:	4608      	mov	r0, r1
 8000bc0:	e7f5      	b.n	8000bae <__udivmoddi4+0xa2>
 8000bc2:	fab3 f183 	clz	r1, r3
 8000bc6:	2900      	cmp	r1, #0
 8000bc8:	d146      	bne.n	8000c58 <__udivmoddi4+0x14c>
 8000bca:	4573      	cmp	r3, lr
 8000bcc:	d302      	bcc.n	8000bd4 <__udivmoddi4+0xc8>
 8000bce:	4282      	cmp	r2, r0
 8000bd0:	f200 8105 	bhi.w	8000dde <__udivmoddi4+0x2d2>
 8000bd4:	1a84      	subs	r4, r0, r2
 8000bd6:	eb6e 0203 	sbc.w	r2, lr, r3
 8000bda:	2001      	movs	r0, #1
 8000bdc:	4690      	mov	r8, r2
 8000bde:	2d00      	cmp	r5, #0
 8000be0:	d0e5      	beq.n	8000bae <__udivmoddi4+0xa2>
 8000be2:	e9c5 4800 	strd	r4, r8, [r5]
 8000be6:	e7e2      	b.n	8000bae <__udivmoddi4+0xa2>
 8000be8:	2a00      	cmp	r2, #0
 8000bea:	f000 8090 	beq.w	8000d0e <__udivmoddi4+0x202>
 8000bee:	fab2 f682 	clz	r6, r2
 8000bf2:	2e00      	cmp	r6, #0
 8000bf4:	f040 80a4 	bne.w	8000d40 <__udivmoddi4+0x234>
 8000bf8:	1a8a      	subs	r2, r1, r2
 8000bfa:	0c03      	lsrs	r3, r0, #16
 8000bfc:	ea4f 4e17 	mov.w	lr, r7, lsr #16
 8000c00:	b280      	uxth	r0, r0
 8000c02:	b2bc      	uxth	r4, r7
 8000c04:	2101      	movs	r1, #1
 8000c06:	fbb2 fcfe 	udiv	ip, r2, lr
 8000c0a:	fb0e 221c 	mls	r2, lr, ip, r2
 8000c0e:	ea43 4302 	orr.w	r3, r3, r2, lsl #16
 8000c12:	fb04 f20c 	mul.w	r2, r4, ip
 8000c16:	429a      	cmp	r2, r3
 8000c18:	d907      	bls.n	8000c2a <__udivmoddi4+0x11e>
 8000c1a:	18fb      	adds	r3, r7, r3
 8000c1c:	f10c 38ff 	add.w	r8, ip, #4294967295
 8000c20:	d202      	bcs.n	8000c28 <__udivmoddi4+0x11c>
 8000c22:	429a      	cmp	r2, r3
 8000c24:	f200 80e0 	bhi.w	8000de8 <__udivmoddi4+0x2dc>
 8000c28:	46c4      	mov	ip, r8
 8000c2a:	1a9b      	subs	r3, r3, r2
 8000c2c:	fbb3 f2fe 	udiv	r2, r3, lr
 8000c30:	fb0e 3312 	mls	r3, lr, r2, r3
 8000c34:	ea40 4303 	orr.w	r3, r0, r3, lsl #16
 8000c38:	fb02 f404 	mul.w	r4, r2, r4
 8000c3c:	429c      	cmp	r4, r3
 8000c3e:	d907      	bls.n	8000c50 <__udivmoddi4+0x144>
 8000c40:	18fb      	adds	r3, r7, r3
 8000c42:	f102 30ff 	add.w	r0, r2, #4294967295
 8000c46:	d202      	bcs.n	8000c4e <__udivmoddi4+0x142>
 8000c48:	429c      	cmp	r4, r3
 8000c4a:	f200 80ca 	bhi.w	8000de2 <__udivmoddi4+0x2d6>
 8000c4e:	4602      	mov	r2, r0
 8000c50:	1b1b      	subs	r3, r3, r4
 8000c52:	ea42 400c 	orr.w	r0, r2, ip, lsl #16
 8000c56:	e7a5      	b.n	8000ba4 <__udivmoddi4+0x98>
 8000c58:	f1c1 0620 	rsb	r6, r1, #32
 8000c5c:	408b      	lsls	r3, r1
 8000c5e:	fa22 f706 	lsr.w	r7, r2, r6
 8000c62:	431f      	orrs	r7, r3
 8000c64:	fa0e f401 	lsl.w	r4, lr, r1
 8000c68:	fa20 f306 	lsr.w	r3, r0, r6
 8000c6c:	fa2e fe06 	lsr.w	lr, lr, r6
 8000c70:	ea4f 4917 	mov.w	r9, r7, lsr #16
 8000c74:	4323      	orrs	r3, r4
 8000c76:	fa00 f801 	lsl.w	r8, r0, r1
 8000c7a:	fa1f fc87 	uxth.w	ip, r7
 8000c7e:	fbbe f0f9 	udiv	r0, lr, r9
 8000c82:	0c1c      	lsrs	r4, r3, #16
 8000c84:	fb09 ee10 	mls	lr, r9, r0, lr
 8000c88:	ea44 440e 	orr.w	r4, r4, lr, lsl #16
 8000c8c:	fb00 fe0c 	mul.w	lr, r0, ip
 8000c90:	45a6      	cmp	lr, r4
 8000c92:	fa02 f201 	lsl.w	r2, r2, r1
 8000c96:	d909      	bls.n	8000cac <__udivmoddi4+0x1a0>
 8000c98:	193c      	adds	r4, r7, r4
 8000c9a:	f100 3aff 	add.w	sl, r0, #4294967295
 8000c9e:	f080 809c 	bcs.w	8000dda <__udivmoddi4+0x2ce>
 8000ca2:	45a6      	cmp	lr, r4
 8000ca4:	f240 8099 	bls.w	8000dda <__udivmoddi4+0x2ce>
 8000ca8:	3802      	subs	r0, #2
 8000caa:	443c      	add	r4, r7
 8000cac:	eba4 040e 	sub.w	r4, r4, lr
 8000cb0:	fa1f fe83 	uxth.w	lr, r3
 8000cb4:	fbb4 f3f9 	udiv	r3, r4, r9
 8000cb8:	fb09 4413 	mls	r4, r9, r3, r4
 8000cbc:	ea4e 4404 	orr.w	r4, lr, r4, lsl #16
 8000cc0:	fb03 fc0c 	mul.w	ip, r3, ip
 8000cc4:	45a4      	cmp	ip, r4
 8000cc6:	d908      	bls.n	8000cda <__udivmoddi4+0x1ce>
 8000cc8:	193c      	adds	r4, r7, r4
 8000cca:	f103 3eff 	add.w	lr, r3, #4294967295
 8000cce:	f080 8082 	bcs.w	8000dd6 <__udivmoddi4+0x2ca>
 8000cd2:	45a4      	cmp	ip, r4
 8000cd4:	d97f      	bls.n	8000dd6 <__udivmoddi4+0x2ca>
 8000cd6:	3b02      	subs	r3, #2
 8000cd8:	443c      	add	r4, r7
 8000cda:	ea43 4000 	orr.w	r0, r3, r0, lsl #16
 8000cde:	eba4 040c 	sub.w	r4, r4, ip
 8000ce2:	fba0 ec02 	umull	lr, ip, r0, r2
 8000ce6:	4564      	cmp	r4, ip
 8000ce8:	4673      	mov	r3, lr
 8000cea:	46e1      	mov	r9, ip
 8000cec:	d362      	bcc.n	8000db4 <__udivmoddi4+0x2a8>
 8000cee:	d05f      	beq.n	8000db0 <__udivmoddi4+0x2a4>
 8000cf0:	b15d      	cbz	r5, 8000d0a <__udivmoddi4+0x1fe>
 8000cf2:	ebb8 0203 	subs.w	r2, r8, r3
 8000cf6:	eb64 0409 	sbc.w	r4, r4, r9
 8000cfa:	fa04 f606 	lsl.w	r6, r4, r6
 8000cfe:	fa22 f301 	lsr.w	r3, r2, r1
 8000d02:	431e      	orrs	r6, r3
 8000d04:	40cc      	lsrs	r4, r1
 8000d06:	e9c5 6400 	strd	r6, r4, [r5]
 8000d0a:	2100      	movs	r1, #0
 8000d0c:	e74f      	b.n	8000bae <__udivmoddi4+0xa2>
 8000d0e:	fbb1 fcf2 	udiv	ip, r1, r2
 8000d12:	0c01      	lsrs	r1, r0, #16
 8000d14:	ea41 410e 	orr.w	r1, r1, lr, lsl #16
 8000d18:	b280      	uxth	r0, r0
 8000d1a:	ea40 4201 	orr.w	r2, r0, r1, lsl #16
 8000d1e:	463b      	mov	r3, r7
 8000d20:	4638      	mov	r0, r7
 8000d22:	463c      	mov	r4, r7
 8000d24:	46b8      	mov	r8, r7
 8000d26:	46be      	mov	lr, r7
 8000d28:	2620      	movs	r6, #32
 8000d2a:	fbb1 f1f7 	udiv	r1, r1, r7
 8000d2e:	eba2 0208 	sub.w	r2, r2, r8
 8000d32:	ea41 410c 	orr.w	r1, r1, ip, lsl #16
 8000d36:	e766      	b.n	8000c06 <__udivmoddi4+0xfa>
 8000d38:	4601      	mov	r1, r0
 8000d3a:	e718      	b.n	8000b6e <__udivmoddi4+0x62>
 8000d3c:	4610      	mov	r0, r2
 8000d3e:	e72c      	b.n	8000b9a <__udivmoddi4+0x8e>
 8000d40:	f1c6 0220 	rsb	r2, r6, #32
 8000d44:	fa2e f302 	lsr.w	r3, lr, r2
 8000d48:	40b7      	lsls	r7, r6
 8000d4a:	40b1      	lsls	r1, r6
 8000d4c:	fa20 f202 	lsr.w	r2, r0, r2
 8000d50:	ea4f 4e17 	mov.w	lr, r7, lsr #16
 8000d54:	430a      	orrs	r2, r1
 8000d56:	fbb3 f8fe 	udiv	r8, r3, lr
 8000d5a:	b2bc      	uxth	r4, r7
 8000d5c:	fb0e 3318 	mls	r3, lr, r8, r3
 8000d60:	0c11      	lsrs	r1, r2, #16
 8000d62:	ea41 4103 	orr.w	r1, r1, r3, lsl #16
 8000d66:	fb08 f904 	mul.w	r9, r8, r4
 8000d6a:	40b0      	lsls	r0, r6
 8000d6c:	4589      	cmp	r9, r1
 8000d6e:	ea4f 4310 	mov.w	r3, r0, lsr #16
 8000d72:	b280      	uxth	r0, r0
 8000d74:	d93e      	bls.n	8000df4 <__udivmoddi4+0x2e8>
 8000d76:	1879      	adds	r1, r7, r1
 8000d78:	f108 3cff 	add.w	ip, r8, #4294967295
 8000d7c:	d201      	bcs.n	8000d82 <__udivmoddi4+0x276>
 8000d7e:	4589      	cmp	r9, r1
 8000d80:	d81f      	bhi.n	8000dc2 <__udivmoddi4+0x2b6>
 8000d82:	eba1 0109 	sub.w	r1, r1, r9
 8000d86:	fbb1 f9fe 	udiv	r9, r1, lr
 8000d8a:	fb09 f804 	mul.w	r8, r9, r4
 8000d8e:	fb0e 1119 	mls	r1, lr, r9, r1
 8000d92:	b292      	uxth	r2, r2
 8000d94:	ea42 4201 	orr.w	r2, r2, r1, lsl #16
 8000d98:	4542      	cmp	r2, r8
 8000d9a:	d229      	bcs.n	8000df0 <__udivmoddi4+0x2e4>
 8000d9c:	18ba      	adds	r2, r7, r2
 8000d9e:	f109 31ff 	add.w	r1, r9, #4294967295
 8000da2:	d2c4      	bcs.n	8000d2e <__udivmoddi4+0x222>
 8000da4:	4542      	cmp	r2, r8
 8000da6:	d2c2      	bcs.n	8000d2e <__udivmoddi4+0x222>
 8000da8:	f1a9 0102 	sub.w	r1, r9, #2
 8000dac:	443a      	add	r2, r7
 8000dae:	e7be      	b.n	8000d2e <__udivmoddi4+0x222>
 8000db0:	45f0      	cmp	r8, lr
 8000db2:	d29d      	bcs.n	8000cf0 <__udivmoddi4+0x1e4>
 8000db4:	ebbe 0302 	subs.w	r3, lr, r2
 8000db8:	eb6c 0c07 	sbc.w	ip, ip, r7
 8000dbc:	3801      	subs	r0, #1
 8000dbe:	46e1      	mov	r9, ip
 8000dc0:	e796      	b.n	8000cf0 <__udivmoddi4+0x1e4>
 8000dc2:	eba7 0909 	sub.w	r9, r7, r9
 8000dc6:	4449      	add	r1, r9
 8000dc8:	f1a8 0c02 	sub.w	ip, r8, #2
 8000dcc:	fbb1 f9fe 	udiv	r9, r1, lr
 8000dd0:	fb09 f804 	mul.w	r8, r9, r4
 8000dd4:	e7db      	b.n	8000d8e <__udivmoddi4+0x282>
 8000dd6:	4673      	mov	r3, lr
 8000dd8:	e77f      	b.n	8000cda <__udivmoddi4+0x1ce>
 8000dda:	4650      	mov	r0, sl
 8000ddc:	e766      	b.n	8000cac <__udivmoddi4+0x1a0>
 8000dde:	4608      	mov	r0, r1
 8000de0:	e6fd      	b.n	8000bde <__udivmoddi4+0xd2>
 8000de2:	443b      	add	r3, r7
 8000de4:	3a02      	subs	r2, #2
 8000de6:	e733      	b.n	8000c50 <__udivmoddi4+0x144>
 8000de8:	f1ac 0c02 	sub.w	ip, ip, #2
 8000dec:	443b      	add	r3, r7
 8000dee:	e71c      	b.n	8000c2a <__udivmoddi4+0x11e>
 8000df0:	4649      	mov	r1, r9
 8000df2:	e79c      	b.n	8000d2e <__udivmoddi4+0x222>
 8000df4:	eba1 0109 	sub.w	r1, r1, r9
 8000df8:	46c4      	mov	ip, r8
 8000dfa:	fbb1 f9fe 	udiv	r9, r1, lr
 8000dfe:	fb09 f804 	mul.w	r8, r9, r4
 8000e02:	e7c4      	b.n	8000d8e <__udivmoddi4+0x282>

08000e04 <__aeabi_idiv0>:
 8000e04:	4770      	bx	lr
 8000e06:	bf00      	nop

08000e08 <is_pressed>:
GPIO_PinState last_reading = GPIO_PIN_SET; // inverted

GPIO_TypeDef* GPIOx = GPIOC;
uint16_t GPIO_Pin = GPIO_PIN_15;

bool is_pressed() {
 8000e08:	b480      	push	{r7}
 8000e0a:	af00      	add	r7, sp, #0
	return !button_state;
 8000e0c:	4b05      	ldr	r3, [pc, #20]	@ (8000e24 <is_pressed+0x1c>)
 8000e0e:	781b      	ldrb	r3, [r3, #0]
 8000e10:	2b00      	cmp	r3, #0
 8000e12:	bf0c      	ite	eq
 8000e14:	2301      	moveq	r3, #1
 8000e16:	2300      	movne	r3, #0
 8000e18:	b2db      	uxtb	r3, r3
}
 8000e1a:	4618      	mov	r0, r3
 8000e1c:	46bd      	mov	sp, r7
 8000e1e:	f85d 7b04 	ldr.w	r7, [sp], #4
 8000e22:	4770      	bx	lr
 8000e24:	20000000 	.word	0x20000000

08000e28 <update_button_state>:

bool is_long_unpress() {
	return !is_pressed() && HAL_GetTick() - last_move_time > LONG_UNPRESS_DELAY;
}

int update_button_state() {
 8000e28:	b580      	push	{r7, lr}
 8000e2a:	b082      	sub	sp, #8
 8000e2c:	af00      	add	r7, sp, #0
	GPIO_PinState reading = HAL_GPIO_ReadPin(GPIOx, GPIO_Pin);
 8000e2e:	4b1d      	ldr	r3, [pc, #116]	@ (8000ea4 <update_button_state+0x7c>)
 8000e30:	681b      	ldr	r3, [r3, #0]
 8000e32:	4a1d      	ldr	r2, [pc, #116]	@ (8000ea8 <update_button_state+0x80>)
 8000e34:	8812      	ldrh	r2, [r2, #0]
 8000e36:	4611      	mov	r1, r2
 8000e38:	4618      	mov	r0, r3
 8000e3a:	f002 f90f 	bl	800305c <HAL_GPIO_ReadPin>
 8000e3e:	4603      	mov	r3, r0
 8000e40:	71fb      	strb	r3, [r7, #7]

	if (reading != last_reading) {
 8000e42:	4b1a      	ldr	r3, [pc, #104]	@ (8000eac <update_button_state+0x84>)
 8000e44:	781b      	ldrb	r3, [r3, #0]
 8000e46:	79fa      	ldrb	r2, [r7, #7]
 8000e48:	429a      	cmp	r2, r3
 8000e4a:	d007      	beq.n	8000e5c <update_button_state+0x34>
		last_deb_time = HAL_GetTick();
 8000e4c:	f001 fdaa 	bl	80029a4 <HAL_GetTick>
 8000e50:	4603      	mov	r3, r0
 8000e52:	4a17      	ldr	r2, [pc, #92]	@ (8000eb0 <update_button_state+0x88>)
 8000e54:	6013      	str	r3, [r2, #0]
		last_reading = reading;
 8000e56:	4a15      	ldr	r2, [pc, #84]	@ (8000eac <update_button_state+0x84>)
 8000e58:	79fb      	ldrb	r3, [r7, #7]
 8000e5a:	7013      	strb	r3, [r2, #0]
	}

	if ((HAL_GetTick() - last_deb_time) > DEBOUNCE_DELAY) {
 8000e5c:	f001 fda2 	bl	80029a4 <HAL_GetTick>
 8000e60:	4602      	mov	r2, r0
 8000e62:	4b13      	ldr	r3, [pc, #76]	@ (8000eb0 <update_button_state+0x88>)
 8000e64:	681b      	ldr	r3, [r3, #0]
 8000e66:	1ad3      	subs	r3, r2, r3
 8000e68:	2b32      	cmp	r3, #50	@ 0x32
 8000e6a:	d916      	bls.n	8000e9a <update_button_state+0x72>
		if (reading != button_state) {
 8000e6c:	4b11      	ldr	r3, [pc, #68]	@ (8000eb4 <update_button_state+0x8c>)
 8000e6e:	781b      	ldrb	r3, [r3, #0]
 8000e70:	79fa      	ldrb	r2, [r7, #7]
 8000e72:	429a      	cmp	r2, r3
 8000e74:	d011      	beq.n	8000e9a <update_button_state+0x72>
			button_state = reading;
 8000e76:	4a0f      	ldr	r2, [pc, #60]	@ (8000eb4 <update_button_state+0x8c>)
 8000e78:	79fb      	ldrb	r3, [r7, #7]
 8000e7a:	7013      	strb	r3, [r2, #0]
			last_move_time = HAL_GetTick();
 8000e7c:	f001 fd92 	bl	80029a4 <HAL_GetTick>
 8000e80:	4603      	mov	r3, r0
 8000e82:	4a0d      	ldr	r2, [pc, #52]	@ (8000eb8 <update_button_state+0x90>)
 8000e84:	6013      	str	r3, [r2, #0]

			if (is_pressed()) {
 8000e86:	f7ff ffbf 	bl	8000e08 <is_pressed>
 8000e8a:	4603      	mov	r3, r0
 8000e8c:	2b00      	cmp	r3, #0
 8000e8e:	d001      	beq.n	8000e94 <update_button_state+0x6c>
				return 1; // front
 8000e90:	2301      	movs	r3, #1
 8000e92:	e003      	b.n	8000e9c <update_button_state+0x74>
			} else {
				return -1; // edge
 8000e94:	f04f 33ff 	mov.w	r3, #4294967295
 8000e98:	e000      	b.n	8000e9c <update_button_state+0x74>
			}
		}
	}

	return 0; // nothing
 8000e9a:	2300      	movs	r3, #0
}
 8000e9c:	4618      	mov	r0, r3
 8000e9e:	3708      	adds	r7, #8
 8000ea0:	46bd      	mov	sp, r7
 8000ea2:	bd80      	pop	{r7, pc}
 8000ea4:	20000004 	.word	0x20000004
 8000ea8:	20000008 	.word	0x20000008
 8000eac:	20000001 	.word	0x20000001
 8000eb0:	200000a0 	.word	0x200000a0
 8000eb4:	20000000 	.word	0x20000000
 8000eb8:	200000a4 	.word	0x200000a4

08000ebc <lock>:
#include <string.h>
#include <stdio.h>
#include <inttypes.h>
#include "garland.h"

static uint32_t lock() {
 8000ebc:	b480      	push	{r7}
 8000ebe:	b083      	sub	sp, #12
 8000ec0:	af00      	add	r7, sp, #0
 */
__STATIC_FORCEINLINE uint32_t __get_PRIMASK(void)
{
  uint32_t result;

  __ASM volatile ("MRS %0, primask" : "=r" (result) );
 8000ec2:	f3ef 8310 	mrs	r3, PRIMASK
 8000ec6:	603b      	str	r3, [r7, #0]
  return(result);
 8000ec8:	683b      	ldr	r3, [r7, #0]
	uint32_t pmask = __get_PRIMASK();
 8000eca:	607b      	str	r3, [r7, #4]
  __ASM volatile ("cpsid i" : : : "memory");
 8000ecc:	b672      	cpsid	i
}
 8000ece:	bf00      	nop
	__disable_irq();

	return pmask;
 8000ed0:	687b      	ldr	r3, [r7, #4]
}
 8000ed2:	4618      	mov	r0, r3
 8000ed4:	370c      	adds	r7, #12
 8000ed6:	46bd      	mov	sp, r7
 8000ed8:	f85d 7b04 	ldr.w	r7, [sp], #4
 8000edc:	4770      	bx	lr

08000ede <unlock>:

static void unlock(uint32_t pmask) {
 8000ede:	b480      	push	{r7}
 8000ee0:	b085      	sub	sp, #20
 8000ee2:	af00      	add	r7, sp, #0
 8000ee4:	6078      	str	r0, [r7, #4]
 8000ee6:	687b      	ldr	r3, [r7, #4]
 8000ee8:	60fb      	str	r3, [r7, #12]
  \details Assigns the given value to the Priority Mask Register.
  \param [in]    priMask  Priority Mask
 */
__STATIC_FORCEINLINE void __set_PRIMASK(uint32_t priMask)
{
  __ASM volatile ("MSR primask, %0" : : "r" (priMask) : "memory");
 8000eea:	68fb      	ldr	r3, [r7, #12]
 8000eec:	f383 8810 	msr	PRIMASK, r3
}
 8000ef0:	bf00      	nop
	__set_PRIMASK(pmask);
}
 8000ef2:	bf00      	nop
 8000ef4:	3714      	adds	r7, #20
 8000ef6:	46bd      	mov	sp, r7
 8000ef8:	f85d 7b04 	ldr.w	r7, [sp], #4
 8000efc:	4770      	bx	lr
	...

08000f00 <format_user_mode_info>:
bool reset_state = true;
uint32_t user_mode_max_light = 500;
uint32_t user_mode_green_init_light = 500;
led_color user_mode_color = RED;

void format_user_mode_info() {
 8000f00:	b580      	push	{r7, lr}
 8000f02:	b082      	sub	sp, #8
 8000f04:	af02      	add	r7, sp, #8
	sprintf(info_buf,
 8000f06:	4b0c      	ldr	r3, [pc, #48]	@ (8000f38 <format_user_mode_info+0x38>)
 8000f08:	681a      	ldr	r2, [r3, #0]
			"\r\nLIGHT: %" PRIu32
			"\r\nCOLOR: %s"
			"\r\nBLINKING: %s\r\n\n",

			user_mode_max_light,
			((user_mode_color == RED) ? "RED" : "ORANGE"),
 8000f0a:	4b0c      	ldr	r3, [pc, #48]	@ (8000f3c <format_user_mode_info+0x3c>)
 8000f0c:	781b      	ldrb	r3, [r3, #0]
	sprintf(info_buf,
 8000f0e:	2b00      	cmp	r3, #0
 8000f10:	d101      	bne.n	8000f16 <format_user_mode_info+0x16>
 8000f12:	490b      	ldr	r1, [pc, #44]	@ (8000f40 <format_user_mode_info+0x40>)
 8000f14:	e000      	b.n	8000f18 <format_user_mode_info+0x18>
 8000f16:	490b      	ldr	r1, [pc, #44]	@ (8000f44 <format_user_mode_info+0x44>)
			((user_mode_green_init_light == 0) ? "together" : "alternately")
 8000f18:	4b0b      	ldr	r3, [pc, #44]	@ (8000f48 <format_user_mode_info+0x48>)
 8000f1a:	681b      	ldr	r3, [r3, #0]
	sprintf(info_buf,
 8000f1c:	2b00      	cmp	r3, #0
 8000f1e:	d101      	bne.n	8000f24 <format_user_mode_info+0x24>
 8000f20:	4b0a      	ldr	r3, [pc, #40]	@ (8000f4c <format_user_mode_info+0x4c>)
 8000f22:	e000      	b.n	8000f26 <format_user_mode_info+0x26>
 8000f24:	4b0a      	ldr	r3, [pc, #40]	@ (8000f50 <format_user_mode_info+0x50>)
 8000f26:	9300      	str	r3, [sp, #0]
 8000f28:	460b      	mov	r3, r1
 8000f2a:	490a      	ldr	r1, [pc, #40]	@ (8000f54 <format_user_mode_info+0x54>)
 8000f2c:	480a      	ldr	r0, [pc, #40]	@ (8000f58 <format_user_mode_info+0x58>)
 8000f2e:	f005 ff65 	bl	8006dfc <siprintf>
			);
}
 8000f32:	bf00      	nop
 8000f34:	46bd      	mov	sp, r7
 8000f36:	bd80      	pop	{r7, pc}
 8000f38:	2000001c 	.word	0x2000001c
 8000f3c:	20000140 	.word	0x20000140
 8000f40:	08007754 	.word	0x08007754
 8000f44:	08007758 	.word	0x08007758
 8000f48:	20000020 	.word	0x20000020
 8000f4c:	08007760 	.word	0x08007760
 8000f50:	0800776c 	.word	0x0800776c
 8000f54:	08007778 	.word	0x08007778
 8000f58:	200000c0 	.word	0x200000c0

08000f5c <start_editing>:

void start_editing() {
 8000f5c:	b580      	push	{r7, lr}
 8000f5e:	b082      	sub	sp, #8
 8000f60:	af00      	add	r7, sp, #0
	uint32_t pmask = lock();
 8000f62:	f7ff ffab 	bl	8000ebc <lock>
 8000f66:	6078      	str	r0, [r7, #4]
	reset_state = true;
 8000f68:	4b08      	ldr	r3, [pc, #32]	@ (8000f8c <start_editing+0x30>)
 8000f6a:	2201      	movs	r2, #1
 8000f6c:	701a      	strb	r2, [r3, #0]
	mode = EDITING;
 8000f6e:	4b08      	ldr	r3, [pc, #32]	@ (8000f90 <start_editing+0x34>)
 8000f70:	2205      	movs	r2, #5
 8000f72:	701a      	strb	r2, [r3, #0]
	sprintf(info_buf, "Editing mode\r\n");
 8000f74:	4907      	ldr	r1, [pc, #28]	@ (8000f94 <start_editing+0x38>)
 8000f76:	4808      	ldr	r0, [pc, #32]	@ (8000f98 <start_editing+0x3c>)
 8000f78:	f005 ff40 	bl	8006dfc <siprintf>
	unlock(pmask);
 8000f7c:	6878      	ldr	r0, [r7, #4]
 8000f7e:	f7ff ffae 	bl	8000ede <unlock>
}
 8000f82:	bf00      	nop
 8000f84:	3708      	adds	r7, #8
 8000f86:	46bd      	mov	sp, r7
 8000f88:	bd80      	pop	{r7, pc}
 8000f8a:	bf00      	nop
 8000f8c:	20000018 	.word	0x20000018
 8000f90:	200000a8 	.word	0x200000a8
 8000f94:	080077b4 	.word	0x080077b4
 8000f98:	200000c0 	.word	0x200000c0

08000f9c <finish_editing>:

void finish_editing() {
 8000f9c:	b580      	push	{r7, lr}
 8000f9e:	b082      	sub	sp, #8
 8000fa0:	af00      	add	r7, sp, #0
	uint32_t pmask = lock();
 8000fa2:	f7ff ff8b 	bl	8000ebc <lock>
 8000fa6:	6078      	str	r0, [r7, #4]
	reset_state = true;
 8000fa8:	4b08      	ldr	r3, [pc, #32]	@ (8000fcc <finish_editing+0x30>)
 8000faa:	2201      	movs	r2, #1
 8000fac:	701a      	strb	r2, [r3, #0]
	mode = FIFTH;
 8000fae:	4b08      	ldr	r3, [pc, #32]	@ (8000fd0 <finish_editing+0x34>)
 8000fb0:	2204      	movs	r2, #4
 8000fb2:	701a      	strb	r2, [r3, #0]
	sprintf(info_buf, "Finish editing. User mode\r\n");
 8000fb4:	4907      	ldr	r1, [pc, #28]	@ (8000fd4 <finish_editing+0x38>)
 8000fb6:	4808      	ldr	r0, [pc, #32]	@ (8000fd8 <finish_editing+0x3c>)
 8000fb8:	f005 ff20 	bl	8006dfc <siprintf>
	unlock(pmask);
 8000fbc:	6878      	ldr	r0, [r7, #4]
 8000fbe:	f7ff ff8e 	bl	8000ede <unlock>
}
 8000fc2:	bf00      	nop
 8000fc4:	3708      	adds	r7, #8
 8000fc6:	46bd      	mov	sp, r7
 8000fc8:	bd80      	pop	{r7, pc}
 8000fca:	bf00      	nop
 8000fcc:	20000018 	.word	0x20000018
 8000fd0:	200000a8 	.word	0x200000a8
 8000fd4:	080077c4 	.word	0x080077c4
 8000fd8:	200000c0 	.word	0x200000c0

08000fdc <e_light_up>:

void e_light_up() {
 8000fdc:	b580      	push	{r7, lr}
 8000fde:	b082      	sub	sp, #8
 8000fe0:	af00      	add	r7, sp, #0
	uint32_t pmask = lock();
 8000fe2:	f7ff ff6b 	bl	8000ebc <lock>
 8000fe6:	6078      	str	r0, [r7, #4]
	reset_state = true;
 8000fe8:	4b13      	ldr	r3, [pc, #76]	@ (8001038 <e_light_up+0x5c>)
 8000fea:	2201      	movs	r2, #1
 8000fec:	701a      	strb	r2, [r3, #0]
	user_mode_max_light += 50;
 8000fee:	4b13      	ldr	r3, [pc, #76]	@ (800103c <e_light_up+0x60>)
 8000ff0:	681b      	ldr	r3, [r3, #0]
 8000ff2:	3332      	adds	r3, #50	@ 0x32
 8000ff4:	4a11      	ldr	r2, [pc, #68]	@ (800103c <e_light_up+0x60>)
 8000ff6:	6013      	str	r3, [r2, #0]

	if (user_mode_max_light > MAX_LIGHT) {
 8000ff8:	4b10      	ldr	r3, [pc, #64]	@ (800103c <e_light_up+0x60>)
 8000ffa:	681b      	ldr	r3, [r3, #0]
 8000ffc:	f5b3 7ffa 	cmp.w	r3, #500	@ 0x1f4
 8001000:	d903      	bls.n	800100a <e_light_up+0x2e>
		user_mode_max_light = MAX_LIGHT;
 8001002:	4b0e      	ldr	r3, [pc, #56]	@ (800103c <e_light_up+0x60>)
 8001004:	f44f 72fa 	mov.w	r2, #500	@ 0x1f4
 8001008:	601a      	str	r2, [r3, #0]
	}

	if (user_mode_green_init_light != 0) {
 800100a:	4b0d      	ldr	r3, [pc, #52]	@ (8001040 <e_light_up+0x64>)
 800100c:	681b      	ldr	r3, [r3, #0]
 800100e:	2b00      	cmp	r3, #0
 8001010:	d003      	beq.n	800101a <e_light_up+0x3e>
		user_mode_green_init_light = user_mode_max_light;
 8001012:	4b0a      	ldr	r3, [pc, #40]	@ (800103c <e_light_up+0x60>)
 8001014:	681b      	ldr	r3, [r3, #0]
 8001016:	4a0a      	ldr	r2, [pc, #40]	@ (8001040 <e_light_up+0x64>)
 8001018:	6013      	str	r3, [r2, #0]
	}

	sprintf(info_buf, "New light value: %" PRIu32 "\r\n", user_mode_max_light);
 800101a:	4b08      	ldr	r3, [pc, #32]	@ (800103c <e_light_up+0x60>)
 800101c:	681b      	ldr	r3, [r3, #0]
 800101e:	461a      	mov	r2, r3
 8001020:	4908      	ldr	r1, [pc, #32]	@ (8001044 <e_light_up+0x68>)
 8001022:	4809      	ldr	r0, [pc, #36]	@ (8001048 <e_light_up+0x6c>)
 8001024:	f005 feea 	bl	8006dfc <siprintf>

	unlock(pmask);
 8001028:	6878      	ldr	r0, [r7, #4]
 800102a:	f7ff ff58 	bl	8000ede <unlock>
}
 800102e:	bf00      	nop
 8001030:	3708      	adds	r7, #8
 8001032:	46bd      	mov	sp, r7
 8001034:	bd80      	pop	{r7, pc}
 8001036:	bf00      	nop
 8001038:	20000018 	.word	0x20000018
 800103c:	2000001c 	.word	0x2000001c
 8001040:	20000020 	.word	0x20000020
 8001044:	080077e0 	.word	0x080077e0
 8001048:	200000c0 	.word	0x200000c0

0800104c <e_light_down>:

void e_light_down() {
 800104c:	b580      	push	{r7, lr}
 800104e:	b082      	sub	sp, #8
 8001050:	af00      	add	r7, sp, #0
	uint32_t pmask = lock();
 8001052:	f7ff ff33 	bl	8000ebc <lock>
 8001056:	6078      	str	r0, [r7, #4]
	reset_state = true;
 8001058:	4b12      	ldr	r3, [pc, #72]	@ (80010a4 <e_light_down+0x58>)
 800105a:	2201      	movs	r2, #1
 800105c:	701a      	strb	r2, [r3, #0]
	user_mode_max_light -= 50;
 800105e:	4b12      	ldr	r3, [pc, #72]	@ (80010a8 <e_light_down+0x5c>)
 8001060:	681b      	ldr	r3, [r3, #0]
 8001062:	3b32      	subs	r3, #50	@ 0x32
 8001064:	4a10      	ldr	r2, [pc, #64]	@ (80010a8 <e_light_down+0x5c>)
 8001066:	6013      	str	r3, [r2, #0]

	if (user_mode_max_light < MIN_LIGHT + 50) {
 8001068:	4b0f      	ldr	r3, [pc, #60]	@ (80010a8 <e_light_down+0x5c>)
 800106a:	681b      	ldr	r3, [r3, #0]
 800106c:	2b31      	cmp	r3, #49	@ 0x31
 800106e:	d802      	bhi.n	8001076 <e_light_down+0x2a>
		user_mode_max_light = MIN_LIGHT + 50;
 8001070:	4b0d      	ldr	r3, [pc, #52]	@ (80010a8 <e_light_down+0x5c>)
 8001072:	2232      	movs	r2, #50	@ 0x32
 8001074:	601a      	str	r2, [r3, #0]
	}

	if (user_mode_green_init_light != 0) {
 8001076:	4b0d      	ldr	r3, [pc, #52]	@ (80010ac <e_light_down+0x60>)
 8001078:	681b      	ldr	r3, [r3, #0]
 800107a:	2b00      	cmp	r3, #0
 800107c:	d003      	beq.n	8001086 <e_light_down+0x3a>
		user_mode_green_init_light = user_mode_max_light;
 800107e:	4b0a      	ldr	r3, [pc, #40]	@ (80010a8 <e_light_down+0x5c>)
 8001080:	681b      	ldr	r3, [r3, #0]
 8001082:	4a0a      	ldr	r2, [pc, #40]	@ (80010ac <e_light_down+0x60>)
 8001084:	6013      	str	r3, [r2, #0]
	}

	sprintf(info_buf, "New light value: %" PRIu32 "\r\n", user_mode_max_light);
 8001086:	4b08      	ldr	r3, [pc, #32]	@ (80010a8 <e_light_down+0x5c>)
 8001088:	681b      	ldr	r3, [r3, #0]
 800108a:	461a      	mov	r2, r3
 800108c:	4908      	ldr	r1, [pc, #32]	@ (80010b0 <e_light_down+0x64>)
 800108e:	4809      	ldr	r0, [pc, #36]	@ (80010b4 <e_light_down+0x68>)
 8001090:	f005 feb4 	bl	8006dfc <siprintf>

	unlock(pmask);
 8001094:	6878      	ldr	r0, [r7, #4]
 8001096:	f7ff ff22 	bl	8000ede <unlock>
}
 800109a:	bf00      	nop
 800109c:	3708      	adds	r7, #8
 800109e:	46bd      	mov	sp, r7
 80010a0:	bd80      	pop	{r7, pc}
 80010a2:	bf00      	nop
 80010a4:	20000018 	.word	0x20000018
 80010a8:	2000001c 	.word	0x2000001c
 80010ac:	20000020 	.word	0x20000020
 80010b0:	080077e0 	.word	0x080077e0
 80010b4:	200000c0 	.word	0x200000c0

080010b8 <e_switch_seq>:

void e_switch_seq() {
 80010b8:	b580      	push	{r7, lr}
 80010ba:	b082      	sub	sp, #8
 80010bc:	af00      	add	r7, sp, #0
	uint32_t pmask = lock();
 80010be:	f7ff fefd 	bl	8000ebc <lock>
 80010c2:	6078      	str	r0, [r7, #4]
	reset_state = true;
 80010c4:	4b0e      	ldr	r3, [pc, #56]	@ (8001100 <e_switch_seq+0x48>)
 80010c6:	2201      	movs	r2, #1
 80010c8:	701a      	strb	r2, [r3, #0]
	user_mode_green_init_light = user_mode_max_light - user_mode_green_init_light;
 80010ca:	4b0e      	ldr	r3, [pc, #56]	@ (8001104 <e_switch_seq+0x4c>)
 80010cc:	681a      	ldr	r2, [r3, #0]
 80010ce:	4b0e      	ldr	r3, [pc, #56]	@ (8001108 <e_switch_seq+0x50>)
 80010d0:	681b      	ldr	r3, [r3, #0]
 80010d2:	1ad3      	subs	r3, r2, r3
 80010d4:	4a0c      	ldr	r2, [pc, #48]	@ (8001108 <e_switch_seq+0x50>)
 80010d6:	6013      	str	r3, [r2, #0]
	sprintf(info_buf, "New blinking mode: %s\r\n", ((user_mode_green_init_light == 0) ? "together" : "alternately"));
 80010d8:	4b0b      	ldr	r3, [pc, #44]	@ (8001108 <e_switch_seq+0x50>)
 80010da:	681b      	ldr	r3, [r3, #0]
 80010dc:	2b00      	cmp	r3, #0
 80010de:	d101      	bne.n	80010e4 <e_switch_seq+0x2c>
 80010e0:	4b0a      	ldr	r3, [pc, #40]	@ (800110c <e_switch_seq+0x54>)
 80010e2:	e000      	b.n	80010e6 <e_switch_seq+0x2e>
 80010e4:	4b0a      	ldr	r3, [pc, #40]	@ (8001110 <e_switch_seq+0x58>)
 80010e6:	461a      	mov	r2, r3
 80010e8:	490a      	ldr	r1, [pc, #40]	@ (8001114 <e_switch_seq+0x5c>)
 80010ea:	480b      	ldr	r0, [pc, #44]	@ (8001118 <e_switch_seq+0x60>)
 80010ec:	f005 fe86 	bl	8006dfc <siprintf>
	unlock(pmask);
 80010f0:	6878      	ldr	r0, [r7, #4]
 80010f2:	f7ff fef4 	bl	8000ede <unlock>
}
 80010f6:	bf00      	nop
 80010f8:	3708      	adds	r7, #8
 80010fa:	46bd      	mov	sp, r7
 80010fc:	bd80      	pop	{r7, pc}
 80010fe:	bf00      	nop
 8001100:	20000018 	.word	0x20000018
 8001104:	2000001c 	.word	0x2000001c
 8001108:	20000020 	.word	0x20000020
 800110c:	08007760 	.word	0x08007760
 8001110:	0800776c 	.word	0x0800776c
 8001114:	080077f8 	.word	0x080077f8
 8001118:	200000c0 	.word	0x200000c0

0800111c <e_switch_color>:

void e_switch_color() {
 800111c:	b580      	push	{r7, lr}
 800111e:	b082      	sub	sp, #8
 8001120:	af00      	add	r7, sp, #0
	uint32_t pmask = lock();
 8001122:	f7ff fecb 	bl	8000ebc <lock>
 8001126:	6078      	str	r0, [r7, #4]
	reset_state = true;
 8001128:	4b10      	ldr	r3, [pc, #64]	@ (800116c <e_switch_color+0x50>)
 800112a:	2201      	movs	r2, #1
 800112c:	701a      	strb	r2, [r3, #0]
	if (user_mode_color == RED) {
 800112e:	4b10      	ldr	r3, [pc, #64]	@ (8001170 <e_switch_color+0x54>)
 8001130:	781b      	ldrb	r3, [r3, #0]
 8001132:	2b00      	cmp	r3, #0
 8001134:	d103      	bne.n	800113e <e_switch_color+0x22>
		user_mode_color = ORANGE;
 8001136:	4b0e      	ldr	r3, [pc, #56]	@ (8001170 <e_switch_color+0x54>)
 8001138:	2201      	movs	r2, #1
 800113a:	701a      	strb	r2, [r3, #0]
 800113c:	e002      	b.n	8001144 <e_switch_color+0x28>
	} else {
		user_mode_color = RED;
 800113e:	4b0c      	ldr	r3, [pc, #48]	@ (8001170 <e_switch_color+0x54>)
 8001140:	2200      	movs	r2, #0
 8001142:	701a      	strb	r2, [r3, #0]
	}

	sprintf(info_buf, "New led color: %s\r\n", ((user_mode_color == RED) ? "RED" : "ORANGE"));
 8001144:	4b0a      	ldr	r3, [pc, #40]	@ (8001170 <e_switch_color+0x54>)
 8001146:	781b      	ldrb	r3, [r3, #0]
 8001148:	2b00      	cmp	r3, #0
 800114a:	d101      	bne.n	8001150 <e_switch_color+0x34>
 800114c:	4b09      	ldr	r3, [pc, #36]	@ (8001174 <e_switch_color+0x58>)
 800114e:	e000      	b.n	8001152 <e_switch_color+0x36>
 8001150:	4b09      	ldr	r3, [pc, #36]	@ (8001178 <e_switch_color+0x5c>)
 8001152:	461a      	mov	r2, r3
 8001154:	4909      	ldr	r1, [pc, #36]	@ (800117c <e_switch_color+0x60>)
 8001156:	480a      	ldr	r0, [pc, #40]	@ (8001180 <e_switch_color+0x64>)
 8001158:	f005 fe50 	bl	8006dfc <siprintf>

	unlock(pmask);
 800115c:	6878      	ldr	r0, [r7, #4]
 800115e:	f7ff febe 	bl	8000ede <unlock>
}
 8001162:	bf00      	nop
 8001164:	3708      	adds	r7, #8
 8001166:	46bd      	mov	sp, r7
 8001168:	bd80      	pop	{r7, pc}
 800116a:	bf00      	nop
 800116c:	20000018 	.word	0x20000018
 8001170:	20000140 	.word	0x20000140
 8001174:	08007754 	.word	0x08007754
 8001178:	08007758 	.word	0x08007758
 800117c:	08007810 	.word	0x08007810
 8001180:	200000c0 	.word	0x200000c0

08001184 <is_editing>:

bool is_editing() {
 8001184:	b480      	push	{r7}
 8001186:	af00      	add	r7, sp, #0
	return mode == EDITING;
 8001188:	4b05      	ldr	r3, [pc, #20]	@ (80011a0 <is_editing+0x1c>)
 800118a:	781b      	ldrb	r3, [r3, #0]
 800118c:	2b05      	cmp	r3, #5
 800118e:	bf0c      	ite	eq
 8001190:	2301      	moveq	r3, #1
 8001192:	2300      	movne	r3, #0
 8001194:	b2db      	uxtb	r3, r3
}
 8001196:	4618      	mov	r0, r3
 8001198:	46bd      	mov	sp, r7
 800119a:	f85d 7b04 	ldr.w	r7, [sp], #4
 800119e:	4770      	bx	lr
 80011a0:	200000a8 	.word	0x200000a8

080011a4 <HAL_TIM_PeriodElapsedCallback>:

void HAL_TIM_PeriodElapsedCallback(TIM_HandleTypeDef *htim)
{
 80011a4:	b580      	push	{r7, lr}
 80011a6:	b082      	sub	sp, #8
 80011a8:	af00      	add	r7, sp, #0
 80011aa:	6078      	str	r0, [r7, #4]
	if (htim->Instance == TIM6) {
 80011ac:	687b      	ldr	r3, [r7, #4]
 80011ae:	681b      	ldr	r3, [r3, #0]
 80011b0:	4a04      	ldr	r2, [pc, #16]	@ (80011c4 <HAL_TIM_PeriodElapsedCallback+0x20>)
 80011b2:	4293      	cmp	r3, r2
 80011b4:	d101      	bne.n	80011ba <HAL_TIM_PeriodElapsedCallback+0x16>
		update_state();
 80011b6:	f000 fcd5 	bl	8001b64 <update_state>
	}
}
 80011ba:	bf00      	nop
 80011bc:	3708      	adds	r7, #8
 80011be:	46bd      	mov	sp, r7
 80011c0:	bd80      	pop	{r7, pc}
 80011c2:	bf00      	nop
 80011c4:	40001000 	.word	0x40001000

080011c8 <first_mode>:

static void first_mode() {
 80011c8:	b480      	push	{r7}
 80011ca:	b083      	sub	sp, #12
 80011cc:	af00      	add	r7, sp, #0
	if (reset_state) {
 80011ce:	4b24      	ldr	r3, [pc, #144]	@ (8001260 <first_mode+0x98>)
 80011d0:	781b      	ldrb	r3, [r3, #0]
 80011d2:	2b00      	cmp	r3, #0
 80011d4:	d011      	beq.n	80011fa <first_mode+0x32>
		sign1 = 1;
 80011d6:	4b23      	ldr	r3, [pc, #140]	@ (8001264 <first_mode+0x9c>)
 80011d8:	2201      	movs	r2, #1
 80011da:	601a      	str	r2, [r3, #0]
		htim4.Instance->CCR2 = 0;
 80011dc:	4b22      	ldr	r3, [pc, #136]	@ (8001268 <first_mode+0xa0>)
 80011de:	681b      	ldr	r3, [r3, #0]
 80011e0:	2200      	movs	r2, #0
 80011e2:	639a      	str	r2, [r3, #56]	@ 0x38
		htim4.Instance->CCR3 = 0;
 80011e4:	4b20      	ldr	r3, [pc, #128]	@ (8001268 <first_mode+0xa0>)
 80011e6:	681b      	ldr	r3, [r3, #0]
 80011e8:	2200      	movs	r2, #0
 80011ea:	63da      	str	r2, [r3, #60]	@ 0x3c
		htim4.Instance->CCR4 = 0;
 80011ec:	4b1e      	ldr	r3, [pc, #120]	@ (8001268 <first_mode+0xa0>)
 80011ee:	681b      	ldr	r3, [r3, #0]
 80011f0:	2200      	movs	r2, #0
 80011f2:	641a      	str	r2, [r3, #64]	@ 0x40
		reset_state = false;
 80011f4:	4b1a      	ldr	r3, [pc, #104]	@ (8001260 <first_mode+0x98>)
 80011f6:	2200      	movs	r2, #0
 80011f8:	701a      	strb	r2, [r3, #0]
	}

	int32_t value = htim4.Instance->CCR2 + speed * sign1;
 80011fa:	4b1b      	ldr	r3, [pc, #108]	@ (8001268 <first_mode+0xa0>)
 80011fc:	681b      	ldr	r3, [r3, #0]
 80011fe:	6b9a      	ldr	r2, [r3, #56]	@ 0x38
 8001200:	4b1a      	ldr	r3, [pc, #104]	@ (800126c <first_mode+0xa4>)
 8001202:	681b      	ldr	r3, [r3, #0]
 8001204:	4917      	ldr	r1, [pc, #92]	@ (8001264 <first_mode+0x9c>)
 8001206:	6809      	ldr	r1, [r1, #0]
 8001208:	fb01 f303 	mul.w	r3, r1, r3
 800120c:	4413      	add	r3, r2
 800120e:	607b      	str	r3, [r7, #4]
	if (value > MAX_LIGHT) {
 8001210:	687b      	ldr	r3, [r7, #4]
 8001212:	f5b3 7ffa 	cmp.w	r3, #500	@ 0x1f4
 8001216:	dd09      	ble.n	800122c <first_mode+0x64>
		value = 2 * MAX_LIGHT - value;
 8001218:	687b      	ldr	r3, [r7, #4]
 800121a:	f5c3 737a 	rsb	r3, r3, #1000	@ 0x3e8
 800121e:	607b      	str	r3, [r7, #4]
		sign1 = -sign1;
 8001220:	4b10      	ldr	r3, [pc, #64]	@ (8001264 <first_mode+0x9c>)
 8001222:	681b      	ldr	r3, [r3, #0]
 8001224:	425b      	negs	r3, r3
 8001226:	4a0f      	ldr	r2, [pc, #60]	@ (8001264 <first_mode+0x9c>)
 8001228:	6013      	str	r3, [r2, #0]
 800122a:	e00a      	b.n	8001242 <first_mode+0x7a>
	} else if (value < MIN_LIGHT) {
 800122c:	687b      	ldr	r3, [r7, #4]
 800122e:	2b00      	cmp	r3, #0
 8001230:	da07      	bge.n	8001242 <first_mode+0x7a>
		value = 2 * MIN_LIGHT - value;
 8001232:	687b      	ldr	r3, [r7, #4]
 8001234:	425b      	negs	r3, r3
 8001236:	607b      	str	r3, [r7, #4]
		sign1 = -sign1;
 8001238:	4b0a      	ldr	r3, [pc, #40]	@ (8001264 <first_mode+0x9c>)
 800123a:	681b      	ldr	r3, [r3, #0]
 800123c:	425b      	negs	r3, r3
 800123e:	4a09      	ldr	r2, [pc, #36]	@ (8001264 <first_mode+0x9c>)
 8001240:	6013      	str	r3, [r2, #0]
	}

	 htim4.Instance->CCR2 = value;
 8001242:	4b09      	ldr	r3, [pc, #36]	@ (8001268 <first_mode+0xa0>)
 8001244:	681b      	ldr	r3, [r3, #0]
 8001246:	687a      	ldr	r2, [r7, #4]
 8001248:	639a      	str	r2, [r3, #56]	@ 0x38
	 htim4.Instance->CCR4 = value;
 800124a:	4b07      	ldr	r3, [pc, #28]	@ (8001268 <first_mode+0xa0>)
 800124c:	681b      	ldr	r3, [r3, #0]
 800124e:	687a      	ldr	r2, [r7, #4]
 8001250:	641a      	str	r2, [r3, #64]	@ 0x40
}
 8001252:	bf00      	nop
 8001254:	370c      	adds	r7, #12
 8001256:	46bd      	mov	sp, r7
 8001258:	f85d 7b04 	ldr.w	r7, [sp], #4
 800125c:	4770      	bx	lr
 800125e:	bf00      	nop
 8001260:	20000018 	.word	0x20000018
 8001264:	20000010 	.word	0x20000010
 8001268:	20000224 	.word	0x20000224
 800126c:	2000000c 	.word	0x2000000c

08001270 <second_mode>:

static void second_mode() {
 8001270:	b480      	push	{r7}
 8001272:	af00      	add	r7, sp, #0
	if (reset_state) {
 8001274:	4b40      	ldr	r3, [pc, #256]	@ (8001378 <second_mode+0x108>)
 8001276:	781b      	ldrb	r3, [r3, #0]
 8001278:	2b00      	cmp	r3, #0
 800127a:	d015      	beq.n	80012a8 <second_mode+0x38>
		sign1 = 1;
 800127c:	4b3f      	ldr	r3, [pc, #252]	@ (800137c <second_mode+0x10c>)
 800127e:	2201      	movs	r2, #1
 8001280:	601a      	str	r2, [r3, #0]
		sign2 = 1;
 8001282:	4b3f      	ldr	r3, [pc, #252]	@ (8001380 <second_mode+0x110>)
 8001284:	2201      	movs	r2, #1
 8001286:	601a      	str	r2, [r3, #0]
		htim4.Instance->CCR2 = 0;
 8001288:	4b3e      	ldr	r3, [pc, #248]	@ (8001384 <second_mode+0x114>)
 800128a:	681b      	ldr	r3, [r3, #0]
 800128c:	2200      	movs	r2, #0
 800128e:	639a      	str	r2, [r3, #56]	@ 0x38
		htim4.Instance->CCR3 = 0;
 8001290:	4b3c      	ldr	r3, [pc, #240]	@ (8001384 <second_mode+0x114>)
 8001292:	681b      	ldr	r3, [r3, #0]
 8001294:	2200      	movs	r2, #0
 8001296:	63da      	str	r2, [r3, #60]	@ 0x3c
		htim4.Instance->CCR4 = 500;
 8001298:	4b3a      	ldr	r3, [pc, #232]	@ (8001384 <second_mode+0x114>)
 800129a:	681b      	ldr	r3, [r3, #0]
 800129c:	f44f 72fa 	mov.w	r2, #500	@ 0x1f4
 80012a0:	641a      	str	r2, [r3, #64]	@ 0x40
		reset_state = false;
 80012a2:	4b35      	ldr	r3, [pc, #212]	@ (8001378 <second_mode+0x108>)
 80012a4:	2200      	movs	r2, #0
 80012a6:	701a      	strb	r2, [r3, #0]
	}

	value1 = htim4.Instance->CCR2 + speed * sign1;
 80012a8:	4b36      	ldr	r3, [pc, #216]	@ (8001384 <second_mode+0x114>)
 80012aa:	681b      	ldr	r3, [r3, #0]
 80012ac:	6b9a      	ldr	r2, [r3, #56]	@ 0x38
 80012ae:	4b36      	ldr	r3, [pc, #216]	@ (8001388 <second_mode+0x118>)
 80012b0:	681b      	ldr	r3, [r3, #0]
 80012b2:	4932      	ldr	r1, [pc, #200]	@ (800137c <second_mode+0x10c>)
 80012b4:	6809      	ldr	r1, [r1, #0]
 80012b6:	fb01 f303 	mul.w	r3, r1, r3
 80012ba:	4413      	add	r3, r2
 80012bc:	461a      	mov	r2, r3
 80012be:	4b33      	ldr	r3, [pc, #204]	@ (800138c <second_mode+0x11c>)
 80012c0:	601a      	str	r2, [r3, #0]
	if (value1 > MAX_LIGHT) {
 80012c2:	4b32      	ldr	r3, [pc, #200]	@ (800138c <second_mode+0x11c>)
 80012c4:	681b      	ldr	r3, [r3, #0]
 80012c6:	f5b3 7ffa 	cmp.w	r3, #500	@ 0x1f4
 80012ca:	dd0b      	ble.n	80012e4 <second_mode+0x74>
		value1 = 2 * MAX_LIGHT - value1;
 80012cc:	4b2f      	ldr	r3, [pc, #188]	@ (800138c <second_mode+0x11c>)
 80012ce:	681b      	ldr	r3, [r3, #0]
 80012d0:	f5c3 737a 	rsb	r3, r3, #1000	@ 0x3e8
 80012d4:	4a2d      	ldr	r2, [pc, #180]	@ (800138c <second_mode+0x11c>)
 80012d6:	6013      	str	r3, [r2, #0]
		sign1 = -sign1;
 80012d8:	4b28      	ldr	r3, [pc, #160]	@ (800137c <second_mode+0x10c>)
 80012da:	681b      	ldr	r3, [r3, #0]
 80012dc:	425b      	negs	r3, r3
 80012de:	4a27      	ldr	r2, [pc, #156]	@ (800137c <second_mode+0x10c>)
 80012e0:	6013      	str	r3, [r2, #0]
 80012e2:	e00d      	b.n	8001300 <second_mode+0x90>
	} else if (value1 < MIN_LIGHT) {
 80012e4:	4b29      	ldr	r3, [pc, #164]	@ (800138c <second_mode+0x11c>)
 80012e6:	681b      	ldr	r3, [r3, #0]
 80012e8:	2b00      	cmp	r3, #0
 80012ea:	da09      	bge.n	8001300 <second_mode+0x90>
		value1 = 2 * MIN_LIGHT - value1;
 80012ec:	4b27      	ldr	r3, [pc, #156]	@ (800138c <second_mode+0x11c>)
 80012ee:	681b      	ldr	r3, [r3, #0]
 80012f0:	425b      	negs	r3, r3
 80012f2:	4a26      	ldr	r2, [pc, #152]	@ (800138c <second_mode+0x11c>)
 80012f4:	6013      	str	r3, [r2, #0]
		sign1 = -sign1;
 80012f6:	4b21      	ldr	r3, [pc, #132]	@ (800137c <second_mode+0x10c>)
 80012f8:	681b      	ldr	r3, [r3, #0]
 80012fa:	425b      	negs	r3, r3
 80012fc:	4a1f      	ldr	r2, [pc, #124]	@ (800137c <second_mode+0x10c>)
 80012fe:	6013      	str	r3, [r2, #0]
	}

	value2 = htim4.Instance->CCR4 + speed * sign2;
 8001300:	4b20      	ldr	r3, [pc, #128]	@ (8001384 <second_mode+0x114>)
 8001302:	681b      	ldr	r3, [r3, #0]
 8001304:	6c1a      	ldr	r2, [r3, #64]	@ 0x40
 8001306:	4b20      	ldr	r3, [pc, #128]	@ (8001388 <second_mode+0x118>)
 8001308:	681b      	ldr	r3, [r3, #0]
 800130a:	491d      	ldr	r1, [pc, #116]	@ (8001380 <second_mode+0x110>)
 800130c:	6809      	ldr	r1, [r1, #0]
 800130e:	fb01 f303 	mul.w	r3, r1, r3
 8001312:	4413      	add	r3, r2
 8001314:	461a      	mov	r2, r3
 8001316:	4b1e      	ldr	r3, [pc, #120]	@ (8001390 <second_mode+0x120>)
 8001318:	601a      	str	r2, [r3, #0]
	if (value2 > MAX_LIGHT) {
 800131a:	4b1d      	ldr	r3, [pc, #116]	@ (8001390 <second_mode+0x120>)
 800131c:	681b      	ldr	r3, [r3, #0]
 800131e:	f5b3 7ffa 	cmp.w	r3, #500	@ 0x1f4
 8001322:	dd0b      	ble.n	800133c <second_mode+0xcc>
		value2 = 2 * MAX_LIGHT - value2;
 8001324:	4b1a      	ldr	r3, [pc, #104]	@ (8001390 <second_mode+0x120>)
 8001326:	681b      	ldr	r3, [r3, #0]
 8001328:	f5c3 737a 	rsb	r3, r3, #1000	@ 0x3e8
 800132c:	4a18      	ldr	r2, [pc, #96]	@ (8001390 <second_mode+0x120>)
 800132e:	6013      	str	r3, [r2, #0]
		sign2 = -sign2;
 8001330:	4b13      	ldr	r3, [pc, #76]	@ (8001380 <second_mode+0x110>)
 8001332:	681b      	ldr	r3, [r3, #0]
 8001334:	425b      	negs	r3, r3
 8001336:	4a12      	ldr	r2, [pc, #72]	@ (8001380 <second_mode+0x110>)
 8001338:	6013      	str	r3, [r2, #0]
 800133a:	e00d      	b.n	8001358 <second_mode+0xe8>
	} else if (value2 < MIN_LIGHT) {
 800133c:	4b14      	ldr	r3, [pc, #80]	@ (8001390 <second_mode+0x120>)
 800133e:	681b      	ldr	r3, [r3, #0]
 8001340:	2b00      	cmp	r3, #0
 8001342:	da09      	bge.n	8001358 <second_mode+0xe8>
		value2 = 2 * MIN_LIGHT - value2;
 8001344:	4b12      	ldr	r3, [pc, #72]	@ (8001390 <second_mode+0x120>)
 8001346:	681b      	ldr	r3, [r3, #0]
 8001348:	425b      	negs	r3, r3
 800134a:	4a11      	ldr	r2, [pc, #68]	@ (8001390 <second_mode+0x120>)
 800134c:	6013      	str	r3, [r2, #0]
		sign2 = -sign2;
 800134e:	4b0c      	ldr	r3, [pc, #48]	@ (8001380 <second_mode+0x110>)
 8001350:	681b      	ldr	r3, [r3, #0]
 8001352:	425b      	negs	r3, r3
 8001354:	4a0a      	ldr	r2, [pc, #40]	@ (8001380 <second_mode+0x110>)
 8001356:	6013      	str	r3, [r2, #0]
	}
	 htim4.Instance->CCR2 = value1;
 8001358:	4b0c      	ldr	r3, [pc, #48]	@ (800138c <second_mode+0x11c>)
 800135a:	681a      	ldr	r2, [r3, #0]
 800135c:	4b09      	ldr	r3, [pc, #36]	@ (8001384 <second_mode+0x114>)
 800135e:	681b      	ldr	r3, [r3, #0]
 8001360:	639a      	str	r2, [r3, #56]	@ 0x38
	 htim4.Instance->CCR4 = value2;
 8001362:	4b0b      	ldr	r3, [pc, #44]	@ (8001390 <second_mode+0x120>)
 8001364:	681a      	ldr	r2, [r3, #0]
 8001366:	4b07      	ldr	r3, [pc, #28]	@ (8001384 <second_mode+0x114>)
 8001368:	681b      	ldr	r3, [r3, #0]
 800136a:	641a      	str	r2, [r3, #64]	@ 0x40
}
 800136c:	bf00      	nop
 800136e:	46bd      	mov	sp, r7
 8001370:	f85d 7b04 	ldr.w	r7, [sp], #4
 8001374:	4770      	bx	lr
 8001376:	bf00      	nop
 8001378:	20000018 	.word	0x20000018
 800137c:	20000010 	.word	0x20000010
 8001380:	20000014 	.word	0x20000014
 8001384:	20000224 	.word	0x20000224
 8001388:	2000000c 	.word	0x2000000c
 800138c:	200000b8 	.word	0x200000b8
 8001390:	200000bc 	.word	0x200000bc

08001394 <third_mode>:

static void third_mode() {
 8001394:	b480      	push	{r7}
 8001396:	af00      	add	r7, sp, #0
	if (reset_state) {
 8001398:	4b48      	ldr	r3, [pc, #288]	@ (80014bc <third_mode+0x128>)
 800139a:	781b      	ldrb	r3, [r3, #0]
 800139c:	2b00      	cmp	r3, #0
 800139e:	d01c      	beq.n	80013da <third_mode+0x46>
		sign1 = 1;
 80013a0:	4b47      	ldr	r3, [pc, #284]	@ (80014c0 <third_mode+0x12c>)
 80013a2:	2201      	movs	r2, #1
 80013a4:	601a      	str	r2, [r3, #0]
		sign2 = 1;
 80013a6:	4b47      	ldr	r3, [pc, #284]	@ (80014c4 <third_mode+0x130>)
 80013a8:	2201      	movs	r2, #1
 80013aa:	601a      	str	r2, [r3, #0]
		value1 = 0;
 80013ac:	4b46      	ldr	r3, [pc, #280]	@ (80014c8 <third_mode+0x134>)
 80013ae:	2200      	movs	r2, #0
 80013b0:	601a      	str	r2, [r3, #0]
		value2 = 500;
 80013b2:	4b46      	ldr	r3, [pc, #280]	@ (80014cc <third_mode+0x138>)
 80013b4:	f44f 72fa 	mov.w	r2, #500	@ 0x1f4
 80013b8:	601a      	str	r2, [r3, #0]
		htim4.Instance->CCR2 = 0;
 80013ba:	4b45      	ldr	r3, [pc, #276]	@ (80014d0 <third_mode+0x13c>)
 80013bc:	681b      	ldr	r3, [r3, #0]
 80013be:	2200      	movs	r2, #0
 80013c0:	639a      	str	r2, [r3, #56]	@ 0x38
		htim4.Instance->CCR3 = 500;
 80013c2:	4b43      	ldr	r3, [pc, #268]	@ (80014d0 <third_mode+0x13c>)
 80013c4:	681b      	ldr	r3, [r3, #0]
 80013c6:	f44f 72fa 	mov.w	r2, #500	@ 0x1f4
 80013ca:	63da      	str	r2, [r3, #60]	@ 0x3c
		htim4.Instance->CCR4 = 0;
 80013cc:	4b40      	ldr	r3, [pc, #256]	@ (80014d0 <third_mode+0x13c>)
 80013ce:	681b      	ldr	r3, [r3, #0]
 80013d0:	2200      	movs	r2, #0
 80013d2:	641a      	str	r2, [r3, #64]	@ 0x40
		reset_state = false;
 80013d4:	4b39      	ldr	r3, [pc, #228]	@ (80014bc <third_mode+0x128>)
 80013d6:	2200      	movs	r2, #0
 80013d8:	701a      	strb	r2, [r3, #0]
	}

	value1 = value1 + speed * sign1;
 80013da:	4b3e      	ldr	r3, [pc, #248]	@ (80014d4 <third_mode+0x140>)
 80013dc:	681b      	ldr	r3, [r3, #0]
 80013de:	4a38      	ldr	r2, [pc, #224]	@ (80014c0 <third_mode+0x12c>)
 80013e0:	6812      	ldr	r2, [r2, #0]
 80013e2:	fb02 f303 	mul.w	r3, r2, r3
 80013e6:	4a38      	ldr	r2, [pc, #224]	@ (80014c8 <third_mode+0x134>)
 80013e8:	6812      	ldr	r2, [r2, #0]
 80013ea:	4413      	add	r3, r2
 80013ec:	461a      	mov	r2, r3
 80013ee:	4b36      	ldr	r3, [pc, #216]	@ (80014c8 <third_mode+0x134>)
 80013f0:	601a      	str	r2, [r3, #0]
	if (value1 > MAX_LIGHT) {
 80013f2:	4b35      	ldr	r3, [pc, #212]	@ (80014c8 <third_mode+0x134>)
 80013f4:	681b      	ldr	r3, [r3, #0]
 80013f6:	f5b3 7ffa 	cmp.w	r3, #500	@ 0x1f4
 80013fa:	dd0b      	ble.n	8001414 <third_mode+0x80>
		value1 = 2 * MAX_LIGHT - value1;
 80013fc:	4b32      	ldr	r3, [pc, #200]	@ (80014c8 <third_mode+0x134>)
 80013fe:	681b      	ldr	r3, [r3, #0]
 8001400:	f5c3 737a 	rsb	r3, r3, #1000	@ 0x3e8
 8001404:	4a30      	ldr	r2, [pc, #192]	@ (80014c8 <third_mode+0x134>)
 8001406:	6013      	str	r3, [r2, #0]
		sign1 = -sign1;
 8001408:	4b2d      	ldr	r3, [pc, #180]	@ (80014c0 <third_mode+0x12c>)
 800140a:	681b      	ldr	r3, [r3, #0]
 800140c:	425b      	negs	r3, r3
 800140e:	4a2c      	ldr	r2, [pc, #176]	@ (80014c0 <third_mode+0x12c>)
 8001410:	6013      	str	r3, [r2, #0]
 8001412:	e00d      	b.n	8001430 <third_mode+0x9c>
	} else if (value1 < MIN_LIGHT) {
 8001414:	4b2c      	ldr	r3, [pc, #176]	@ (80014c8 <third_mode+0x134>)
 8001416:	681b      	ldr	r3, [r3, #0]
 8001418:	2b00      	cmp	r3, #0
 800141a:	da09      	bge.n	8001430 <third_mode+0x9c>
		value1 = 2 * MIN_LIGHT - value1;
 800141c:	4b2a      	ldr	r3, [pc, #168]	@ (80014c8 <third_mode+0x134>)
 800141e:	681b      	ldr	r3, [r3, #0]
 8001420:	425b      	negs	r3, r3
 8001422:	4a29      	ldr	r2, [pc, #164]	@ (80014c8 <third_mode+0x134>)
 8001424:	6013      	str	r3, [r2, #0]
		sign1 = -sign1;
 8001426:	4b26      	ldr	r3, [pc, #152]	@ (80014c0 <third_mode+0x12c>)
 8001428:	681b      	ldr	r3, [r3, #0]
 800142a:	425b      	negs	r3, r3
 800142c:	4a24      	ldr	r2, [pc, #144]	@ (80014c0 <third_mode+0x12c>)
 800142e:	6013      	str	r3, [r2, #0]
	}

	value2 = value2 + speed * sign2;
 8001430:	4b28      	ldr	r3, [pc, #160]	@ (80014d4 <third_mode+0x140>)
 8001432:	681b      	ldr	r3, [r3, #0]
 8001434:	4a23      	ldr	r2, [pc, #140]	@ (80014c4 <third_mode+0x130>)
 8001436:	6812      	ldr	r2, [r2, #0]
 8001438:	fb02 f303 	mul.w	r3, r2, r3
 800143c:	4a23      	ldr	r2, [pc, #140]	@ (80014cc <third_mode+0x138>)
 800143e:	6812      	ldr	r2, [r2, #0]
 8001440:	4413      	add	r3, r2
 8001442:	461a      	mov	r2, r3
 8001444:	4b21      	ldr	r3, [pc, #132]	@ (80014cc <third_mode+0x138>)
 8001446:	601a      	str	r2, [r3, #0]
	if (value2 > MAX_LIGHT) {
 8001448:	4b20      	ldr	r3, [pc, #128]	@ (80014cc <third_mode+0x138>)
 800144a:	681b      	ldr	r3, [r3, #0]
 800144c:	f5b3 7ffa 	cmp.w	r3, #500	@ 0x1f4
 8001450:	dd0b      	ble.n	800146a <third_mode+0xd6>
		value2 = 2 * MAX_LIGHT - value2;
 8001452:	4b1e      	ldr	r3, [pc, #120]	@ (80014cc <third_mode+0x138>)
 8001454:	681b      	ldr	r3, [r3, #0]
 8001456:	f5c3 737a 	rsb	r3, r3, #1000	@ 0x3e8
 800145a:	4a1c      	ldr	r2, [pc, #112]	@ (80014cc <third_mode+0x138>)
 800145c:	6013      	str	r3, [r2, #0]
		sign2 = -sign2;
 800145e:	4b19      	ldr	r3, [pc, #100]	@ (80014c4 <third_mode+0x130>)
 8001460:	681b      	ldr	r3, [r3, #0]
 8001462:	425b      	negs	r3, r3
 8001464:	4a17      	ldr	r2, [pc, #92]	@ (80014c4 <third_mode+0x130>)
 8001466:	6013      	str	r3, [r2, #0]
 8001468:	e00d      	b.n	8001486 <third_mode+0xf2>
	} else if (value2 < MIN_LIGHT) {
 800146a:	4b18      	ldr	r3, [pc, #96]	@ (80014cc <third_mode+0x138>)
 800146c:	681b      	ldr	r3, [r3, #0]
 800146e:	2b00      	cmp	r3, #0
 8001470:	da09      	bge.n	8001486 <third_mode+0xf2>
		value2 = 2 * MIN_LIGHT - value2;
 8001472:	4b16      	ldr	r3, [pc, #88]	@ (80014cc <third_mode+0x138>)
 8001474:	681b      	ldr	r3, [r3, #0]
 8001476:	425b      	negs	r3, r3
 8001478:	4a14      	ldr	r2, [pc, #80]	@ (80014cc <third_mode+0x138>)
 800147a:	6013      	str	r3, [r2, #0]
		sign2 = -sign2;
 800147c:	4b11      	ldr	r3, [pc, #68]	@ (80014c4 <third_mode+0x130>)
 800147e:	681b      	ldr	r3, [r3, #0]
 8001480:	425b      	negs	r3, r3
 8001482:	4a10      	ldr	r2, [pc, #64]	@ (80014c4 <third_mode+0x130>)
 8001484:	6013      	str	r3, [r2, #0]
	}
	 htim4.Instance->CCR2 = (value1 > 250) ? 500 : 0;
 8001486:	4b10      	ldr	r3, [pc, #64]	@ (80014c8 <third_mode+0x134>)
 8001488:	681b      	ldr	r3, [r3, #0]
 800148a:	2bfa      	cmp	r3, #250	@ 0xfa
 800148c:	dd02      	ble.n	8001494 <third_mode+0x100>
 800148e:	f44f 72fa 	mov.w	r2, #500	@ 0x1f4
 8001492:	e000      	b.n	8001496 <third_mode+0x102>
 8001494:	2200      	movs	r2, #0
 8001496:	4b0e      	ldr	r3, [pc, #56]	@ (80014d0 <third_mode+0x13c>)
 8001498:	681b      	ldr	r3, [r3, #0]
 800149a:	639a      	str	r2, [r3, #56]	@ 0x38
	 htim4.Instance->CCR3 = (value2 > 250) ? 500 : 0;
 800149c:	4b0b      	ldr	r3, [pc, #44]	@ (80014cc <third_mode+0x138>)
 800149e:	681b      	ldr	r3, [r3, #0]
 80014a0:	2bfa      	cmp	r3, #250	@ 0xfa
 80014a2:	dd02      	ble.n	80014aa <third_mode+0x116>
 80014a4:	f44f 72fa 	mov.w	r2, #500	@ 0x1f4
 80014a8:	e000      	b.n	80014ac <third_mode+0x118>
 80014aa:	2200      	movs	r2, #0
 80014ac:	4b08      	ldr	r3, [pc, #32]	@ (80014d0 <third_mode+0x13c>)
 80014ae:	681b      	ldr	r3, [r3, #0]
 80014b0:	63da      	str	r2, [r3, #60]	@ 0x3c
}
 80014b2:	bf00      	nop
 80014b4:	46bd      	mov	sp, r7
 80014b6:	f85d 7b04 	ldr.w	r7, [sp], #4
 80014ba:	4770      	bx	lr
 80014bc:	20000018 	.word	0x20000018
 80014c0:	20000010 	.word	0x20000010
 80014c4:	20000014 	.word	0x20000014
 80014c8:	200000b8 	.word	0x200000b8
 80014cc:	200000bc 	.word	0x200000bc
 80014d0:	20000224 	.word	0x20000224
 80014d4:	2000000c 	.word	0x2000000c

080014d8 <forth_mode>:

static void forth_mode() {
 80014d8:	b480      	push	{r7}
 80014da:	af00      	add	r7, sp, #0
	if (reset_state) {
 80014dc:	4b31      	ldr	r3, [pc, #196]	@ (80015a4 <forth_mode+0xcc>)
 80014de:	781b      	ldrb	r3, [r3, #0]
 80014e0:	2b00      	cmp	r3, #0
 80014e2:	d014      	beq.n	800150e <forth_mode+0x36>
		sign1 = 1;
 80014e4:	4b30      	ldr	r3, [pc, #192]	@ (80015a8 <forth_mode+0xd0>)
 80014e6:	2201      	movs	r2, #1
 80014e8:	601a      	str	r2, [r3, #0]
		value1 = 0;
 80014ea:	4b30      	ldr	r3, [pc, #192]	@ (80015ac <forth_mode+0xd4>)
 80014ec:	2200      	movs	r2, #0
 80014ee:	601a      	str	r2, [r3, #0]
		htim4.Instance->CCR2 = 0;
 80014f0:	4b2f      	ldr	r3, [pc, #188]	@ (80015b0 <forth_mode+0xd8>)
 80014f2:	681b      	ldr	r3, [r3, #0]
 80014f4:	2200      	movs	r2, #0
 80014f6:	639a      	str	r2, [r3, #56]	@ 0x38
		htim4.Instance->CCR3 = 0;
 80014f8:	4b2d      	ldr	r3, [pc, #180]	@ (80015b0 <forth_mode+0xd8>)
 80014fa:	681b      	ldr	r3, [r3, #0]
 80014fc:	2200      	movs	r2, #0
 80014fe:	63da      	str	r2, [r3, #60]	@ 0x3c
		htim4.Instance->CCR4 = 0;
 8001500:	4b2b      	ldr	r3, [pc, #172]	@ (80015b0 <forth_mode+0xd8>)
 8001502:	681b      	ldr	r3, [r3, #0]
 8001504:	2200      	movs	r2, #0
 8001506:	641a      	str	r2, [r3, #64]	@ 0x40
		reset_state = false;
 8001508:	4b26      	ldr	r3, [pc, #152]	@ (80015a4 <forth_mode+0xcc>)
 800150a:	2200      	movs	r2, #0
 800150c:	701a      	strb	r2, [r3, #0]
	}

	value1 = value1 + speed;
 800150e:	4b27      	ldr	r3, [pc, #156]	@ (80015ac <forth_mode+0xd4>)
 8001510:	681b      	ldr	r3, [r3, #0]
 8001512:	461a      	mov	r2, r3
 8001514:	4b27      	ldr	r3, [pc, #156]	@ (80015b4 <forth_mode+0xdc>)
 8001516:	681b      	ldr	r3, [r3, #0]
 8001518:	4413      	add	r3, r2
 800151a:	461a      	mov	r2, r3
 800151c:	4b23      	ldr	r3, [pc, #140]	@ (80015ac <forth_mode+0xd4>)
 800151e:	601a      	str	r2, [r3, #0]
	if (value1 > 3 * MAX_LIGHT) {
 8001520:	4b22      	ldr	r3, [pc, #136]	@ (80015ac <forth_mode+0xd4>)
 8001522:	681b      	ldr	r3, [r3, #0]
 8001524:	f240 52dc 	movw	r2, #1500	@ 0x5dc
 8001528:	4293      	cmp	r3, r2
 800152a:	dd02      	ble.n	8001532 <forth_mode+0x5a>
		value1 = 0;
 800152c:	4b1f      	ldr	r3, [pc, #124]	@ (80015ac <forth_mode+0xd4>)
 800152e:	2200      	movs	r2, #0
 8001530:	601a      	str	r2, [r3, #0]
	}

	 htim4.Instance->CCR2 = ((value1 >= 0 && value1 < 500) ? 500 : 0);
 8001532:	4b1e      	ldr	r3, [pc, #120]	@ (80015ac <forth_mode+0xd4>)
 8001534:	681b      	ldr	r3, [r3, #0]
 8001536:	2b00      	cmp	r3, #0
 8001538:	db07      	blt.n	800154a <forth_mode+0x72>
 800153a:	4b1c      	ldr	r3, [pc, #112]	@ (80015ac <forth_mode+0xd4>)
 800153c:	681b      	ldr	r3, [r3, #0]
 800153e:	f5b3 7ffa 	cmp.w	r3, #500	@ 0x1f4
 8001542:	da02      	bge.n	800154a <forth_mode+0x72>
 8001544:	f44f 72fa 	mov.w	r2, #500	@ 0x1f4
 8001548:	e000      	b.n	800154c <forth_mode+0x74>
 800154a:	2200      	movs	r2, #0
 800154c:	4b18      	ldr	r3, [pc, #96]	@ (80015b0 <forth_mode+0xd8>)
 800154e:	681b      	ldr	r3, [r3, #0]
 8001550:	639a      	str	r2, [r3, #56]	@ 0x38
	 htim4.Instance->CCR3 = ((value1 >= 500 && value1 < 1000) ? 500 : 0);
 8001552:	4b16      	ldr	r3, [pc, #88]	@ (80015ac <forth_mode+0xd4>)
 8001554:	681b      	ldr	r3, [r3, #0]
 8001556:	f5b3 7ffa 	cmp.w	r3, #500	@ 0x1f4
 800155a:	db07      	blt.n	800156c <forth_mode+0x94>
 800155c:	4b13      	ldr	r3, [pc, #76]	@ (80015ac <forth_mode+0xd4>)
 800155e:	681b      	ldr	r3, [r3, #0]
 8001560:	f5b3 7f7a 	cmp.w	r3, #1000	@ 0x3e8
 8001564:	da02      	bge.n	800156c <forth_mode+0x94>
 8001566:	f44f 72fa 	mov.w	r2, #500	@ 0x1f4
 800156a:	e000      	b.n	800156e <forth_mode+0x96>
 800156c:	2200      	movs	r2, #0
 800156e:	4b10      	ldr	r3, [pc, #64]	@ (80015b0 <forth_mode+0xd8>)
 8001570:	681b      	ldr	r3, [r3, #0]
 8001572:	63da      	str	r2, [r3, #60]	@ 0x3c
	 htim4.Instance->CCR4 = ((value1 >= 1000 && value1 < 1500) ? 500 : 0);
 8001574:	4b0d      	ldr	r3, [pc, #52]	@ (80015ac <forth_mode+0xd4>)
 8001576:	681b      	ldr	r3, [r3, #0]
 8001578:	f5b3 7f7a 	cmp.w	r3, #1000	@ 0x3e8
 800157c:	db08      	blt.n	8001590 <forth_mode+0xb8>
 800157e:	4b0b      	ldr	r3, [pc, #44]	@ (80015ac <forth_mode+0xd4>)
 8001580:	681b      	ldr	r3, [r3, #0]
 8001582:	f240 52db 	movw	r2, #1499	@ 0x5db
 8001586:	4293      	cmp	r3, r2
 8001588:	dc02      	bgt.n	8001590 <forth_mode+0xb8>
 800158a:	f44f 72fa 	mov.w	r2, #500	@ 0x1f4
 800158e:	e000      	b.n	8001592 <forth_mode+0xba>
 8001590:	2200      	movs	r2, #0
 8001592:	4b07      	ldr	r3, [pc, #28]	@ (80015b0 <forth_mode+0xd8>)
 8001594:	681b      	ldr	r3, [r3, #0]
 8001596:	641a      	str	r2, [r3, #64]	@ 0x40
}
 8001598:	bf00      	nop
 800159a:	46bd      	mov	sp, r7
 800159c:	f85d 7b04 	ldr.w	r7, [sp], #4
 80015a0:	4770      	bx	lr
 80015a2:	bf00      	nop
 80015a4:	20000018 	.word	0x20000018
 80015a8:	20000010 	.word	0x20000010
 80015ac:	200000b8 	.word	0x200000b8
 80015b0:	20000224 	.word	0x20000224
 80015b4:	2000000c 	.word	0x2000000c

080015b8 <user_mode>:

static void user_mode() {
 80015b8:	b5b0      	push	{r4, r5, r7, lr}
 80015ba:	af00      	add	r7, sp, #0
	if (reset_state) {
 80015bc:	4b86      	ldr	r3, [pc, #536]	@ (80017d8 <user_mode+0x220>)
 80015be:	781b      	ldrb	r3, [r3, #0]
 80015c0:	2b00      	cmp	r3, #0
 80015c2:	d049      	beq.n	8001658 <user_mode+0xa0>
		accurate_value1 = user_mode_green_init_light;
 80015c4:	4b85      	ldr	r3, [pc, #532]	@ (80017dc <user_mode+0x224>)
 80015c6:	681b      	ldr	r3, [r3, #0]
 80015c8:	ee07 3a90 	vmov	s15, r3
 80015cc:	eef8 7a67 	vcvt.f32.u32	s15, s15
 80015d0:	4b83      	ldr	r3, [pc, #524]	@ (80017e0 <user_mode+0x228>)
 80015d2:	edc3 7a00 	vstr	s15, [r3]
		accurate_value2 = 0;
 80015d6:	4b83      	ldr	r3, [pc, #524]	@ (80017e4 <user_mode+0x22c>)
 80015d8:	f04f 0200 	mov.w	r2, #0
 80015dc:	601a      	str	r2, [r3, #0]
		sign1 = 1;
 80015de:	4b82      	ldr	r3, [pc, #520]	@ (80017e8 <user_mode+0x230>)
 80015e0:	2201      	movs	r2, #1
 80015e2:	601a      	str	r2, [r3, #0]
		sign2 = 1;
 80015e4:	4b81      	ldr	r3, [pc, #516]	@ (80017ec <user_mode+0x234>)
 80015e6:	2201      	movs	r2, #1
 80015e8:	601a      	str	r2, [r3, #0]
		htim4.Instance->CCR2 = user_mode_green_init_light;
 80015ea:	4b81      	ldr	r3, [pc, #516]	@ (80017f0 <user_mode+0x238>)
 80015ec:	681b      	ldr	r3, [r3, #0]
 80015ee:	4a7b      	ldr	r2, [pc, #492]	@ (80017dc <user_mode+0x224>)
 80015f0:	6812      	ldr	r2, [r2, #0]
 80015f2:	639a      	str	r2, [r3, #56]	@ 0x38
		htim4.Instance->CCR3 = 0;
 80015f4:	4b7e      	ldr	r3, [pc, #504]	@ (80017f0 <user_mode+0x238>)
 80015f6:	681b      	ldr	r3, [r3, #0]
 80015f8:	2200      	movs	r2, #0
 80015fa:	63da      	str	r2, [r3, #60]	@ 0x3c
		htim4.Instance->CCR4 = 0;
 80015fc:	4b7c      	ldr	r3, [pc, #496]	@ (80017f0 <user_mode+0x238>)
 80015fe:	681b      	ldr	r3, [r3, #0]
 8001600:	2200      	movs	r2, #0
 8001602:	641a      	str	r2, [r3, #64]	@ 0x40
		reset_state = false;
 8001604:	4b74      	ldr	r3, [pc, #464]	@ (80017d8 <user_mode+0x220>)
 8001606:	2200      	movs	r2, #0
 8001608:	701a      	strb	r2, [r3, #0]
		user_mode_speed = (float) speed / 500.0 * user_mode_max_light;
 800160a:	4b7a      	ldr	r3, [pc, #488]	@ (80017f4 <user_mode+0x23c>)
 800160c:	681b      	ldr	r3, [r3, #0]
 800160e:	ee07 3a90 	vmov	s15, r3
 8001612:	eef8 7a67 	vcvt.f32.u32	s15, s15
 8001616:	ee17 0a90 	vmov	r0, s15
 800161a:	f7fe ffa5 	bl	8000568 <__aeabi_f2d>
 800161e:	f04f 0200 	mov.w	r2, #0
 8001622:	4b75      	ldr	r3, [pc, #468]	@ (80017f8 <user_mode+0x240>)
 8001624:	f7ff f922 	bl	800086c <__aeabi_ddiv>
 8001628:	4602      	mov	r2, r0
 800162a:	460b      	mov	r3, r1
 800162c:	4614      	mov	r4, r2
 800162e:	461d      	mov	r5, r3
 8001630:	4b72      	ldr	r3, [pc, #456]	@ (80017fc <user_mode+0x244>)
 8001632:	681b      	ldr	r3, [r3, #0]
 8001634:	4618      	mov	r0, r3
 8001636:	f7fe ff75 	bl	8000524 <__aeabi_ui2d>
 800163a:	4602      	mov	r2, r0
 800163c:	460b      	mov	r3, r1
 800163e:	4620      	mov	r0, r4
 8001640:	4629      	mov	r1, r5
 8001642:	f7fe ffe9 	bl	8000618 <__aeabi_dmul>
 8001646:	4602      	mov	r2, r0
 8001648:	460b      	mov	r3, r1
 800164a:	4610      	mov	r0, r2
 800164c:	4619      	mov	r1, r3
 800164e:	f7ff f9f5 	bl	8000a3c <__aeabi_d2f>
 8001652:	4603      	mov	r3, r0
 8001654:	4a6a      	ldr	r2, [pc, #424]	@ (8001800 <user_mode+0x248>)
 8001656:	6013      	str	r3, [r2, #0]
	}

	accurate_value1 = accurate_value1 + user_mode_speed * sign1;
 8001658:	4b63      	ldr	r3, [pc, #396]	@ (80017e8 <user_mode+0x230>)
 800165a:	681b      	ldr	r3, [r3, #0]
 800165c:	ee07 3a90 	vmov	s15, r3
 8001660:	eeb8 7ae7 	vcvt.f32.s32	s14, s15
 8001664:	4b66      	ldr	r3, [pc, #408]	@ (8001800 <user_mode+0x248>)
 8001666:	edd3 7a00 	vldr	s15, [r3]
 800166a:	ee27 7a27 	vmul.f32	s14, s14, s15
 800166e:	4b5c      	ldr	r3, [pc, #368]	@ (80017e0 <user_mode+0x228>)
 8001670:	edd3 7a00 	vldr	s15, [r3]
 8001674:	ee77 7a27 	vadd.f32	s15, s14, s15
 8001678:	4b59      	ldr	r3, [pc, #356]	@ (80017e0 <user_mode+0x228>)
 800167a:	edc3 7a00 	vstr	s15, [r3]
	if (accurate_value1 > user_mode_max_light) {
 800167e:	4b5f      	ldr	r3, [pc, #380]	@ (80017fc <user_mode+0x244>)
 8001680:	681b      	ldr	r3, [r3, #0]
 8001682:	ee07 3a90 	vmov	s15, r3
 8001686:	eeb8 7a67 	vcvt.f32.u32	s14, s15
 800168a:	4b55      	ldr	r3, [pc, #340]	@ (80017e0 <user_mode+0x228>)
 800168c:	edd3 7a00 	vldr	s15, [r3]
 8001690:	eeb4 7ae7 	vcmpe.f32	s14, s15
 8001694:	eef1 fa10 	vmrs	APSR_nzcv, fpscr
 8001698:	d514      	bpl.n	80016c4 <user_mode+0x10c>
		accurate_value1 = 2 * user_mode_max_light - accurate_value1;
 800169a:	4b58      	ldr	r3, [pc, #352]	@ (80017fc <user_mode+0x244>)
 800169c:	681b      	ldr	r3, [r3, #0]
 800169e:	005b      	lsls	r3, r3, #1
 80016a0:	ee07 3a90 	vmov	s15, r3
 80016a4:	eeb8 7a67 	vcvt.f32.u32	s14, s15
 80016a8:	4b4d      	ldr	r3, [pc, #308]	@ (80017e0 <user_mode+0x228>)
 80016aa:	edd3 7a00 	vldr	s15, [r3]
 80016ae:	ee77 7a67 	vsub.f32	s15, s14, s15
 80016b2:	4b4b      	ldr	r3, [pc, #300]	@ (80017e0 <user_mode+0x228>)
 80016b4:	edc3 7a00 	vstr	s15, [r3]
		sign1 = -sign1;
 80016b8:	4b4b      	ldr	r3, [pc, #300]	@ (80017e8 <user_mode+0x230>)
 80016ba:	681b      	ldr	r3, [r3, #0]
 80016bc:	425b      	negs	r3, r3
 80016be:	4a4a      	ldr	r2, [pc, #296]	@ (80017e8 <user_mode+0x230>)
 80016c0:	6013      	str	r3, [r2, #0]
 80016c2:	e016      	b.n	80016f2 <user_mode+0x13a>
	} else if (accurate_value1 < MIN_LIGHT) {
 80016c4:	4b46      	ldr	r3, [pc, #280]	@ (80017e0 <user_mode+0x228>)
 80016c6:	edd3 7a00 	vldr	s15, [r3]
 80016ca:	eef5 7ac0 	vcmpe.f32	s15, #0.0
 80016ce:	eef1 fa10 	vmrs	APSR_nzcv, fpscr
 80016d2:	d50e      	bpl.n	80016f2 <user_mode+0x13a>
		accurate_value1 = 2 * MIN_LIGHT - accurate_value1;
 80016d4:	4b42      	ldr	r3, [pc, #264]	@ (80017e0 <user_mode+0x228>)
 80016d6:	edd3 7a00 	vldr	s15, [r3]
 80016da:	ed9f 7a4a 	vldr	s14, [pc, #296]	@ 8001804 <user_mode+0x24c>
 80016de:	ee77 7a67 	vsub.f32	s15, s14, s15
 80016e2:	4b3f      	ldr	r3, [pc, #252]	@ (80017e0 <user_mode+0x228>)
 80016e4:	edc3 7a00 	vstr	s15, [r3]
		sign1 = -sign1;
 80016e8:	4b3f      	ldr	r3, [pc, #252]	@ (80017e8 <user_mode+0x230>)
 80016ea:	681b      	ldr	r3, [r3, #0]
 80016ec:	425b      	negs	r3, r3
 80016ee:	4a3e      	ldr	r2, [pc, #248]	@ (80017e8 <user_mode+0x230>)
 80016f0:	6013      	str	r3, [r2, #0]
	}

	accurate_value2 = accurate_value2 + user_mode_speed * sign2;
 80016f2:	4b3e      	ldr	r3, [pc, #248]	@ (80017ec <user_mode+0x234>)
 80016f4:	681b      	ldr	r3, [r3, #0]
 80016f6:	ee07 3a90 	vmov	s15, r3
 80016fa:	eeb8 7ae7 	vcvt.f32.s32	s14, s15
 80016fe:	4b40      	ldr	r3, [pc, #256]	@ (8001800 <user_mode+0x248>)
 8001700:	edd3 7a00 	vldr	s15, [r3]
 8001704:	ee27 7a27 	vmul.f32	s14, s14, s15
 8001708:	4b36      	ldr	r3, [pc, #216]	@ (80017e4 <user_mode+0x22c>)
 800170a:	edd3 7a00 	vldr	s15, [r3]
 800170e:	ee77 7a27 	vadd.f32	s15, s14, s15
 8001712:	4b34      	ldr	r3, [pc, #208]	@ (80017e4 <user_mode+0x22c>)
 8001714:	edc3 7a00 	vstr	s15, [r3]
	if (accurate_value2 > user_mode_max_light) {
 8001718:	4b38      	ldr	r3, [pc, #224]	@ (80017fc <user_mode+0x244>)
 800171a:	681b      	ldr	r3, [r3, #0]
 800171c:	ee07 3a90 	vmov	s15, r3
 8001720:	eeb8 7a67 	vcvt.f32.u32	s14, s15
 8001724:	4b2f      	ldr	r3, [pc, #188]	@ (80017e4 <user_mode+0x22c>)
 8001726:	edd3 7a00 	vldr	s15, [r3]
 800172a:	eeb4 7ae7 	vcmpe.f32	s14, s15
 800172e:	eef1 fa10 	vmrs	APSR_nzcv, fpscr
 8001732:	d514      	bpl.n	800175e <user_mode+0x1a6>
		accurate_value2 = 2 * user_mode_max_light - accurate_value2;
 8001734:	4b31      	ldr	r3, [pc, #196]	@ (80017fc <user_mode+0x244>)
 8001736:	681b      	ldr	r3, [r3, #0]
 8001738:	005b      	lsls	r3, r3, #1
 800173a:	ee07 3a90 	vmov	s15, r3
 800173e:	eeb8 7a67 	vcvt.f32.u32	s14, s15
 8001742:	4b28      	ldr	r3, [pc, #160]	@ (80017e4 <user_mode+0x22c>)
 8001744:	edd3 7a00 	vldr	s15, [r3]
 8001748:	ee77 7a67 	vsub.f32	s15, s14, s15
 800174c:	4b25      	ldr	r3, [pc, #148]	@ (80017e4 <user_mode+0x22c>)
 800174e:	edc3 7a00 	vstr	s15, [r3]
		sign2 = -sign2;
 8001752:	4b26      	ldr	r3, [pc, #152]	@ (80017ec <user_mode+0x234>)
 8001754:	681b      	ldr	r3, [r3, #0]
 8001756:	425b      	negs	r3, r3
 8001758:	4a24      	ldr	r2, [pc, #144]	@ (80017ec <user_mode+0x234>)
 800175a:	6013      	str	r3, [r2, #0]
 800175c:	e016      	b.n	800178c <user_mode+0x1d4>
	} else if (accurate_value2 < MIN_LIGHT) {
 800175e:	4b21      	ldr	r3, [pc, #132]	@ (80017e4 <user_mode+0x22c>)
 8001760:	edd3 7a00 	vldr	s15, [r3]
 8001764:	eef5 7ac0 	vcmpe.f32	s15, #0.0
 8001768:	eef1 fa10 	vmrs	APSR_nzcv, fpscr
 800176c:	d50e      	bpl.n	800178c <user_mode+0x1d4>
		accurate_value2 = 2 * MIN_LIGHT - accurate_value2;
 800176e:	4b1d      	ldr	r3, [pc, #116]	@ (80017e4 <user_mode+0x22c>)
 8001770:	edd3 7a00 	vldr	s15, [r3]
 8001774:	ed9f 7a23 	vldr	s14, [pc, #140]	@ 8001804 <user_mode+0x24c>
 8001778:	ee77 7a67 	vsub.f32	s15, s14, s15
 800177c:	4b19      	ldr	r3, [pc, #100]	@ (80017e4 <user_mode+0x22c>)
 800177e:	edc3 7a00 	vstr	s15, [r3]
		sign2 = -sign2;
 8001782:	4b1a      	ldr	r3, [pc, #104]	@ (80017ec <user_mode+0x234>)
 8001784:	681b      	ldr	r3, [r3, #0]
 8001786:	425b      	negs	r3, r3
 8001788:	4a18      	ldr	r2, [pc, #96]	@ (80017ec <user_mode+0x234>)
 800178a:	6013      	str	r3, [r2, #0]
	}
	 htim4.Instance->CCR2 = (uint32_t) accurate_value1;
 800178c:	4b14      	ldr	r3, [pc, #80]	@ (80017e0 <user_mode+0x228>)
 800178e:	edd3 7a00 	vldr	s15, [r3]
 8001792:	4b17      	ldr	r3, [pc, #92]	@ (80017f0 <user_mode+0x238>)
 8001794:	681b      	ldr	r3, [r3, #0]
 8001796:	eefc 7ae7 	vcvt.u32.f32	s15, s15
 800179a:	ee17 2a90 	vmov	r2, s15
 800179e:	639a      	str	r2, [r3, #56]	@ 0x38
	 if (user_mode_color == ORANGE) {
 80017a0:	4b19      	ldr	r3, [pc, #100]	@ (8001808 <user_mode+0x250>)
 80017a2:	781b      	ldrb	r3, [r3, #0]
 80017a4:	2b01      	cmp	r3, #1
 80017a6:	d10a      	bne.n	80017be <user_mode+0x206>
		 htim4.Instance->CCR3 = (uint32_t) accurate_value2;
 80017a8:	4b0e      	ldr	r3, [pc, #56]	@ (80017e4 <user_mode+0x22c>)
 80017aa:	edd3 7a00 	vldr	s15, [r3]
 80017ae:	4b10      	ldr	r3, [pc, #64]	@ (80017f0 <user_mode+0x238>)
 80017b0:	681b      	ldr	r3, [r3, #0]
 80017b2:	eefc 7ae7 	vcvt.u32.f32	s15, s15
 80017b6:	ee17 2a90 	vmov	r2, s15
 80017ba:	63da      	str	r2, [r3, #60]	@ 0x3c
	 } else {
		 htim4.Instance->CCR4 = (uint32_t) accurate_value2;
	 }
}
 80017bc:	e009      	b.n	80017d2 <user_mode+0x21a>
		 htim4.Instance->CCR4 = (uint32_t) accurate_value2;
 80017be:	4b09      	ldr	r3, [pc, #36]	@ (80017e4 <user_mode+0x22c>)
 80017c0:	edd3 7a00 	vldr	s15, [r3]
 80017c4:	4b0a      	ldr	r3, [pc, #40]	@ (80017f0 <user_mode+0x238>)
 80017c6:	681b      	ldr	r3, [r3, #0]
 80017c8:	eefc 7ae7 	vcvt.u32.f32	s15, s15
 80017cc:	ee17 2a90 	vmov	r2, s15
 80017d0:	641a      	str	r2, [r3, #64]	@ 0x40
}
 80017d2:	bf00      	nop
 80017d4:	bdb0      	pop	{r4, r5, r7, pc}
 80017d6:	bf00      	nop
 80017d8:	20000018 	.word	0x20000018
 80017dc:	20000020 	.word	0x20000020
 80017e0:	200000b0 	.word	0x200000b0
 80017e4:	200000b4 	.word	0x200000b4
 80017e8:	20000010 	.word	0x20000010
 80017ec:	20000014 	.word	0x20000014
 80017f0:	20000224 	.word	0x20000224
 80017f4:	2000000c 	.word	0x2000000c
 80017f8:	407f4000 	.word	0x407f4000
 80017fc:	2000001c 	.word	0x2000001c
 8001800:	200000ac 	.word	0x200000ac
 8001804:	00000000 	.word	0x00000000
 8001808:	20000140 	.word	0x20000140

0800180c <speed_up>:

void speed_up() {
 800180c:	b5b0      	push	{r4, r5, r7, lr}
 800180e:	b082      	sub	sp, #8
 8001810:	af00      	add	r7, sp, #0
	uint32_t pmask = lock();
 8001812:	f7ff fb53 	bl	8000ebc <lock>
 8001816:	6078      	str	r0, [r7, #4]
	if (speed * 11 / 10 == speed) {
 8001818:	4b2e      	ldr	r3, [pc, #184]	@ (80018d4 <speed_up+0xc8>)
 800181a:	681a      	ldr	r2, [r3, #0]
 800181c:	4613      	mov	r3, r2
 800181e:	009b      	lsls	r3, r3, #2
 8001820:	4413      	add	r3, r2
 8001822:	005b      	lsls	r3, r3, #1
 8001824:	4413      	add	r3, r2
 8001826:	4a2c      	ldr	r2, [pc, #176]	@ (80018d8 <speed_up+0xcc>)
 8001828:	fba2 2303 	umull	r2, r3, r2, r3
 800182c:	08da      	lsrs	r2, r3, #3
 800182e:	4b29      	ldr	r3, [pc, #164]	@ (80018d4 <speed_up+0xc8>)
 8001830:	681b      	ldr	r3, [r3, #0]
 8001832:	429a      	cmp	r2, r3
 8001834:	d105      	bne.n	8001842 <speed_up+0x36>
		speed += 1;
 8001836:	4b27      	ldr	r3, [pc, #156]	@ (80018d4 <speed_up+0xc8>)
 8001838:	681b      	ldr	r3, [r3, #0]
 800183a:	3301      	adds	r3, #1
 800183c:	4a25      	ldr	r2, [pc, #148]	@ (80018d4 <speed_up+0xc8>)
 800183e:	6013      	str	r3, [r2, #0]
 8001840:	e00c      	b.n	800185c <speed_up+0x50>
	} else {
		speed = speed * 11 / 10;
 8001842:	4b24      	ldr	r3, [pc, #144]	@ (80018d4 <speed_up+0xc8>)
 8001844:	681a      	ldr	r2, [r3, #0]
 8001846:	4613      	mov	r3, r2
 8001848:	009b      	lsls	r3, r3, #2
 800184a:	4413      	add	r3, r2
 800184c:	005b      	lsls	r3, r3, #1
 800184e:	4413      	add	r3, r2
 8001850:	4a21      	ldr	r2, [pc, #132]	@ (80018d8 <speed_up+0xcc>)
 8001852:	fba2 2303 	umull	r2, r3, r2, r3
 8001856:	08db      	lsrs	r3, r3, #3
 8001858:	4a1e      	ldr	r2, [pc, #120]	@ (80018d4 <speed_up+0xc8>)
 800185a:	6013      	str	r3, [r2, #0]
	}

	if (speed > MAX_SPEED) {
 800185c:	4b1d      	ldr	r3, [pc, #116]	@ (80018d4 <speed_up+0xc8>)
 800185e:	681b      	ldr	r3, [r3, #0]
 8001860:	2b46      	cmp	r3, #70	@ 0x46
 8001862:	d902      	bls.n	800186a <speed_up+0x5e>
		speed = MAX_SPEED;
 8001864:	4b1b      	ldr	r3, [pc, #108]	@ (80018d4 <speed_up+0xc8>)
 8001866:	2246      	movs	r2, #70	@ 0x46
 8001868:	601a      	str	r2, [r3, #0]
	}
	user_mode_speed = (float) speed / 500.0 * user_mode_max_light;
 800186a:	4b1a      	ldr	r3, [pc, #104]	@ (80018d4 <speed_up+0xc8>)
 800186c:	681b      	ldr	r3, [r3, #0]
 800186e:	ee07 3a90 	vmov	s15, r3
 8001872:	eef8 7a67 	vcvt.f32.u32	s15, s15
 8001876:	ee17 0a90 	vmov	r0, s15
 800187a:	f7fe fe75 	bl	8000568 <__aeabi_f2d>
 800187e:	f04f 0200 	mov.w	r2, #0
 8001882:	4b16      	ldr	r3, [pc, #88]	@ (80018dc <speed_up+0xd0>)
 8001884:	f7fe fff2 	bl	800086c <__aeabi_ddiv>
 8001888:	4602      	mov	r2, r0
 800188a:	460b      	mov	r3, r1
 800188c:	4614      	mov	r4, r2
 800188e:	461d      	mov	r5, r3
 8001890:	4b13      	ldr	r3, [pc, #76]	@ (80018e0 <speed_up+0xd4>)
 8001892:	681b      	ldr	r3, [r3, #0]
 8001894:	4618      	mov	r0, r3
 8001896:	f7fe fe45 	bl	8000524 <__aeabi_ui2d>
 800189a:	4602      	mov	r2, r0
 800189c:	460b      	mov	r3, r1
 800189e:	4620      	mov	r0, r4
 80018a0:	4629      	mov	r1, r5
 80018a2:	f7fe feb9 	bl	8000618 <__aeabi_dmul>
 80018a6:	4602      	mov	r2, r0
 80018a8:	460b      	mov	r3, r1
 80018aa:	4610      	mov	r0, r2
 80018ac:	4619      	mov	r1, r3
 80018ae:	f7ff f8c5 	bl	8000a3c <__aeabi_d2f>
 80018b2:	4603      	mov	r3, r0
 80018b4:	4a0b      	ldr	r2, [pc, #44]	@ (80018e4 <speed_up+0xd8>)
 80018b6:	6013      	str	r3, [r2, #0]

	sprintf(info_buf, "speed: %" PRIu32 "\r\n", speed);
 80018b8:	4b06      	ldr	r3, [pc, #24]	@ (80018d4 <speed_up+0xc8>)
 80018ba:	681b      	ldr	r3, [r3, #0]
 80018bc:	461a      	mov	r2, r3
 80018be:	490a      	ldr	r1, [pc, #40]	@ (80018e8 <speed_up+0xdc>)
 80018c0:	480a      	ldr	r0, [pc, #40]	@ (80018ec <speed_up+0xe0>)
 80018c2:	f005 fa9b 	bl	8006dfc <siprintf>

	unlock(pmask);
 80018c6:	6878      	ldr	r0, [r7, #4]
 80018c8:	f7ff fb09 	bl	8000ede <unlock>
}
 80018cc:	bf00      	nop
 80018ce:	3708      	adds	r7, #8
 80018d0:	46bd      	mov	sp, r7
 80018d2:	bdb0      	pop	{r4, r5, r7, pc}
 80018d4:	2000000c 	.word	0x2000000c
 80018d8:	cccccccd 	.word	0xcccccccd
 80018dc:	407f4000 	.word	0x407f4000
 80018e0:	2000001c 	.word	0x2000001c
 80018e4:	200000ac 	.word	0x200000ac
 80018e8:	08007824 	.word	0x08007824
 80018ec:	200000c0 	.word	0x200000c0

080018f0 <speed_down>:

void speed_down() {
 80018f0:	b5b0      	push	{r4, r5, r7, lr}
 80018f2:	b082      	sub	sp, #8
 80018f4:	af00      	add	r7, sp, #0
	uint32_t pmask = lock();
 80018f6:	f7ff fae1 	bl	8000ebc <lock>
 80018fa:	6078      	str	r0, [r7, #4]
	if (speed * 9 / 10 == speed) {
 80018fc:	4b2c      	ldr	r3, [pc, #176]	@ (80019b0 <speed_down+0xc0>)
 80018fe:	681a      	ldr	r2, [r3, #0]
 8001900:	4613      	mov	r3, r2
 8001902:	00db      	lsls	r3, r3, #3
 8001904:	4413      	add	r3, r2
 8001906:	4a2b      	ldr	r2, [pc, #172]	@ (80019b4 <speed_down+0xc4>)
 8001908:	fba2 2303 	umull	r2, r3, r2, r3
 800190c:	08da      	lsrs	r2, r3, #3
 800190e:	4b28      	ldr	r3, [pc, #160]	@ (80019b0 <speed_down+0xc0>)
 8001910:	681b      	ldr	r3, [r3, #0]
 8001912:	429a      	cmp	r2, r3
 8001914:	d105      	bne.n	8001922 <speed_down+0x32>
		speed -= 1;
 8001916:	4b26      	ldr	r3, [pc, #152]	@ (80019b0 <speed_down+0xc0>)
 8001918:	681b      	ldr	r3, [r3, #0]
 800191a:	3b01      	subs	r3, #1
 800191c:	4a24      	ldr	r2, [pc, #144]	@ (80019b0 <speed_down+0xc0>)
 800191e:	6013      	str	r3, [r2, #0]
 8001920:	e00a      	b.n	8001938 <speed_down+0x48>
	} else {
		speed = speed * 9 / 10;
 8001922:	4b23      	ldr	r3, [pc, #140]	@ (80019b0 <speed_down+0xc0>)
 8001924:	681a      	ldr	r2, [r3, #0]
 8001926:	4613      	mov	r3, r2
 8001928:	00db      	lsls	r3, r3, #3
 800192a:	4413      	add	r3, r2
 800192c:	4a21      	ldr	r2, [pc, #132]	@ (80019b4 <speed_down+0xc4>)
 800192e:	fba2 2303 	umull	r2, r3, r2, r3
 8001932:	08db      	lsrs	r3, r3, #3
 8001934:	4a1e      	ldr	r2, [pc, #120]	@ (80019b0 <speed_down+0xc0>)
 8001936:	6013      	str	r3, [r2, #0]
	}
	if (speed < MIN_SPEED) {
 8001938:	4b1d      	ldr	r3, [pc, #116]	@ (80019b0 <speed_down+0xc0>)
 800193a:	681b      	ldr	r3, [r3, #0]
 800193c:	2b04      	cmp	r3, #4
 800193e:	d802      	bhi.n	8001946 <speed_down+0x56>
		speed = MIN_SPEED;
 8001940:	4b1b      	ldr	r3, [pc, #108]	@ (80019b0 <speed_down+0xc0>)
 8001942:	2205      	movs	r2, #5
 8001944:	601a      	str	r2, [r3, #0]
	}
	user_mode_speed = (float) speed / 500.0 * user_mode_max_light;
 8001946:	4b1a      	ldr	r3, [pc, #104]	@ (80019b0 <speed_down+0xc0>)
 8001948:	681b      	ldr	r3, [r3, #0]
 800194a:	ee07 3a90 	vmov	s15, r3
 800194e:	eef8 7a67 	vcvt.f32.u32	s15, s15
 8001952:	ee17 0a90 	vmov	r0, s15
 8001956:	f7fe fe07 	bl	8000568 <__aeabi_f2d>
 800195a:	f04f 0200 	mov.w	r2, #0
 800195e:	4b16      	ldr	r3, [pc, #88]	@ (80019b8 <speed_down+0xc8>)
 8001960:	f7fe ff84 	bl	800086c <__aeabi_ddiv>
 8001964:	4602      	mov	r2, r0
 8001966:	460b      	mov	r3, r1
 8001968:	4614      	mov	r4, r2
 800196a:	461d      	mov	r5, r3
 800196c:	4b13      	ldr	r3, [pc, #76]	@ (80019bc <speed_down+0xcc>)
 800196e:	681b      	ldr	r3, [r3, #0]
 8001970:	4618      	mov	r0, r3
 8001972:	f7fe fdd7 	bl	8000524 <__aeabi_ui2d>
 8001976:	4602      	mov	r2, r0
 8001978:	460b      	mov	r3, r1
 800197a:	4620      	mov	r0, r4
 800197c:	4629      	mov	r1, r5
 800197e:	f7fe fe4b 	bl	8000618 <__aeabi_dmul>
 8001982:	4602      	mov	r2, r0
 8001984:	460b      	mov	r3, r1
 8001986:	4610      	mov	r0, r2
 8001988:	4619      	mov	r1, r3
 800198a:	f7ff f857 	bl	8000a3c <__aeabi_d2f>
 800198e:	4603      	mov	r3, r0
 8001990:	4a0b      	ldr	r2, [pc, #44]	@ (80019c0 <speed_down+0xd0>)
 8001992:	6013      	str	r3, [r2, #0]

	sprintf(info_buf, "speed: %" PRIu32 "\r\n", speed);
 8001994:	4b06      	ldr	r3, [pc, #24]	@ (80019b0 <speed_down+0xc0>)
 8001996:	681b      	ldr	r3, [r3, #0]
 8001998:	461a      	mov	r2, r3
 800199a:	490a      	ldr	r1, [pc, #40]	@ (80019c4 <speed_down+0xd4>)
 800199c:	480a      	ldr	r0, [pc, #40]	@ (80019c8 <speed_down+0xd8>)
 800199e:	f005 fa2d 	bl	8006dfc <siprintf>

	unlock(pmask);
 80019a2:	6878      	ldr	r0, [r7, #4]
 80019a4:	f7ff fa9b 	bl	8000ede <unlock>
}
 80019a8:	bf00      	nop
 80019aa:	3708      	adds	r7, #8
 80019ac:	46bd      	mov	sp, r7
 80019ae:	bdb0      	pop	{r4, r5, r7, pc}
 80019b0:	2000000c 	.word	0x2000000c
 80019b4:	cccccccd 	.word	0xcccccccd
 80019b8:	407f4000 	.word	0x407f4000
 80019bc:	2000001c 	.word	0x2000001c
 80019c0:	200000ac 	.word	0x200000ac
 80019c4:	08007824 	.word	0x08007824
 80019c8:	200000c0 	.word	0x200000c0

080019cc <next_mode>:

void next_mode() {
 80019cc:	b580      	push	{r7, lr}
 80019ce:	b082      	sub	sp, #8
 80019d0:	af00      	add	r7, sp, #0
	uint32_t pmask = lock();
 80019d2:	f7ff fa73 	bl	8000ebc <lock>
 80019d6:	6078      	str	r0, [r7, #4]
	reset_state = true;
 80019d8:	4b26      	ldr	r3, [pc, #152]	@ (8001a74 <next_mode+0xa8>)
 80019da:	2201      	movs	r2, #1
 80019dc:	701a      	strb	r2, [r3, #0]
	switch (mode) {
 80019de:	4b26      	ldr	r3, [pc, #152]	@ (8001a78 <next_mode+0xac>)
 80019e0:	781b      	ldrb	r3, [r3, #0]
 80019e2:	2b04      	cmp	r3, #4
 80019e4:	d820      	bhi.n	8001a28 <next_mode+0x5c>
 80019e6:	a201      	add	r2, pc, #4	@ (adr r2, 80019ec <next_mode+0x20>)
 80019e8:	f852 f023 	ldr.w	pc, [r2, r3, lsl #2]
 80019ec:	08001a01 	.word	0x08001a01
 80019f0:	08001a09 	.word	0x08001a09
 80019f4:	08001a11 	.word	0x08001a11
 80019f8:	08001a19 	.word	0x08001a19
 80019fc:	08001a21 	.word	0x08001a21
	case FIRST:
		mode = SECOND;
 8001a00:	4b1d      	ldr	r3, [pc, #116]	@ (8001a78 <next_mode+0xac>)
 8001a02:	2201      	movs	r2, #1
 8001a04:	701a      	strb	r2, [r3, #0]
		break;
 8001a06:	e010      	b.n	8001a2a <next_mode+0x5e>
	case SECOND:
		mode = THIRD;
 8001a08:	4b1b      	ldr	r3, [pc, #108]	@ (8001a78 <next_mode+0xac>)
 8001a0a:	2202      	movs	r2, #2
 8001a0c:	701a      	strb	r2, [r3, #0]
		break;
 8001a0e:	e00c      	b.n	8001a2a <next_mode+0x5e>
	case THIRD:
		mode = FORTH;
 8001a10:	4b19      	ldr	r3, [pc, #100]	@ (8001a78 <next_mode+0xac>)
 8001a12:	2203      	movs	r2, #3
 8001a14:	701a      	strb	r2, [r3, #0]
		break;
 8001a16:	e008      	b.n	8001a2a <next_mode+0x5e>
	case FORTH:
		mode = FIFTH;
 8001a18:	4b17      	ldr	r3, [pc, #92]	@ (8001a78 <next_mode+0xac>)
 8001a1a:	2204      	movs	r2, #4
 8001a1c:	701a      	strb	r2, [r3, #0]
		break;
 8001a1e:	e004      	b.n	8001a2a <next_mode+0x5e>
	case FIFTH:
		mode = FIRST;
 8001a20:	4b15      	ldr	r3, [pc, #84]	@ (8001a78 <next_mode+0xac>)
 8001a22:	2200      	movs	r2, #0
 8001a24:	701a      	strb	r2, [r3, #0]
		break;
 8001a26:	e000      	b.n	8001a2a <next_mode+0x5e>
	default:
		break;
 8001a28:	bf00      	nop
	}

	sprintf(info_buf, "mode: %s\r\n",
			(mode == FIRST) ? "FIRST"
 8001a2a:	4b13      	ldr	r3, [pc, #76]	@ (8001a78 <next_mode+0xac>)
 8001a2c:	781b      	ldrb	r3, [r3, #0]
	sprintf(info_buf, "mode: %s\r\n",
 8001a2e:	2b00      	cmp	r3, #0
 8001a30:	d013      	beq.n	8001a5a <next_mode+0x8e>
			: (mode == SECOND) ? "SECOND"
 8001a32:	4b11      	ldr	r3, [pc, #68]	@ (8001a78 <next_mode+0xac>)
 8001a34:	781b      	ldrb	r3, [r3, #0]
					: (mode == THIRD) ? "THIRD"
 8001a36:	2b01      	cmp	r3, #1
 8001a38:	d00d      	beq.n	8001a56 <next_mode+0x8a>
 8001a3a:	4b0f      	ldr	r3, [pc, #60]	@ (8001a78 <next_mode+0xac>)
 8001a3c:	781b      	ldrb	r3, [r3, #0]
							: (mode == FORTH) ? "FORTH"
 8001a3e:	2b02      	cmp	r3, #2
 8001a40:	d007      	beq.n	8001a52 <next_mode+0x86>
 8001a42:	4b0d      	ldr	r3, [pc, #52]	@ (8001a78 <next_mode+0xac>)
 8001a44:	781b      	ldrb	r3, [r3, #0]
							: "USER");
 8001a46:	2b03      	cmp	r3, #3
 8001a48:	d101      	bne.n	8001a4e <next_mode+0x82>
 8001a4a:	4b0c      	ldr	r3, [pc, #48]	@ (8001a7c <next_mode+0xb0>)
 8001a4c:	e006      	b.n	8001a5c <next_mode+0x90>
 8001a4e:	4b0c      	ldr	r3, [pc, #48]	@ (8001a80 <next_mode+0xb4>)
 8001a50:	e004      	b.n	8001a5c <next_mode+0x90>
							: (mode == FORTH) ? "FORTH"
 8001a52:	4b0c      	ldr	r3, [pc, #48]	@ (8001a84 <next_mode+0xb8>)
 8001a54:	e002      	b.n	8001a5c <next_mode+0x90>
					: (mode == THIRD) ? "THIRD"
 8001a56:	4b0c      	ldr	r3, [pc, #48]	@ (8001a88 <next_mode+0xbc>)
 8001a58:	e000      	b.n	8001a5c <next_mode+0x90>
	sprintf(info_buf, "mode: %s\r\n",
 8001a5a:	4b0c      	ldr	r3, [pc, #48]	@ (8001a8c <next_mode+0xc0>)
 8001a5c:	461a      	mov	r2, r3
 8001a5e:	490c      	ldr	r1, [pc, #48]	@ (8001a90 <next_mode+0xc4>)
 8001a60:	480c      	ldr	r0, [pc, #48]	@ (8001a94 <next_mode+0xc8>)
 8001a62:	f005 f9cb 	bl	8006dfc <siprintf>

	unlock(pmask);
 8001a66:	6878      	ldr	r0, [r7, #4]
 8001a68:	f7ff fa39 	bl	8000ede <unlock>
}
 8001a6c:	bf00      	nop
 8001a6e:	3708      	adds	r7, #8
 8001a70:	46bd      	mov	sp, r7
 8001a72:	bd80      	pop	{r7, pc}
 8001a74:	20000018 	.word	0x20000018
 8001a78:	200000a8 	.word	0x200000a8
 8001a7c:	08007834 	.word	0x08007834
 8001a80:	0800783c 	.word	0x0800783c
 8001a84:	08007844 	.word	0x08007844
 8001a88:	0800784c 	.word	0x0800784c
 8001a8c:	08007854 	.word	0x08007854
 8001a90:	0800785c 	.word	0x0800785c
 8001a94:	200000c0 	.word	0x200000c0

08001a98 <prev_mode>:

void prev_mode() {
 8001a98:	b580      	push	{r7, lr}
 8001a9a:	b082      	sub	sp, #8
 8001a9c:	af00      	add	r7, sp, #0
	uint32_t pmask = lock();
 8001a9e:	f7ff fa0d 	bl	8000ebc <lock>
 8001aa2:	6078      	str	r0, [r7, #4]
	reset_state = true;
 8001aa4:	4b26      	ldr	r3, [pc, #152]	@ (8001b40 <prev_mode+0xa8>)
 8001aa6:	2201      	movs	r2, #1
 8001aa8:	701a      	strb	r2, [r3, #0]
	switch (mode) {
 8001aaa:	4b26      	ldr	r3, [pc, #152]	@ (8001b44 <prev_mode+0xac>)
 8001aac:	781b      	ldrb	r3, [r3, #0]
 8001aae:	2b04      	cmp	r3, #4
 8001ab0:	d820      	bhi.n	8001af4 <prev_mode+0x5c>
 8001ab2:	a201      	add	r2, pc, #4	@ (adr r2, 8001ab8 <prev_mode+0x20>)
 8001ab4:	f852 f023 	ldr.w	pc, [r2, r3, lsl #2]
 8001ab8:	08001acd 	.word	0x08001acd
 8001abc:	08001ad5 	.word	0x08001ad5
 8001ac0:	08001add 	.word	0x08001add
 8001ac4:	08001ae5 	.word	0x08001ae5
 8001ac8:	08001aed 	.word	0x08001aed
	case FIRST:
		mode = FIFTH;
 8001acc:	4b1d      	ldr	r3, [pc, #116]	@ (8001b44 <prev_mode+0xac>)
 8001ace:	2204      	movs	r2, #4
 8001ad0:	701a      	strb	r2, [r3, #0]
		break;
 8001ad2:	e010      	b.n	8001af6 <prev_mode+0x5e>
	case SECOND:
		mode = FIRST;
 8001ad4:	4b1b      	ldr	r3, [pc, #108]	@ (8001b44 <prev_mode+0xac>)
 8001ad6:	2200      	movs	r2, #0
 8001ad8:	701a      	strb	r2, [r3, #0]
		break;
 8001ada:	e00c      	b.n	8001af6 <prev_mode+0x5e>
	case THIRD:
		mode = SECOND;
 8001adc:	4b19      	ldr	r3, [pc, #100]	@ (8001b44 <prev_mode+0xac>)
 8001ade:	2201      	movs	r2, #1
 8001ae0:	701a      	strb	r2, [r3, #0]
		break;
 8001ae2:	e008      	b.n	8001af6 <prev_mode+0x5e>
	case FORTH:
		mode = THIRD;
 8001ae4:	4b17      	ldr	r3, [pc, #92]	@ (8001b44 <prev_mode+0xac>)
 8001ae6:	2202      	movs	r2, #2
 8001ae8:	701a      	strb	r2, [r3, #0]
		break;
 8001aea:	e004      	b.n	8001af6 <prev_mode+0x5e>
	case FIFTH:
		mode = FORTH;
 8001aec:	4b15      	ldr	r3, [pc, #84]	@ (8001b44 <prev_mode+0xac>)
 8001aee:	2203      	movs	r2, #3
 8001af0:	701a      	strb	r2, [r3, #0]
		break;
 8001af2:	e000      	b.n	8001af6 <prev_mode+0x5e>
	default:
		break;
 8001af4:	bf00      	nop
	}

	sprintf(info_buf, "mode: %s\r\n",
			(mode == FIRST) ? "FIRST"
 8001af6:	4b13      	ldr	r3, [pc, #76]	@ (8001b44 <prev_mode+0xac>)
 8001af8:	781b      	ldrb	r3, [r3, #0]
	sprintf(info_buf, "mode: %s\r\n",
 8001afa:	2b00      	cmp	r3, #0
 8001afc:	d013      	beq.n	8001b26 <prev_mode+0x8e>
			: (mode == SECOND) ? "SECOND"
 8001afe:	4b11      	ldr	r3, [pc, #68]	@ (8001b44 <prev_mode+0xac>)
 8001b00:	781b      	ldrb	r3, [r3, #0]
					: (mode == THIRD) ? "THIRD"
 8001b02:	2b01      	cmp	r3, #1
 8001b04:	d00d      	beq.n	8001b22 <prev_mode+0x8a>
 8001b06:	4b0f      	ldr	r3, [pc, #60]	@ (8001b44 <prev_mode+0xac>)
 8001b08:	781b      	ldrb	r3, [r3, #0]
							: (mode == FORTH) ? "FORTH"
 8001b0a:	2b02      	cmp	r3, #2
 8001b0c:	d007      	beq.n	8001b1e <prev_mode+0x86>
 8001b0e:	4b0d      	ldr	r3, [pc, #52]	@ (8001b44 <prev_mode+0xac>)
 8001b10:	781b      	ldrb	r3, [r3, #0]
							: "USER");
 8001b12:	2b03      	cmp	r3, #3
 8001b14:	d101      	bne.n	8001b1a <prev_mode+0x82>
 8001b16:	4b0c      	ldr	r3, [pc, #48]	@ (8001b48 <prev_mode+0xb0>)
 8001b18:	e006      	b.n	8001b28 <prev_mode+0x90>
 8001b1a:	4b0c      	ldr	r3, [pc, #48]	@ (8001b4c <prev_mode+0xb4>)
 8001b1c:	e004      	b.n	8001b28 <prev_mode+0x90>
							: (mode == FORTH) ? "FORTH"
 8001b1e:	4b0c      	ldr	r3, [pc, #48]	@ (8001b50 <prev_mode+0xb8>)
 8001b20:	e002      	b.n	8001b28 <prev_mode+0x90>
					: (mode == THIRD) ? "THIRD"
 8001b22:	4b0c      	ldr	r3, [pc, #48]	@ (8001b54 <prev_mode+0xbc>)
 8001b24:	e000      	b.n	8001b28 <prev_mode+0x90>
	sprintf(info_buf, "mode: %s\r\n",
 8001b26:	4b0c      	ldr	r3, [pc, #48]	@ (8001b58 <prev_mode+0xc0>)
 8001b28:	461a      	mov	r2, r3
 8001b2a:	490c      	ldr	r1, [pc, #48]	@ (8001b5c <prev_mode+0xc4>)
 8001b2c:	480c      	ldr	r0, [pc, #48]	@ (8001b60 <prev_mode+0xc8>)
 8001b2e:	f005 f965 	bl	8006dfc <siprintf>

	unlock(pmask);
 8001b32:	6878      	ldr	r0, [r7, #4]
 8001b34:	f7ff f9d3 	bl	8000ede <unlock>
}
 8001b38:	bf00      	nop
 8001b3a:	3708      	adds	r7, #8
 8001b3c:	46bd      	mov	sp, r7
 8001b3e:	bd80      	pop	{r7, pc}
 8001b40:	20000018 	.word	0x20000018
 8001b44:	200000a8 	.word	0x200000a8
 8001b48:	08007834 	.word	0x08007834
 8001b4c:	0800783c 	.word	0x0800783c
 8001b50:	08007844 	.word	0x08007844
 8001b54:	0800784c 	.word	0x0800784c
 8001b58:	08007854 	.word	0x08007854
 8001b5c:	0800785c 	.word	0x0800785c
 8001b60:	200000c0 	.word	0x200000c0

08001b64 <update_state>:

void update_state() {
 8001b64:	b580      	push	{r7, lr}
 8001b66:	af00      	add	r7, sp, #0
	switch (mode) {
 8001b68:	4b12      	ldr	r3, [pc, #72]	@ (8001bb4 <update_state+0x50>)
 8001b6a:	781b      	ldrb	r3, [r3, #0]
 8001b6c:	2b05      	cmp	r3, #5
 8001b6e:	d81e      	bhi.n	8001bae <update_state+0x4a>
 8001b70:	a201      	add	r2, pc, #4	@ (adr r2, 8001b78 <update_state+0x14>)
 8001b72:	f852 f023 	ldr.w	pc, [r2, r3, lsl #2]
 8001b76:	bf00      	nop
 8001b78:	08001b91 	.word	0x08001b91
 8001b7c:	08001b97 	.word	0x08001b97
 8001b80:	08001b9d 	.word	0x08001b9d
 8001b84:	08001ba3 	.word	0x08001ba3
 8001b88:	08001ba9 	.word	0x08001ba9
 8001b8c:	08001ba9 	.word	0x08001ba9
	case FIRST:
		first_mode();
 8001b90:	f7ff fb1a 	bl	80011c8 <first_mode>
		break;
 8001b94:	e00b      	b.n	8001bae <update_state+0x4a>
	case SECOND:
		second_mode();
 8001b96:	f7ff fb6b 	bl	8001270 <second_mode>
		break;
 8001b9a:	e008      	b.n	8001bae <update_state+0x4a>
	case THIRD:
		third_mode();
 8001b9c:	f7ff fbfa 	bl	8001394 <third_mode>
		break;
 8001ba0:	e005      	b.n	8001bae <update_state+0x4a>
	case FORTH:
		forth_mode();
 8001ba2:	f7ff fc99 	bl	80014d8 <forth_mode>
		break;
 8001ba6:	e002      	b.n	8001bae <update_state+0x4a>
	case FIFTH:
	case EDITING:
		user_mode();
 8001ba8:	f7ff fd06 	bl	80015b8 <user_mode>
		break;
 8001bac:	bf00      	nop
	}
}
 8001bae:	bf00      	nop
 8001bb0:	bd80      	pop	{r7, pc}
 8001bb2:	bf00      	nop
 8001bb4:	200000a8 	.word	0x200000a8

08001bb8 <MX_GPIO_Init>:
        * Output
        * EVENT_OUT
        * EXTI
*/
void MX_GPIO_Init(void)
{
 8001bb8:	b580      	push	{r7, lr}
 8001bba:	b08a      	sub	sp, #40	@ 0x28
 8001bbc:	af00      	add	r7, sp, #0

  GPIO_InitTypeDef GPIO_InitStruct = {0};
 8001bbe:	f107 0314 	add.w	r3, r7, #20
 8001bc2:	2200      	movs	r2, #0
 8001bc4:	601a      	str	r2, [r3, #0]
 8001bc6:	605a      	str	r2, [r3, #4]
 8001bc8:	609a      	str	r2, [r3, #8]
 8001bca:	60da      	str	r2, [r3, #12]
 8001bcc:	611a      	str	r2, [r3, #16]

  /* GPIO Ports Clock Enable */
  __HAL_RCC_GPIOC_CLK_ENABLE();
 8001bce:	2300      	movs	r3, #0
 8001bd0:	613b      	str	r3, [r7, #16]
 8001bd2:	4b2a      	ldr	r3, [pc, #168]	@ (8001c7c <MX_GPIO_Init+0xc4>)
 8001bd4:	6b1b      	ldr	r3, [r3, #48]	@ 0x30
 8001bd6:	4a29      	ldr	r2, [pc, #164]	@ (8001c7c <MX_GPIO_Init+0xc4>)
 8001bd8:	f043 0304 	orr.w	r3, r3, #4
 8001bdc:	6313      	str	r3, [r2, #48]	@ 0x30
 8001bde:	4b27      	ldr	r3, [pc, #156]	@ (8001c7c <MX_GPIO_Init+0xc4>)
 8001be0:	6b1b      	ldr	r3, [r3, #48]	@ 0x30
 8001be2:	f003 0304 	and.w	r3, r3, #4
 8001be6:	613b      	str	r3, [r7, #16]
 8001be8:	693b      	ldr	r3, [r7, #16]
  __HAL_RCC_GPIOH_CLK_ENABLE();
 8001bea:	2300      	movs	r3, #0
 8001bec:	60fb      	str	r3, [r7, #12]
 8001bee:	4b23      	ldr	r3, [pc, #140]	@ (8001c7c <MX_GPIO_Init+0xc4>)
 8001bf0:	6b1b      	ldr	r3, [r3, #48]	@ 0x30
 8001bf2:	4a22      	ldr	r2, [pc, #136]	@ (8001c7c <MX_GPIO_Init+0xc4>)
 8001bf4:	f043 0380 	orr.w	r3, r3, #128	@ 0x80
 8001bf8:	6313      	str	r3, [r2, #48]	@ 0x30
 8001bfa:	4b20      	ldr	r3, [pc, #128]	@ (8001c7c <MX_GPIO_Init+0xc4>)
 8001bfc:	6b1b      	ldr	r3, [r3, #48]	@ 0x30
 8001bfe:	f003 0380 	and.w	r3, r3, #128	@ 0x80
 8001c02:	60fb      	str	r3, [r7, #12]
 8001c04:	68fb      	ldr	r3, [r7, #12]
  __HAL_RCC_GPIOD_CLK_ENABLE();
 8001c06:	2300      	movs	r3, #0
 8001c08:	60bb      	str	r3, [r7, #8]
 8001c0a:	4b1c      	ldr	r3, [pc, #112]	@ (8001c7c <MX_GPIO_Init+0xc4>)
 8001c0c:	6b1b      	ldr	r3, [r3, #48]	@ 0x30
 8001c0e:	4a1b      	ldr	r2, [pc, #108]	@ (8001c7c <MX_GPIO_Init+0xc4>)
 8001c10:	f043 0308 	orr.w	r3, r3, #8
 8001c14:	6313      	str	r3, [r2, #48]	@ 0x30
 8001c16:	4b19      	ldr	r3, [pc, #100]	@ (8001c7c <MX_GPIO_Init+0xc4>)
 8001c18:	6b1b      	ldr	r3, [r3, #48]	@ 0x30
 8001c1a:	f003 0308 	and.w	r3, r3, #8
 8001c1e:	60bb      	str	r3, [r7, #8]
 8001c20:	68bb      	ldr	r3, [r7, #8]
  __HAL_RCC_GPIOA_CLK_ENABLE();
 8001c22:	2300      	movs	r3, #0
 8001c24:	607b      	str	r3, [r7, #4]
 8001c26:	4b15      	ldr	r3, [pc, #84]	@ (8001c7c <MX_GPIO_Init+0xc4>)
 8001c28:	6b1b      	ldr	r3, [r3, #48]	@ 0x30
 8001c2a:	4a14      	ldr	r2, [pc, #80]	@ (8001c7c <MX_GPIO_Init+0xc4>)
 8001c2c:	f043 0301 	orr.w	r3, r3, #1
 8001c30:	6313      	str	r3, [r2, #48]	@ 0x30
 8001c32:	4b12      	ldr	r3, [pc, #72]	@ (8001c7c <MX_GPIO_Init+0xc4>)
 8001c34:	6b1b      	ldr	r3, [r3, #48]	@ 0x30
 8001c36:	f003 0301 	and.w	r3, r3, #1
 8001c3a:	607b      	str	r3, [r7, #4]
 8001c3c:	687b      	ldr	r3, [r7, #4]
  __HAL_RCC_GPIOB_CLK_ENABLE();
 8001c3e:	2300      	movs	r3, #0
 8001c40:	603b      	str	r3, [r7, #0]
 8001c42:	4b0e      	ldr	r3, [pc, #56]	@ (8001c7c <MX_GPIO_Init+0xc4>)
 8001c44:	6b1b      	ldr	r3, [r3, #48]	@ 0x30
 8001c46:	4a0d      	ldr	r2, [pc, #52]	@ (8001c7c <MX_GPIO_Init+0xc4>)
 8001c48:	f043 0302 	orr.w	r3, r3, #2
 8001c4c:	6313      	str	r3, [r2, #48]	@ 0x30
 8001c4e:	4b0b      	ldr	r3, [pc, #44]	@ (8001c7c <MX_GPIO_Init+0xc4>)
 8001c50:	6b1b      	ldr	r3, [r3, #48]	@ 0x30
 8001c52:	f003 0302 	and.w	r3, r3, #2
 8001c56:	603b      	str	r3, [r7, #0]
 8001c58:	683b      	ldr	r3, [r7, #0]

  /*Configure GPIO pin : PC15 */
  GPIO_InitStruct.Pin = GPIO_PIN_15;
 8001c5a:	f44f 4300 	mov.w	r3, #32768	@ 0x8000
 8001c5e:	617b      	str	r3, [r7, #20]
  GPIO_InitStruct.Mode = GPIO_MODE_INPUT;
 8001c60:	2300      	movs	r3, #0
 8001c62:	61bb      	str	r3, [r7, #24]
  GPIO_InitStruct.Pull = GPIO_NOPULL;
 8001c64:	2300      	movs	r3, #0
 8001c66:	61fb      	str	r3, [r7, #28]
  HAL_GPIO_Init(GPIOC, &GPIO_InitStruct);
 8001c68:	f107 0314 	add.w	r3, r7, #20
 8001c6c:	4619      	mov	r1, r3
 8001c6e:	4804      	ldr	r0, [pc, #16]	@ (8001c80 <MX_GPIO_Init+0xc8>)
 8001c70:	f001 f848 	bl	8002d04 <HAL_GPIO_Init>

}
 8001c74:	bf00      	nop
 8001c76:	3728      	adds	r7, #40	@ 0x28
 8001c78:	46bd      	mov	sp, r7
 8001c7a:	bd80      	pop	{r7, pc}
 8001c7c:	40023800 	.word	0x40023800
 8001c80:	40020800 	.word	0x40020800

08001c84 <MX_I2C1_Init>:

I2C_HandleTypeDef hi2c1;

/* I2C1 init function */
void MX_I2C1_Init(void)
{
 8001c84:	b580      	push	{r7, lr}
 8001c86:	af00      	add	r7, sp, #0
  /* USER CODE END I2C1_Init 0 */

  /* USER CODE BEGIN I2C1_Init 1 */

  /* USER CODE END I2C1_Init 1 */
  hi2c1.Instance = I2C1;
 8001c88:	4b1b      	ldr	r3, [pc, #108]	@ (8001cf8 <MX_I2C1_Init+0x74>)
 8001c8a:	4a1c      	ldr	r2, [pc, #112]	@ (8001cfc <MX_I2C1_Init+0x78>)
 8001c8c:	601a      	str	r2, [r3, #0]
  hi2c1.Init.ClockSpeed = 400000;
 8001c8e:	4b1a      	ldr	r3, [pc, #104]	@ (8001cf8 <MX_I2C1_Init+0x74>)
 8001c90:	4a1b      	ldr	r2, [pc, #108]	@ (8001d00 <MX_I2C1_Init+0x7c>)
 8001c92:	605a      	str	r2, [r3, #4]
  hi2c1.Init.DutyCycle = I2C_DUTYCYCLE_2;
 8001c94:	4b18      	ldr	r3, [pc, #96]	@ (8001cf8 <MX_I2C1_Init+0x74>)
 8001c96:	2200      	movs	r2, #0
 8001c98:	609a      	str	r2, [r3, #8]
  hi2c1.Init.OwnAddress1 = 0;
 8001c9a:	4b17      	ldr	r3, [pc, #92]	@ (8001cf8 <MX_I2C1_Init+0x74>)
 8001c9c:	2200      	movs	r2, #0
 8001c9e:	60da      	str	r2, [r3, #12]
  hi2c1.Init.AddressingMode = I2C_ADDRESSINGMODE_7BIT;
 8001ca0:	4b15      	ldr	r3, [pc, #84]	@ (8001cf8 <MX_I2C1_Init+0x74>)
 8001ca2:	f44f 4280 	mov.w	r2, #16384	@ 0x4000
 8001ca6:	611a      	str	r2, [r3, #16]
  hi2c1.Init.DualAddressMode = I2C_DUALADDRESS_DISABLE;
 8001ca8:	4b13      	ldr	r3, [pc, #76]	@ (8001cf8 <MX_I2C1_Init+0x74>)
 8001caa:	2200      	movs	r2, #0
 8001cac:	615a      	str	r2, [r3, #20]
  hi2c1.Init.OwnAddress2 = 0;
 8001cae:	4b12      	ldr	r3, [pc, #72]	@ (8001cf8 <MX_I2C1_Init+0x74>)
 8001cb0:	2200      	movs	r2, #0
 8001cb2:	619a      	str	r2, [r3, #24]
  hi2c1.Init.GeneralCallMode = I2C_GENERALCALL_DISABLE;
 8001cb4:	4b10      	ldr	r3, [pc, #64]	@ (8001cf8 <MX_I2C1_Init+0x74>)
 8001cb6:	2200      	movs	r2, #0
 8001cb8:	61da      	str	r2, [r3, #28]
  hi2c1.Init.NoStretchMode = I2C_NOSTRETCH_DISABLE;
 8001cba:	4b0f      	ldr	r3, [pc, #60]	@ (8001cf8 <MX_I2C1_Init+0x74>)
 8001cbc:	2200      	movs	r2, #0
 8001cbe:	621a      	str	r2, [r3, #32]
  if (HAL_I2C_Init(&hi2c1) != HAL_OK)
 8001cc0:	480d      	ldr	r0, [pc, #52]	@ (8001cf8 <MX_I2C1_Init+0x74>)
 8001cc2:	f001 f9e3 	bl	800308c <HAL_I2C_Init>
 8001cc6:	4603      	mov	r3, r0
 8001cc8:	2b00      	cmp	r3, #0
 8001cca:	d001      	beq.n	8001cd0 <MX_I2C1_Init+0x4c>
  {
    Error_Handler();
 8001ccc:	f000 fb58 	bl	8002380 <Error_Handler>
  }

  /** Configure Analogue filter
  */
  if (HAL_I2CEx_ConfigAnalogFilter(&hi2c1, I2C_ANALOGFILTER_ENABLE) != HAL_OK)
 8001cd0:	2100      	movs	r1, #0
 8001cd2:	4809      	ldr	r0, [pc, #36]	@ (8001cf8 <MX_I2C1_Init+0x74>)
 8001cd4:	f002 fb2c 	bl	8004330 <HAL_I2CEx_ConfigAnalogFilter>
 8001cd8:	4603      	mov	r3, r0
 8001cda:	2b00      	cmp	r3, #0
 8001cdc:	d001      	beq.n	8001ce2 <MX_I2C1_Init+0x5e>
  {
    Error_Handler();
 8001cde:	f000 fb4f 	bl	8002380 <Error_Handler>
  }

  /** Configure Digital filter
  */
  if (HAL_I2CEx_ConfigDigitalFilter(&hi2c1, 0) != HAL_OK)
 8001ce2:	2100      	movs	r1, #0
 8001ce4:	4804      	ldr	r0, [pc, #16]	@ (8001cf8 <MX_I2C1_Init+0x74>)
 8001ce6:	f002 fb5f 	bl	80043a8 <HAL_I2CEx_ConfigDigitalFilter>
 8001cea:	4603      	mov	r3, r0
 8001cec:	2b00      	cmp	r3, #0
 8001cee:	d001      	beq.n	8001cf4 <MX_I2C1_Init+0x70>
  {
    Error_Handler();
 8001cf0:	f000 fb46 	bl	8002380 <Error_Handler>
  }
  /* USER CODE BEGIN I2C1_Init 2 */

  /* USER CODE END I2C1_Init 2 */

}
 8001cf4:	bf00      	nop
 8001cf6:	bd80      	pop	{r7, pc}
 8001cf8:	20000144 	.word	0x20000144
 8001cfc:	40005400 	.word	0x40005400
 8001d00:	00061a80 	.word	0x00061a80

08001d04 <HAL_I2C_MspInit>:

void HAL_I2C_MspInit(I2C_HandleTypeDef* i2cHandle)
{
 8001d04:	b580      	push	{r7, lr}
 8001d06:	b08a      	sub	sp, #40	@ 0x28
 8001d08:	af00      	add	r7, sp, #0
 8001d0a:	6078      	str	r0, [r7, #4]

  GPIO_InitTypeDef GPIO_InitStruct = {0};
 8001d0c:	f107 0314 	add.w	r3, r7, #20
 8001d10:	2200      	movs	r2, #0
 8001d12:	601a      	str	r2, [r3, #0]
 8001d14:	605a      	str	r2, [r3, #4]
 8001d16:	609a      	str	r2, [r3, #8]
 8001d18:	60da      	str	r2, [r3, #12]
 8001d1a:	611a      	str	r2, [r3, #16]
  if(i2cHandle->Instance==I2C1)
 8001d1c:	687b      	ldr	r3, [r7, #4]
 8001d1e:	681b      	ldr	r3, [r3, #0]
 8001d20:	4a19      	ldr	r2, [pc, #100]	@ (8001d88 <HAL_I2C_MspInit+0x84>)
 8001d22:	4293      	cmp	r3, r2
 8001d24:	d12c      	bne.n	8001d80 <HAL_I2C_MspInit+0x7c>
  {
  /* USER CODE BEGIN I2C1_MspInit 0 */

  /* USER CODE END I2C1_MspInit 0 */

    __HAL_RCC_GPIOB_CLK_ENABLE();
 8001d26:	2300      	movs	r3, #0
 8001d28:	613b      	str	r3, [r7, #16]
 8001d2a:	4b18      	ldr	r3, [pc, #96]	@ (8001d8c <HAL_I2C_MspInit+0x88>)
 8001d2c:	6b1b      	ldr	r3, [r3, #48]	@ 0x30
 8001d2e:	4a17      	ldr	r2, [pc, #92]	@ (8001d8c <HAL_I2C_MspInit+0x88>)
 8001d30:	f043 0302 	orr.w	r3, r3, #2
 8001d34:	6313      	str	r3, [r2, #48]	@ 0x30
 8001d36:	4b15      	ldr	r3, [pc, #84]	@ (8001d8c <HAL_I2C_MspInit+0x88>)
 8001d38:	6b1b      	ldr	r3, [r3, #48]	@ 0x30
 8001d3a:	f003 0302 	and.w	r3, r3, #2
 8001d3e:	613b      	str	r3, [r7, #16]
 8001d40:	693b      	ldr	r3, [r7, #16]
    /**I2C1 GPIO Configuration
    PB8     ------> I2C1_SCL
    PB9     ------> I2C1_SDA
    */
    GPIO_InitStruct.Pin = GPIO_PIN_8|GPIO_PIN_9;
 8001d42:	f44f 7340 	mov.w	r3, #768	@ 0x300
 8001d46:	617b      	str	r3, [r7, #20]
    GPIO_InitStruct.Mode = GPIO_MODE_AF_OD;
 8001d48:	2312      	movs	r3, #18
 8001d4a:	61bb      	str	r3, [r7, #24]
    GPIO_InitStruct.Pull = GPIO_NOPULL;
 8001d4c:	2300      	movs	r3, #0
 8001d4e:	61fb      	str	r3, [r7, #28]
    GPIO_InitStruct.Speed = GPIO_SPEED_FREQ_VERY_HIGH;
 8001d50:	2303      	movs	r3, #3
 8001d52:	623b      	str	r3, [r7, #32]
    GPIO_InitStruct.Alternate = GPIO_AF4_I2C1;
 8001d54:	2304      	movs	r3, #4
 8001d56:	627b      	str	r3, [r7, #36]	@ 0x24
    HAL_GPIO_Init(GPIOB, &GPIO_InitStruct);
 8001d58:	f107 0314 	add.w	r3, r7, #20
 8001d5c:	4619      	mov	r1, r3
 8001d5e:	480c      	ldr	r0, [pc, #48]	@ (8001d90 <HAL_I2C_MspInit+0x8c>)
 8001d60:	f000 ffd0 	bl	8002d04 <HAL_GPIO_Init>

    /* I2C1 clock enable */
    __HAL_RCC_I2C1_CLK_ENABLE();
 8001d64:	2300      	movs	r3, #0
 8001d66:	60fb      	str	r3, [r7, #12]
 8001d68:	4b08      	ldr	r3, [pc, #32]	@ (8001d8c <HAL_I2C_MspInit+0x88>)
 8001d6a:	6c1b      	ldr	r3, [r3, #64]	@ 0x40
 8001d6c:	4a07      	ldr	r2, [pc, #28]	@ (8001d8c <HAL_I2C_MspInit+0x88>)
 8001d6e:	f443 1300 	orr.w	r3, r3, #2097152	@ 0x200000
 8001d72:	6413      	str	r3, [r2, #64]	@ 0x40
 8001d74:	4b05      	ldr	r3, [pc, #20]	@ (8001d8c <HAL_I2C_MspInit+0x88>)
 8001d76:	6c1b      	ldr	r3, [r3, #64]	@ 0x40
 8001d78:	f403 1300 	and.w	r3, r3, #2097152	@ 0x200000
 8001d7c:	60fb      	str	r3, [r7, #12]
 8001d7e:	68fb      	ldr	r3, [r7, #12]
  /* USER CODE BEGIN I2C1_MspInit 1 */

  /* USER CODE END I2C1_MspInit 1 */
  }
}
 8001d80:	bf00      	nop
 8001d82:	3728      	adds	r7, #40	@ 0x28
 8001d84:	46bd      	mov	sp, r7
 8001d86:	bd80      	pop	{r7, pc}
 8001d88:	40005400 	.word	0x40005400
 8001d8c:	40023800 	.word	0x40023800
 8001d90:	40020400 	.word	0x40020400

08001d94 <keyboard_reset>:
bool buttons_state[MATRIX_COUNT] = { 0 };
bool last_buttons_state[MATRIX_COUNT] = { 0 };
bool curr_buttons_state[MATRIX_COUNT] = { 0 };
uint32_t last_p = 0;

void keyboard_reset() {
 8001d94:	b480      	push	{r7}
 8001d96:	b083      	sub	sp, #12
 8001d98:	af00      	add	r7, sp, #0
	for (uint8_t i = 0; i < MATRIX_COUNT; ++i) {
 8001d9a:	2300      	movs	r3, #0
 8001d9c:	71fb      	strb	r3, [r7, #7]
 8001d9e:	e00e      	b.n	8001dbe <keyboard_reset+0x2a>
		buttons_state[i] = 0;
 8001da0:	79fb      	ldrb	r3, [r7, #7]
 8001da2:	4a0c      	ldr	r2, [pc, #48]	@ (8001dd4 <keyboard_reset+0x40>)
 8001da4:	2100      	movs	r1, #0
 8001da6:	54d1      	strb	r1, [r2, r3]
		last_buttons_state[i] = 0;
 8001da8:	79fb      	ldrb	r3, [r7, #7]
 8001daa:	4a0b      	ldr	r2, [pc, #44]	@ (8001dd8 <keyboard_reset+0x44>)
 8001dac:	2100      	movs	r1, #0
 8001dae:	54d1      	strb	r1, [r2, r3]
		curr_buttons_state[i] = 0;
 8001db0:	79fb      	ldrb	r3, [r7, #7]
 8001db2:	4a0a      	ldr	r2, [pc, #40]	@ (8001ddc <keyboard_reset+0x48>)
 8001db4:	2100      	movs	r1, #0
 8001db6:	54d1      	strb	r1, [r2, r3]
	for (uint8_t i = 0; i < MATRIX_COUNT; ++i) {
 8001db8:	79fb      	ldrb	r3, [r7, #7]
 8001dba:	3301      	adds	r3, #1
 8001dbc:	71fb      	strb	r3, [r7, #7]
 8001dbe:	79fb      	ldrb	r3, [r7, #7]
 8001dc0:	2b0b      	cmp	r3, #11
 8001dc2:	d9ed      	bls.n	8001da0 <keyboard_reset+0xc>
	}
}
 8001dc4:	bf00      	nop
 8001dc6:	bf00      	nop
 8001dc8:	370c      	adds	r7, #12
 8001dca:	46bd      	mov	sp, r7
 8001dcc:	f85d 7b04 	ldr.w	r7, [sp], #4
 8001dd0:	4770      	bx	lr
 8001dd2:	bf00      	nop
 8001dd4:	200001fc 	.word	0x200001fc
 8001dd8:	20000208 	.word	0x20000208
 8001ddc:	20000214 	.word	0x20000214

08001de0 <keyboard_init>:

const bool * get_state() {
	return curr_buttons_state;
}

void keyboard_init() {
 8001de0:	b580      	push	{r7, lr}
 8001de2:	b084      	sub	sp, #16
 8001de4:	af04      	add	r7, sp, #16
	while (HAL_I2C_IsDeviceReady(&hi2c1, KEYBOARD_ADDRESS, 3, 1000) == HAL_BUSY) {continue;}
 8001de6:	e000      	b.n	8001dea <keyboard_init+0xa>
 8001de8:	bf00      	nop
 8001dea:	f44f 737a 	mov.w	r3, #1000	@ 0x3e8
 8001dee:	2203      	movs	r2, #3
 8001df0:	21e2      	movs	r1, #226	@ 0xe2
 8001df2:	480a      	ldr	r0, [pc, #40]	@ (8001e1c <keyboard_init+0x3c>)
 8001df4:	f001 fdba 	bl	800396c <HAL_I2C_IsDeviceReady>
 8001df8:	4603      	mov	r3, r0
 8001dfa:	2b02      	cmp	r3, #2
 8001dfc:	d0f4      	beq.n	8001de8 <keyboard_init+0x8>
	HAL_I2C_Mem_Write(
 8001dfe:	230a      	movs	r3, #10
 8001e00:	9302      	str	r3, [sp, #8]
 8001e02:	2301      	movs	r3, #1
 8001e04:	9301      	str	r3, [sp, #4]
 8001e06:	4b06      	ldr	r3, [pc, #24]	@ (8001e20 <keyboard_init+0x40>)
 8001e08:	9300      	str	r3, [sp, #0]
 8001e0a:	2301      	movs	r3, #1
 8001e0c:	2202      	movs	r2, #2
 8001e0e:	21e2      	movs	r1, #226	@ 0xe2
 8001e10:	4802      	ldr	r0, [pc, #8]	@ (8001e1c <keyboard_init+0x3c>)
 8001e12:	f001 fa7f 	bl	8003314 <HAL_I2C_Mem_Write>
		REGISTERS_SIZE,
		&inversion_config,
		1,
		10
	);
}
 8001e16:	bf00      	nop
 8001e18:	46bd      	mov	sp, r7
 8001e1a:	bd80      	pop	{r7, pc}
 8001e1c:	20000144 	.word	0x20000144
 8001e20:	20000024 	.word	0x20000024

08001e24 <update_curr_state>:

static void update_curr_state() {
 8001e24:	b580      	push	{r7, lr}
 8001e26:	b086      	sub	sp, #24
 8001e28:	af04      	add	r7, sp, #16
	for (uint8_t i = 0; i < MATRIX_ROWS; ++i) {
 8001e2a:	2300      	movs	r3, #0
 8001e2c:	71fb      	strb	r3, [r7, #7]
 8001e2e:	e057      	b.n	8001ee0 <update_curr_state+0xbc>
		uint8_t io_config = ~((uint8_t) (1 << i));
 8001e30:	79fb      	ldrb	r3, [r7, #7]
 8001e32:	2201      	movs	r2, #1
 8001e34:	fa02 f303 	lsl.w	r3, r2, r3
 8001e38:	b2db      	uxtb	r3, r3
 8001e3a:	43db      	mvns	r3, r3
 8001e3c:	b2db      	uxtb	r3, r3
 8001e3e:	717b      	strb	r3, [r7, #5]

		HAL_I2C_Mem_Write(
 8001e40:	f44f 737a 	mov.w	r3, #1000	@ 0x3e8
 8001e44:	9302      	str	r3, [sp, #8]
 8001e46:	2301      	movs	r3, #1
 8001e48:	9301      	str	r3, [sp, #4]
 8001e4a:	1d7b      	adds	r3, r7, #5
 8001e4c:	9300      	str	r3, [sp, #0]
 8001e4e:	2301      	movs	r3, #1
 8001e50:	2203      	movs	r2, #3
 8001e52:	21e2      	movs	r1, #226	@ 0xe2
 8001e54:	4826      	ldr	r0, [pc, #152]	@ (8001ef0 <update_curr_state+0xcc>)
 8001e56:	f001 fa5d 	bl	8003314 <HAL_I2C_Mem_Write>
			&io_config,
			1,
			1000
		);

		HAL_I2C_Mem_Write(
 8001e5a:	f44f 737a 	mov.w	r3, #1000	@ 0x3e8
 8001e5e:	9302      	str	r3, [sp, #8]
 8001e60:	2301      	movs	r3, #1
 8001e62:	9301      	str	r3, [sp, #4]
 8001e64:	2300      	movs	r3, #0
 8001e66:	9300      	str	r3, [sp, #0]
 8001e68:	2301      	movs	r3, #1
 8001e6a:	2201      	movs	r2, #1
 8001e6c:	21e2      	movs	r1, #226	@ 0xe2
 8001e6e:	4820      	ldr	r0, [pc, #128]	@ (8001ef0 <update_curr_state+0xcc>)
 8001e70:	f001 fa50 	bl	8003314 <HAL_I2C_Mem_Write>
			(uint8_t) 0x0,
			1,
			1000
		);

		uint8_t data = 0;
 8001e74:	2300      	movs	r3, #0
 8001e76:	713b      	strb	r3, [r7, #4]
		HAL_I2C_Mem_Read(
 8001e78:	f44f 737a 	mov.w	r3, #1000	@ 0x3e8
 8001e7c:	9302      	str	r3, [sp, #8]
 8001e7e:	2301      	movs	r3, #1
 8001e80:	9301      	str	r3, [sp, #4]
 8001e82:	1d3b      	adds	r3, r7, #4
 8001e84:	9300      	str	r3, [sp, #0]
 8001e86:	2301      	movs	r3, #1
 8001e88:	2200      	movs	r2, #0
 8001e8a:	21e2      	movs	r1, #226	@ 0xe2
 8001e8c:	4818      	ldr	r0, [pc, #96]	@ (8001ef0 <update_curr_state+0xcc>)
 8001e8e:	f001 fb3b 	bl	8003508 <HAL_I2C_Mem_Read>
			&data,
			1,
			1000
		);

		data = (data & 0x70) >> 4;
 8001e92:	793b      	ldrb	r3, [r7, #4]
 8001e94:	111b      	asrs	r3, r3, #4
 8001e96:	b2db      	uxtb	r3, r3
 8001e98:	f003 0307 	and.w	r3, r3, #7
 8001e9c:	b2db      	uxtb	r3, r3
 8001e9e:	713b      	strb	r3, [r7, #4]
		for (uint8_t j = 0; j < MATRIX_COLUMNS; ++j) {
 8001ea0:	2300      	movs	r3, #0
 8001ea2:	71bb      	strb	r3, [r7, #6]
 8001ea4:	e016      	b.n	8001ed4 <update_curr_state+0xb0>
			curr_buttons_state[i * MATRIX_COLUMNS + j] = (data & 0x1) == 1;
 8001ea6:	793b      	ldrb	r3, [r7, #4]
 8001ea8:	f003 0101 	and.w	r1, r3, #1
 8001eac:	79fa      	ldrb	r2, [r7, #7]
 8001eae:	4613      	mov	r3, r2
 8001eb0:	005b      	lsls	r3, r3, #1
 8001eb2:	441a      	add	r2, r3
 8001eb4:	79bb      	ldrb	r3, [r7, #6]
 8001eb6:	4413      	add	r3, r2
 8001eb8:	2900      	cmp	r1, #0
 8001eba:	bf14      	ite	ne
 8001ebc:	2201      	movne	r2, #1
 8001ebe:	2200      	moveq	r2, #0
 8001ec0:	b2d1      	uxtb	r1, r2
 8001ec2:	4a0c      	ldr	r2, [pc, #48]	@ (8001ef4 <update_curr_state+0xd0>)
 8001ec4:	54d1      	strb	r1, [r2, r3]
			data = data >> 1;
 8001ec6:	793b      	ldrb	r3, [r7, #4]
 8001ec8:	085b      	lsrs	r3, r3, #1
 8001eca:	b2db      	uxtb	r3, r3
 8001ecc:	713b      	strb	r3, [r7, #4]
		for (uint8_t j = 0; j < MATRIX_COLUMNS; ++j) {
 8001ece:	79bb      	ldrb	r3, [r7, #6]
 8001ed0:	3301      	adds	r3, #1
 8001ed2:	71bb      	strb	r3, [r7, #6]
 8001ed4:	79bb      	ldrb	r3, [r7, #6]
 8001ed6:	2b02      	cmp	r3, #2
 8001ed8:	d9e5      	bls.n	8001ea6 <update_curr_state+0x82>
	for (uint8_t i = 0; i < MATRIX_ROWS; ++i) {
 8001eda:	79fb      	ldrb	r3, [r7, #7]
 8001edc:	3301      	adds	r3, #1
 8001ede:	71fb      	strb	r3, [r7, #7]
 8001ee0:	79fb      	ldrb	r3, [r7, #7]
 8001ee2:	2b03      	cmp	r3, #3
 8001ee4:	d9a4      	bls.n	8001e30 <update_curr_state+0xc>
		}
	}
}
 8001ee6:	bf00      	nop
 8001ee8:	bf00      	nop
 8001eea:	3708      	adds	r7, #8
 8001eec:	46bd      	mov	sp, r7
 8001eee:	bd80      	pop	{r7, pc}
 8001ef0:	20000144 	.word	0x20000144
 8001ef4:	20000214 	.word	0x20000214

08001ef8 <is_all_unpressed>:

static bool is_all_unpressed() {
 8001ef8:	b480      	push	{r7}
 8001efa:	b083      	sub	sp, #12
 8001efc:	af00      	add	r7, sp, #0
	for (uint8_t i = 0; i < MATRIX_COUNT; ++i) {
 8001efe:	2300      	movs	r3, #0
 8001f00:	71fb      	strb	r3, [r7, #7]
 8001f02:	e009      	b.n	8001f18 <is_all_unpressed+0x20>
		if (buttons_state[i]) {
 8001f04:	79fb      	ldrb	r3, [r7, #7]
 8001f06:	4a09      	ldr	r2, [pc, #36]	@ (8001f2c <is_all_unpressed+0x34>)
 8001f08:	5cd3      	ldrb	r3, [r2, r3]
 8001f0a:	2b00      	cmp	r3, #0
 8001f0c:	d001      	beq.n	8001f12 <is_all_unpressed+0x1a>
			return false;
 8001f0e:	2300      	movs	r3, #0
 8001f10:	e006      	b.n	8001f20 <is_all_unpressed+0x28>
	for (uint8_t i = 0; i < MATRIX_COUNT; ++i) {
 8001f12:	79fb      	ldrb	r3, [r7, #7]
 8001f14:	3301      	adds	r3, #1
 8001f16:	71fb      	strb	r3, [r7, #7]
 8001f18:	79fb      	ldrb	r3, [r7, #7]
 8001f1a:	2b0b      	cmp	r3, #11
 8001f1c:	d9f2      	bls.n	8001f04 <is_all_unpressed+0xc>
		}
	}

	return true;
 8001f1e:	2301      	movs	r3, #1
}
 8001f20:	4618      	mov	r0, r3
 8001f22:	370c      	adds	r7, #12
 8001f24:	46bd      	mov	sp, r7
 8001f26:	f85d 7b04 	ldr.w	r7, [sp], #4
 8001f2a:	4770      	bx	lr
 8001f2c:	200001fc 	.word	0x200001fc

08001f30 <is_one_pressed>:

static bool is_one_pressed() {
 8001f30:	b480      	push	{r7}
 8001f32:	b083      	sub	sp, #12
 8001f34:	af00      	add	r7, sp, #0
	bool was_pressed = false;
 8001f36:	2300      	movs	r3, #0
 8001f38:	71fb      	strb	r3, [r7, #7]
	for (uint8_t i = 0; i < MATRIX_COUNT; ++i) {
 8001f3a:	2300      	movs	r3, #0
 8001f3c:	71bb      	strb	r3, [r7, #6]
 8001f3e:	e00e      	b.n	8001f5e <is_one_pressed+0x2e>
		if (buttons_state[i]) {
 8001f40:	79bb      	ldrb	r3, [r7, #6]
 8001f42:	4a0c      	ldr	r2, [pc, #48]	@ (8001f74 <is_one_pressed+0x44>)
 8001f44:	5cd3      	ldrb	r3, [r2, r3]
 8001f46:	2b00      	cmp	r3, #0
 8001f48:	d006      	beq.n	8001f58 <is_one_pressed+0x28>
			if (was_pressed) {
 8001f4a:	79fb      	ldrb	r3, [r7, #7]
 8001f4c:	2b00      	cmp	r3, #0
 8001f4e:	d001      	beq.n	8001f54 <is_one_pressed+0x24>
				return false;
 8001f50:	2300      	movs	r3, #0
 8001f52:	e008      	b.n	8001f66 <is_one_pressed+0x36>
			}

			was_pressed = true;
 8001f54:	2301      	movs	r3, #1
 8001f56:	71fb      	strb	r3, [r7, #7]
	for (uint8_t i = 0; i < MATRIX_COUNT; ++i) {
 8001f58:	79bb      	ldrb	r3, [r7, #6]
 8001f5a:	3301      	adds	r3, #1
 8001f5c:	71bb      	strb	r3, [r7, #6]
 8001f5e:	79bb      	ldrb	r3, [r7, #6]
 8001f60:	2b0b      	cmp	r3, #11
 8001f62:	d9ed      	bls.n	8001f40 <is_one_pressed+0x10>
		}
	}

	return was_pressed;
 8001f64:	79fb      	ldrb	r3, [r7, #7]
}
 8001f66:	4618      	mov	r0, r3
 8001f68:	370c      	adds	r7, #12
 8001f6a:	46bd      	mov	sp, r7
 8001f6c:	f85d 7b04 	ldr.w	r7, [sp], #4
 8001f70:	4770      	bx	lr
 8001f72:	bf00      	nop
 8001f74:	200001fc 	.word	0x200001fc

08001f78 <update_keyboard_state>:

int update_keyboard_state() {
 8001f78:	b590      	push	{r4, r7, lr}
 8001f7a:	b085      	sub	sp, #20
 8001f7c:	af00      	add	r7, sp, #0
	update_curr_state();
 8001f7e:	f7ff ff51 	bl	8001e24 <update_curr_state>

	for (uint8_t i = 0; i < MATRIX_COUNT; ++i) {
 8001f82:	2300      	movs	r3, #0
 8001f84:	73fb      	strb	r3, [r7, #15]
 8001f86:	e017      	b.n	8001fb8 <update_keyboard_state+0x40>
		if (curr_buttons_state[i] != last_buttons_state[i]) {
 8001f88:	7bfb      	ldrb	r3, [r7, #15]
 8001f8a:	4a38      	ldr	r2, [pc, #224]	@ (800206c <update_keyboard_state+0xf4>)
 8001f8c:	5cd2      	ldrb	r2, [r2, r3]
 8001f8e:	7bfb      	ldrb	r3, [r7, #15]
 8001f90:	4937      	ldr	r1, [pc, #220]	@ (8002070 <update_keyboard_state+0xf8>)
 8001f92:	5ccb      	ldrb	r3, [r1, r3]
 8001f94:	429a      	cmp	r2, r3
 8001f96:	d00c      	beq.n	8001fb2 <update_keyboard_state+0x3a>
			last_deb_times[i] = HAL_GetTick();
 8001f98:	7bfc      	ldrb	r4, [r7, #15]
 8001f9a:	f000 fd03 	bl	80029a4 <HAL_GetTick>
 8001f9e:	4603      	mov	r3, r0
 8001fa0:	4a34      	ldr	r2, [pc, #208]	@ (8002074 <update_keyboard_state+0xfc>)
 8001fa2:	f842 3024 	str.w	r3, [r2, r4, lsl #2]
			last_buttons_state[i] = curr_buttons_state[i];
 8001fa6:	7bfa      	ldrb	r2, [r7, #15]
 8001fa8:	7bfb      	ldrb	r3, [r7, #15]
 8001faa:	4930      	ldr	r1, [pc, #192]	@ (800206c <update_keyboard_state+0xf4>)
 8001fac:	5c89      	ldrb	r1, [r1, r2]
 8001fae:	4a30      	ldr	r2, [pc, #192]	@ (8002070 <update_keyboard_state+0xf8>)
 8001fb0:	54d1      	strb	r1, [r2, r3]
	for (uint8_t i = 0; i < MATRIX_COUNT; ++i) {
 8001fb2:	7bfb      	ldrb	r3, [r7, #15]
 8001fb4:	3301      	adds	r3, #1
 8001fb6:	73fb      	strb	r3, [r7, #15]
 8001fb8:	7bfb      	ldrb	r3, [r7, #15]
 8001fba:	2b0b      	cmp	r3, #11
 8001fbc:	d9e4      	bls.n	8001f88 <update_keyboard_state+0x10>
		}
	}

	int pressed_n = -1;
 8001fbe:	f04f 33ff 	mov.w	r3, #4294967295
 8001fc2:	60bb      	str	r3, [r7, #8]

	for (uint8_t i = 0; i < MATRIX_COUNT; ++i) {
 8001fc4:	2300      	movs	r3, #0
 8001fc6:	71fb      	strb	r3, [r7, #7]
 8001fc8:	e028      	b.n	800201c <update_keyboard_state+0xa4>
		if ((HAL_GetTick() - last_deb_times[i]) > DEBOUNCE_DELAY) {
 8001fca:	f000 fceb 	bl	80029a4 <HAL_GetTick>
 8001fce:	4602      	mov	r2, r0
 8001fd0:	79fb      	ldrb	r3, [r7, #7]
 8001fd2:	4928      	ldr	r1, [pc, #160]	@ (8002074 <update_keyboard_state+0xfc>)
 8001fd4:	f851 3023 	ldr.w	r3, [r1, r3, lsl #2]
 8001fd8:	1ad3      	subs	r3, r2, r3
 8001fda:	2b32      	cmp	r3, #50	@ 0x32
 8001fdc:	d91b      	bls.n	8002016 <update_keyboard_state+0x9e>
			if (curr_buttons_state[i] != buttons_state[i]) {
 8001fde:	79fb      	ldrb	r3, [r7, #7]
 8001fe0:	4a22      	ldr	r2, [pc, #136]	@ (800206c <update_keyboard_state+0xf4>)
 8001fe2:	5cd2      	ldrb	r2, [r2, r3]
 8001fe4:	79fb      	ldrb	r3, [r7, #7]
 8001fe6:	4924      	ldr	r1, [pc, #144]	@ (8002078 <update_keyboard_state+0x100>)
 8001fe8:	5ccb      	ldrb	r3, [r1, r3]
 8001fea:	429a      	cmp	r2, r3
 8001fec:	d013      	beq.n	8002016 <update_keyboard_state+0x9e>
				buttons_state[i] = curr_buttons_state[i];
 8001fee:	79fa      	ldrb	r2, [r7, #7]
 8001ff0:	79fb      	ldrb	r3, [r7, #7]
 8001ff2:	491e      	ldr	r1, [pc, #120]	@ (800206c <update_keyboard_state+0xf4>)
 8001ff4:	5c89      	ldrb	r1, [r1, r2]
 8001ff6:	4a20      	ldr	r2, [pc, #128]	@ (8002078 <update_keyboard_state+0x100>)
 8001ff8:	54d1      	strb	r1, [r2, r3]
				last_move_times[i] = HAL_GetTick();
 8001ffa:	79fc      	ldrb	r4, [r7, #7]
 8001ffc:	f000 fcd2 	bl	80029a4 <HAL_GetTick>
 8002000:	4603      	mov	r3, r0
 8002002:	4a1e      	ldr	r2, [pc, #120]	@ (800207c <update_keyboard_state+0x104>)
 8002004:	f842 3024 	str.w	r3, [r2, r4, lsl #2]

				if (buttons_state[i]) {
 8002008:	79fb      	ldrb	r3, [r7, #7]
 800200a:	4a1b      	ldr	r2, [pc, #108]	@ (8002078 <update_keyboard_state+0x100>)
 800200c:	5cd3      	ldrb	r3, [r2, r3]
 800200e:	2b00      	cmp	r3, #0
 8002010:	d001      	beq.n	8002016 <update_keyboard_state+0x9e>
					pressed_n = i;
 8002012:	79fb      	ldrb	r3, [r7, #7]
 8002014:	60bb      	str	r3, [r7, #8]
	for (uint8_t i = 0; i < MATRIX_COUNT; ++i) {
 8002016:	79fb      	ldrb	r3, [r7, #7]
 8002018:	3301      	adds	r3, #1
 800201a:	71fb      	strb	r3, [r7, #7]
 800201c:	79fb      	ldrb	r3, [r7, #7]
 800201e:	2b0b      	cmp	r3, #11
 8002020:	d9d3      	bls.n	8001fca <update_keyboard_state+0x52>
				}
			}
		}
	}

	if (is_one_pressed() && !was_several_buttons_pressed) {
 8002022:	f7ff ff85 	bl	8001f30 <is_one_pressed>
 8002026:	4603      	mov	r3, r0
 8002028:	2b00      	cmp	r3, #0
 800202a:	d008      	beq.n	800203e <update_keyboard_state+0xc6>
 800202c:	4b14      	ldr	r3, [pc, #80]	@ (8002080 <update_keyboard_state+0x108>)
 800202e:	781b      	ldrb	r3, [r3, #0]
 8002030:	f083 0301 	eor.w	r3, r3, #1
 8002034:	b2db      	uxtb	r3, r3
 8002036:	2b00      	cmp	r3, #0
 8002038:	d001      	beq.n	800203e <update_keyboard_state+0xc6>
		return pressed_n;
 800203a:	68bb      	ldr	r3, [r7, #8]
 800203c:	e011      	b.n	8002062 <update_keyboard_state+0xea>
	}

	was_several_buttons_pressed = !is_all_unpressed();
 800203e:	f7ff ff5b 	bl	8001ef8 <is_all_unpressed>
 8002042:	4603      	mov	r3, r0
 8002044:	2b00      	cmp	r3, #0
 8002046:	bf14      	ite	ne
 8002048:	2301      	movne	r3, #1
 800204a:	2300      	moveq	r3, #0
 800204c:	b2db      	uxtb	r3, r3
 800204e:	f083 0301 	eor.w	r3, r3, #1
 8002052:	b2db      	uxtb	r3, r3
 8002054:	f003 0301 	and.w	r3, r3, #1
 8002058:	b2da      	uxtb	r2, r3
 800205a:	4b09      	ldr	r3, [pc, #36]	@ (8002080 <update_keyboard_state+0x108>)
 800205c:	701a      	strb	r2, [r3, #0]

	return -1;
 800205e:	f04f 33ff 	mov.w	r3, #4294967295
}
 8002062:	4618      	mov	r0, r3
 8002064:	3714      	adds	r7, #20
 8002066:	46bd      	mov	sp, r7
 8002068:	bd90      	pop	{r4, r7, pc}
 800206a:	bf00      	nop
 800206c:	20000214 	.word	0x20000214
 8002070:	20000208 	.word	0x20000208
 8002074:	20000198 	.word	0x20000198
 8002078:	200001fc 	.word	0x200001fc
 800207c:	200001c8 	.word	0x200001c8
 8002080:	200001f8 	.word	0x200001f8

08002084 <handle_input>:
#include <stdio.h>
#include "garland.h"

void handle_input(uint8_t input) {
 8002084:	b580      	push	{r7, lr}
 8002086:	b082      	sub	sp, #8
 8002088:	af00      	add	r7, sp, #0
 800208a:	4603      	mov	r3, r0
 800208c:	71fb      	strb	r3, [r7, #7]
	if (!is_editing(input)) {
 800208e:	79fb      	ldrb	r3, [r7, #7]
 8002090:	4618      	mov	r0, r3
 8002092:	f7ff f877 	bl	8001184 <is_editing>
 8002096:	4603      	mov	r3, r0
 8002098:	f083 0301 	eor.w	r3, r3, #1
 800209c:	b2db      	uxtb	r3, r3
 800209e:	2b00      	cmp	r3, #0
 80020a0:	d035      	beq.n	800210e <handle_input+0x8a>
		  switch (input) {
 80020a2:	79fb      	ldrb	r3, [r7, #7]
 80020a4:	2b0b      	cmp	r3, #11
 80020a6:	d82d      	bhi.n	8002104 <handle_input+0x80>
 80020a8:	a201      	add	r2, pc, #4	@ (adr r2, 80020b0 <handle_input+0x2c>)
 80020aa:	f852 f023 	ldr.w	pc, [r2, r3, lsl #2]
 80020ae:	bf00      	nop
 80020b0:	080020e1 	.word	0x080020e1
 80020b4:	08002105 	.word	0x08002105
 80020b8:	080020ed 	.word	0x080020ed
 80020bc:	080020e7 	.word	0x080020e7
 80020c0:	08002105 	.word	0x08002105
 80020c4:	080020f3 	.word	0x080020f3
 80020c8:	08002105 	.word	0x08002105
 80020cc:	080020f9 	.word	0x080020f9
 80020d0:	08002105 	.word	0x08002105
 80020d4:	08002105 	.word	0x08002105
 80020d8:	08002105 	.word	0x08002105
 80020dc:	080020ff 	.word	0x080020ff
		  case 0:
			  next_mode();
 80020e0:	f7ff fc74 	bl	80019cc <next_mode>
			  break;
 80020e4:	e049      	b.n	800217a <handle_input+0xf6>
		  case 3:
			  prev_mode();
 80020e6:	f7ff fcd7 	bl	8001a98 <prev_mode>
			  break;
 80020ea:	e046      	b.n	800217a <handle_input+0xf6>
		  case 2:
			  speed_up();
 80020ec:	f7ff fb8e 	bl	800180c <speed_up>
			  break;
 80020f0:	e043      	b.n	800217a <handle_input+0xf6>
		  case 5:
			  speed_down();
 80020f2:	f7ff fbfd 	bl	80018f0 <speed_down>
			  break;
 80020f6:	e040      	b.n	800217a <handle_input+0xf6>
		  case 7:
			  format_user_mode_info();
 80020f8:	f7fe ff02 	bl	8000f00 <format_user_mode_info>
			  break;
 80020fc:	e03d      	b.n	800217a <handle_input+0xf6>
		  case 11:
			  start_editing();
 80020fe:	f7fe ff2d 	bl	8000f5c <start_editing>
			  break;
 8002102:	e03a      	b.n	800217a <handle_input+0xf6>
		  default:
			  sprintf(info_buf, "Unknown command\r\n");
 8002104:	491f      	ldr	r1, [pc, #124]	@ (8002184 <handle_input+0x100>)
 8002106:	4820      	ldr	r0, [pc, #128]	@ (8002188 <handle_input+0x104>)
 8002108:	f004 fe78 	bl	8006dfc <siprintf>
			  break;
 800210c:	e035      	b.n	800217a <handle_input+0xf6>
		  }
	  } else {
		  switch (input) {
 800210e:	79fb      	ldrb	r3, [r7, #7]
 8002110:	2b0b      	cmp	r3, #11
 8002112:	d82d      	bhi.n	8002170 <handle_input+0xec>
 8002114:	a201      	add	r2, pc, #4	@ (adr r2, 800211c <handle_input+0x98>)
 8002116:	f852 f023 	ldr.w	pc, [r2, r3, lsl #2]
 800211a:	bf00      	nop
 800211c:	0800214d 	.word	0x0800214d
 8002120:	08002171 	.word	0x08002171
 8002124:	08002159 	.word	0x08002159
 8002128:	08002153 	.word	0x08002153
 800212c:	08002171 	.word	0x08002171
 8002130:	0800215f 	.word	0x0800215f
 8002134:	08002171 	.word	0x08002171
 8002138:	08002165 	.word	0x08002165
 800213c:	08002171 	.word	0x08002171
 8002140:	08002171 	.word	0x08002171
 8002144:	08002171 	.word	0x08002171
 8002148:	0800216b 	.word	0x0800216b
		  case 0:
			  e_light_up();
 800214c:	f7fe ff46 	bl	8000fdc <e_light_up>
			  break;
 8002150:	e013      	b.n	800217a <handle_input+0xf6>
		  case 3:
			  e_light_down();
 8002152:	f7fe ff7b 	bl	800104c <e_light_down>
			  break;
 8002156:	e010      	b.n	800217a <handle_input+0xf6>
		  case 2:
			  e_switch_color();
 8002158:	f7fe ffe0 	bl	800111c <e_switch_color>
			  break;
 800215c:	e00d      	b.n	800217a <handle_input+0xf6>
		  case 5:
			  e_switch_seq();
 800215e:	f7fe ffab 	bl	80010b8 <e_switch_seq>
			  break;
 8002162:	e00a      	b.n	800217a <handle_input+0xf6>
		  case 7:
			  format_user_mode_info();
 8002164:	f7fe fecc 	bl	8000f00 <format_user_mode_info>
			  break;
 8002168:	e007      	b.n	800217a <handle_input+0xf6>
		  case 11:
			  finish_editing();
 800216a:	f7fe ff17 	bl	8000f9c <finish_editing>
			  break;
 800216e:	e004      	b.n	800217a <handle_input+0xf6>
		  default:
			  sprintf(info_buf, "Unknown command\r\n");
 8002170:	4904      	ldr	r1, [pc, #16]	@ (8002184 <handle_input+0x100>)
 8002172:	4805      	ldr	r0, [pc, #20]	@ (8002188 <handle_input+0x104>)
 8002174:	f004 fe42 	bl	8006dfc <siprintf>
			  break;
 8002178:	bf00      	nop
		  }
	  }
}
 800217a:	bf00      	nop
 800217c:	3708      	adds	r7, #8
 800217e:	46bd      	mov	sp, r7
 8002180:	bd80      	pop	{r7, pc}
 8002182:	bf00      	nop
 8002184:	08007868 	.word	0x08007868
 8002188:	200000c0 	.word	0x200000c0

0800218c <print_buf>:
/* USER CODE END PFP */

/* Private user code ---------------------------------------------------------*/
/* USER CODE BEGIN 0 */

void print_buf() {
 800218c:	b580      	push	{r7, lr}
 800218e:	af00      	add	r7, sp, #0
	HAL_UART_Transmit(&huart6, (uint8_t *) &info_buf, strlen(info_buf), 10);
 8002190:	4805      	ldr	r0, [pc, #20]	@ (80021a8 <print_buf+0x1c>)
 8002192:	f7fe f82d 	bl	80001f0 <strlen>
 8002196:	4603      	mov	r3, r0
 8002198:	b29a      	uxth	r2, r3
 800219a:	230a      	movs	r3, #10
 800219c:	4902      	ldr	r1, [pc, #8]	@ (80021a8 <print_buf+0x1c>)
 800219e:	4803      	ldr	r0, [pc, #12]	@ (80021ac <print_buf+0x20>)
 80021a0:	f003 fe64 	bl	8005e6c <HAL_UART_Transmit>
}
 80021a4:	bf00      	nop
 80021a6:	bd80      	pop	{r7, pc}
 80021a8:	200000c0 	.word	0x200000c0
 80021ac:	200002b4 	.word	0x200002b4

080021b0 <main>:
/**
  * @brief  The application entry point.
  * @retval int
  */
int main(void)
{
 80021b0:	b580      	push	{r7, lr}
 80021b2:	b086      	sub	sp, #24
 80021b4:	af00      	add	r7, sp, #0
  /* USER CODE END 1 */

  /* MCU Configuration--------------------------------------------------------*/

  /* Reset of all peripherals, Initializes the Flash interface and the Systick. */
  HAL_Init();
 80021b6:	f000 fb8f 	bl	80028d8 <HAL_Init>
  /* USER CODE BEGIN Init */

  /* USER CODE END Init */

  /* Configure the system clock */
  SystemClock_Config();
 80021ba:	f000 f86f 	bl	800229c <SystemClock_Config>
  /* USER CODE BEGIN SysInit */

  /* USER CODE END SysInit */

  /* Initialize all configured peripherals */
  MX_GPIO_Init();
 80021be:	f7ff fcfb 	bl	8001bb8 <MX_GPIO_Init>
  MX_TIM4_Init();
 80021c2:	f000 f997 	bl	80024f4 <MX_TIM4_Init>
  MX_USART6_UART_Init();
 80021c6:	f000 fae3 	bl	8002790 <MX_USART6_UART_Init>
  MX_TIM6_Init();
 80021ca:	f000 fa1f 	bl	800260c <MX_TIM6_Init>
  MX_I2C1_Init();
 80021ce:	f7ff fd59 	bl	8001c84 <MX_I2C1_Init>

  /* USER CODE END 2 */

  /* Infinite loop */
  /* USER CODE BEGIN WHILE */
  HAL_TIM_PWM_Start(&htim4, TIM_CHANNEL_2);
 80021d2:	2104      	movs	r1, #4
 80021d4:	482b      	ldr	r0, [pc, #172]	@ (8002284 <main+0xd4>)
 80021d6:	f002 fee9 	bl	8004fac <HAL_TIM_PWM_Start>
  HAL_TIM_PWM_Start(&htim4, TIM_CHANNEL_3);
 80021da:	2108      	movs	r1, #8
 80021dc:	4829      	ldr	r0, [pc, #164]	@ (8002284 <main+0xd4>)
 80021de:	f002 fee5 	bl	8004fac <HAL_TIM_PWM_Start>
  HAL_TIM_PWM_Start(&htim4, TIM_CHANNEL_4);
 80021e2:	210c      	movs	r1, #12
 80021e4:	4827      	ldr	r0, [pc, #156]	@ (8002284 <main+0xd4>)
 80021e6:	f002 fee1 	bl	8004fac <HAL_TIM_PWM_Start>
  HAL_TIM_Base_Start_IT(&htim6);
 80021ea:	4827      	ldr	r0, [pc, #156]	@ (8002288 <main+0xd8>)
 80021ec:	f002 fe14 	bl	8004e18 <HAL_TIM_Base_Start_IT>

  uart_buf buffer;
  uart_buf_reset(&buffer);
 80021f0:	463b      	mov	r3, r7
 80021f2:	4618      	mov	r0, r3
 80021f4:	f000 fab8 	bl	8002768 <uart_buf_reset>

  keyboard_init();
 80021f8:	f7ff fdf2 	bl	8001de0 <keyboard_init>

  bool debug_mode = false;
 80021fc:	2300      	movs	r3, #0
 80021fe:	75fb      	strb	r3, [r7, #23]
  while (1)
  {
	  if (update_button_state() == 1) {
 8002200:	f7fe fe12 	bl	8000e28 <update_button_state>
 8002204:	4603      	mov	r3, r0
 8002206:	2b01      	cmp	r3, #1
 8002208:	d11e      	bne.n	8002248 <main+0x98>
		  debug_mode = !debug_mode;
 800220a:	7dfb      	ldrb	r3, [r7, #23]
 800220c:	2b00      	cmp	r3, #0
 800220e:	bf14      	ite	ne
 8002210:	2301      	movne	r3, #1
 8002212:	2300      	moveq	r3, #0
 8002214:	b2db      	uxtb	r3, r3
 8002216:	f083 0301 	eor.w	r3, r3, #1
 800221a:	b2db      	uxtb	r3, r3
 800221c:	75fb      	strb	r3, [r7, #23]
 800221e:	7dfb      	ldrb	r3, [r7, #23]
 8002220:	f003 0301 	and.w	r3, r3, #1
 8002224:	75fb      	strb	r3, [r7, #23]
		  if (debug_mode) {
 8002226:	7dfb      	ldrb	r3, [r7, #23]
 8002228:	2b00      	cmp	r3, #0
 800222a:	d006      	beq.n	800223a <main+0x8a>
			  keyboard_reset();
 800222c:	f7ff fdb2 	bl	8001d94 <keyboard_reset>
			  sprintf(info_buf, "DEBUG MODE ENABLED\r\n");
 8002230:	4916      	ldr	r1, [pc, #88]	@ (800228c <main+0xdc>)
 8002232:	4817      	ldr	r0, [pc, #92]	@ (8002290 <main+0xe0>)
 8002234:	f004 fde2 	bl	8006dfc <siprintf>
 8002238:	e003      	b.n	8002242 <main+0x92>
		  } else {
			  sprintf(info_buf, "DEBUG MODE DISABLED\r\n");
 800223a:	4916      	ldr	r1, [pc, #88]	@ (8002294 <main+0xe4>)
 800223c:	4814      	ldr	r0, [pc, #80]	@ (8002290 <main+0xe0>)
 800223e:	f004 fddd 	bl	8006dfc <siprintf>
		  }
		  print_buf(info_buf);
 8002242:	4813      	ldr	r0, [pc, #76]	@ (8002290 <main+0xe0>)
 8002244:	f7ff ffa2 	bl	800218c <print_buf>
	  }

	  int pressed = update_keyboard_state();
 8002248:	f7ff fe96 	bl	8001f78 <update_keyboard_state>
 800224c:	6138      	str	r0, [r7, #16]
	  if (pressed >= 0) {
 800224e:	693b      	ldr	r3, [r7, #16]
 8002250:	2b00      	cmp	r3, #0
 8002252:	dbd5      	blt.n	8002200 <main+0x50>
		  if (debug_mode) {
 8002254:	7dfb      	ldrb	r3, [r7, #23]
 8002256:	2b00      	cmp	r3, #0
 8002258:	d00a      	beq.n	8002270 <main+0xc0>
			  sprintf(info_buf, "PRESSED: %d\r\n", pressed + 1);
 800225a:	693b      	ldr	r3, [r7, #16]
 800225c:	3301      	adds	r3, #1
 800225e:	461a      	mov	r2, r3
 8002260:	490d      	ldr	r1, [pc, #52]	@ (8002298 <main+0xe8>)
 8002262:	480b      	ldr	r0, [pc, #44]	@ (8002290 <main+0xe0>)
 8002264:	f004 fdca 	bl	8006dfc <siprintf>
			  print_buf(info_buf);
 8002268:	4809      	ldr	r0, [pc, #36]	@ (8002290 <main+0xe0>)
 800226a:	f7ff ff8f 	bl	800218c <print_buf>
 800226e:	e7c7      	b.n	8002200 <main+0x50>
		  } else {
			  handle_input(pressed);
 8002270:	693b      	ldr	r3, [r7, #16]
 8002272:	b2db      	uxtb	r3, r3
 8002274:	4618      	mov	r0, r3
 8002276:	f7ff ff05 	bl	8002084 <handle_input>
			  print_buf(info_buf);
 800227a:	4805      	ldr	r0, [pc, #20]	@ (8002290 <main+0xe0>)
 800227c:	f7ff ff86 	bl	800218c <print_buf>
  {
 8002280:	e7be      	b.n	8002200 <main+0x50>
 8002282:	bf00      	nop
 8002284:	20000224 	.word	0x20000224
 8002288:	2000026c 	.word	0x2000026c
 800228c:	0800787c 	.word	0x0800787c
 8002290:	200000c0 	.word	0x200000c0
 8002294:	08007894 	.word	0x08007894
 8002298:	080078ac 	.word	0x080078ac

0800229c <SystemClock_Config>:
/**
  * @brief System Clock Configuration
  * @retval None
  */
void SystemClock_Config(void)
{
 800229c:	b580      	push	{r7, lr}
 800229e:	b094      	sub	sp, #80	@ 0x50
 80022a0:	af00      	add	r7, sp, #0
  RCC_OscInitTypeDef RCC_OscInitStruct = {0};
 80022a2:	f107 0320 	add.w	r3, r7, #32
 80022a6:	2230      	movs	r2, #48	@ 0x30
 80022a8:	2100      	movs	r1, #0
 80022aa:	4618      	mov	r0, r3
 80022ac:	f004 fdc8 	bl	8006e40 <memset>
  RCC_ClkInitTypeDef RCC_ClkInitStruct = {0};
 80022b0:	f107 030c 	add.w	r3, r7, #12
 80022b4:	2200      	movs	r2, #0
 80022b6:	601a      	str	r2, [r3, #0]
 80022b8:	605a      	str	r2, [r3, #4]
 80022ba:	609a      	str	r2, [r3, #8]
 80022bc:	60da      	str	r2, [r3, #12]
 80022be:	611a      	str	r2, [r3, #16]

  /** Configure the main internal regulator output voltage
  */
  __HAL_RCC_PWR_CLK_ENABLE();
 80022c0:	2300      	movs	r3, #0
 80022c2:	60bb      	str	r3, [r7, #8]
 80022c4:	4b2c      	ldr	r3, [pc, #176]	@ (8002378 <SystemClock_Config+0xdc>)
 80022c6:	6c1b      	ldr	r3, [r3, #64]	@ 0x40
 80022c8:	4a2b      	ldr	r2, [pc, #172]	@ (8002378 <SystemClock_Config+0xdc>)
 80022ca:	f043 5380 	orr.w	r3, r3, #268435456	@ 0x10000000
 80022ce:	6413      	str	r3, [r2, #64]	@ 0x40
 80022d0:	4b29      	ldr	r3, [pc, #164]	@ (8002378 <SystemClock_Config+0xdc>)
 80022d2:	6c1b      	ldr	r3, [r3, #64]	@ 0x40
 80022d4:	f003 5380 	and.w	r3, r3, #268435456	@ 0x10000000
 80022d8:	60bb      	str	r3, [r7, #8]
 80022da:	68bb      	ldr	r3, [r7, #8]
  __HAL_PWR_VOLTAGESCALING_CONFIG(PWR_REGULATOR_VOLTAGE_SCALE3);
 80022dc:	2300      	movs	r3, #0
 80022de:	607b      	str	r3, [r7, #4]
 80022e0:	4b26      	ldr	r3, [pc, #152]	@ (800237c <SystemClock_Config+0xe0>)
 80022e2:	681b      	ldr	r3, [r3, #0]
 80022e4:	f423 4340 	bic.w	r3, r3, #49152	@ 0xc000
 80022e8:	4a24      	ldr	r2, [pc, #144]	@ (800237c <SystemClock_Config+0xe0>)
 80022ea:	f443 4380 	orr.w	r3, r3, #16384	@ 0x4000
 80022ee:	6013      	str	r3, [r2, #0]
 80022f0:	4b22      	ldr	r3, [pc, #136]	@ (800237c <SystemClock_Config+0xe0>)
 80022f2:	681b      	ldr	r3, [r3, #0]
 80022f4:	f403 4340 	and.w	r3, r3, #49152	@ 0xc000
 80022f8:	607b      	str	r3, [r7, #4]
 80022fa:	687b      	ldr	r3, [r7, #4]

  /** Initializes the RCC Oscillators according to the specified parameters
  * in the RCC_OscInitTypeDef structure.
  */
  RCC_OscInitStruct.OscillatorType = RCC_OSCILLATORTYPE_HSE;
 80022fc:	2301      	movs	r3, #1
 80022fe:	623b      	str	r3, [r7, #32]
  RCC_OscInitStruct.HSEState = RCC_HSE_ON;
 8002300:	f44f 3380 	mov.w	r3, #65536	@ 0x10000
 8002304:	627b      	str	r3, [r7, #36]	@ 0x24
  RCC_OscInitStruct.PLL.PLLState = RCC_PLL_ON;
 8002306:	2302      	movs	r3, #2
 8002308:	63bb      	str	r3, [r7, #56]	@ 0x38
  RCC_OscInitStruct.PLL.PLLSource = RCC_PLLSOURCE_HSE;
 800230a:	f44f 0380 	mov.w	r3, #4194304	@ 0x400000
 800230e:	63fb      	str	r3, [r7, #60]	@ 0x3c
  RCC_OscInitStruct.PLL.PLLM = 15;
 8002310:	230f      	movs	r3, #15
 8002312:	643b      	str	r3, [r7, #64]	@ 0x40
  RCC_OscInitStruct.PLL.PLLN = 108;
 8002314:	236c      	movs	r3, #108	@ 0x6c
 8002316:	647b      	str	r3, [r7, #68]	@ 0x44
  RCC_OscInitStruct.PLL.PLLP = RCC_PLLP_DIV2;
 8002318:	2302      	movs	r3, #2
 800231a:	64bb      	str	r3, [r7, #72]	@ 0x48
  RCC_OscInitStruct.PLL.PLLQ = 4;
 800231c:	2304      	movs	r3, #4
 800231e:	64fb      	str	r3, [r7, #76]	@ 0x4c
  if (HAL_RCC_OscConfig(&RCC_OscInitStruct) != HAL_OK)
 8002320:	f107 0320 	add.w	r3, r7, #32
 8002324:	4618      	mov	r0, r3
 8002326:	f002 f8cf 	bl	80044c8 <HAL_RCC_OscConfig>
 800232a:	4603      	mov	r3, r0
 800232c:	2b00      	cmp	r3, #0
 800232e:	d001      	beq.n	8002334 <SystemClock_Config+0x98>
  {
    Error_Handler();
 8002330:	f000 f826 	bl	8002380 <Error_Handler>
  }

  /** Activate the Over-Drive mode
  */
  if (HAL_PWREx_EnableOverDrive() != HAL_OK)
 8002334:	f002 f878 	bl	8004428 <HAL_PWREx_EnableOverDrive>
 8002338:	4603      	mov	r3, r0
 800233a:	2b00      	cmp	r3, #0
 800233c:	d001      	beq.n	8002342 <SystemClock_Config+0xa6>
  {
    Error_Handler();
 800233e:	f000 f81f 	bl	8002380 <Error_Handler>
  }

  /** Initializes the CPU, AHB and APB buses clocks
  */
  RCC_ClkInitStruct.ClockType = RCC_CLOCKTYPE_HCLK|RCC_CLOCKTYPE_SYSCLK
 8002342:	230f      	movs	r3, #15
 8002344:	60fb      	str	r3, [r7, #12]
                              |RCC_CLOCKTYPE_PCLK1|RCC_CLOCKTYPE_PCLK2;
  RCC_ClkInitStruct.SYSCLKSource = RCC_SYSCLKSOURCE_PLLCLK;
 8002346:	2302      	movs	r3, #2
 8002348:	613b      	str	r3, [r7, #16]
  RCC_ClkInitStruct.AHBCLKDivider = RCC_SYSCLK_DIV1;
 800234a:	2300      	movs	r3, #0
 800234c:	617b      	str	r3, [r7, #20]
  RCC_ClkInitStruct.APB1CLKDivider = RCC_HCLK_DIV2;
 800234e:	f44f 5380 	mov.w	r3, #4096	@ 0x1000
 8002352:	61bb      	str	r3, [r7, #24]
  RCC_ClkInitStruct.APB2CLKDivider = RCC_HCLK_DIV2;
 8002354:	f44f 5380 	mov.w	r3, #4096	@ 0x1000
 8002358:	61fb      	str	r3, [r7, #28]

  if (HAL_RCC_ClockConfig(&RCC_ClkInitStruct, FLASH_LATENCY_2) != HAL_OK)
 800235a:	f107 030c 	add.w	r3, r7, #12
 800235e:	2102      	movs	r1, #2
 8002360:	4618      	mov	r0, r3
 8002362:	f002 fb29 	bl	80049b8 <HAL_RCC_ClockConfig>
 8002366:	4603      	mov	r3, r0
 8002368:	2b00      	cmp	r3, #0
 800236a:	d001      	beq.n	8002370 <SystemClock_Config+0xd4>
  {
    Error_Handler();
 800236c:	f000 f808 	bl	8002380 <Error_Handler>
  }
}
 8002370:	bf00      	nop
 8002372:	3750      	adds	r7, #80	@ 0x50
 8002374:	46bd      	mov	sp, r7
 8002376:	bd80      	pop	{r7, pc}
 8002378:	40023800 	.word	0x40023800
 800237c:	40007000 	.word	0x40007000

08002380 <Error_Handler>:
/**
  * @brief  This function is executed in case of error occurrence.
  * @retval None
  */
void Error_Handler(void)
{
 8002380:	b480      	push	{r7}
 8002382:	af00      	add	r7, sp, #0
  __ASM volatile ("cpsid i" : : : "memory");
 8002384:	b672      	cpsid	i
}
 8002386:	bf00      	nop
  /* USER CODE BEGIN Error_Handler_Debug */
  /* User can add his own implementation to report the HAL error return state */
  __disable_irq();
  while (1)
 8002388:	bf00      	nop
 800238a:	e7fd      	b.n	8002388 <Error_Handler+0x8>

0800238c <HAL_MspInit>:
/* USER CODE END 0 */
/**
  * Initializes the Global MSP.
  */
void HAL_MspInit(void)
{
 800238c:	b480      	push	{r7}
 800238e:	b083      	sub	sp, #12
 8002390:	af00      	add	r7, sp, #0

  /* USER CODE BEGIN MspInit 0 */

  /* USER CODE END MspInit 0 */

  __HAL_RCC_SYSCFG_CLK_ENABLE();
 8002392:	2300      	movs	r3, #0
 8002394:	607b      	str	r3, [r7, #4]
 8002396:	4b10      	ldr	r3, [pc, #64]	@ (80023d8 <HAL_MspInit+0x4c>)
 8002398:	6c5b      	ldr	r3, [r3, #68]	@ 0x44
 800239a:	4a0f      	ldr	r2, [pc, #60]	@ (80023d8 <HAL_MspInit+0x4c>)
 800239c:	f443 4380 	orr.w	r3, r3, #16384	@ 0x4000
 80023a0:	6453      	str	r3, [r2, #68]	@ 0x44
 80023a2:	4b0d      	ldr	r3, [pc, #52]	@ (80023d8 <HAL_MspInit+0x4c>)
 80023a4:	6c5b      	ldr	r3, [r3, #68]	@ 0x44
 80023a6:	f403 4380 	and.w	r3, r3, #16384	@ 0x4000
 80023aa:	607b      	str	r3, [r7, #4]
 80023ac:	687b      	ldr	r3, [r7, #4]
  __HAL_RCC_PWR_CLK_ENABLE();
 80023ae:	2300      	movs	r3, #0
 80023b0:	603b      	str	r3, [r7, #0]
 80023b2:	4b09      	ldr	r3, [pc, #36]	@ (80023d8 <HAL_MspInit+0x4c>)
 80023b4:	6c1b      	ldr	r3, [r3, #64]	@ 0x40
 80023b6:	4a08      	ldr	r2, [pc, #32]	@ (80023d8 <HAL_MspInit+0x4c>)
 80023b8:	f043 5380 	orr.w	r3, r3, #268435456	@ 0x10000000
 80023bc:	6413      	str	r3, [r2, #64]	@ 0x40
 80023be:	4b06      	ldr	r3, [pc, #24]	@ (80023d8 <HAL_MspInit+0x4c>)
 80023c0:	6c1b      	ldr	r3, [r3, #64]	@ 0x40
 80023c2:	f003 5380 	and.w	r3, r3, #268435456	@ 0x10000000
 80023c6:	603b      	str	r3, [r7, #0]
 80023c8:	683b      	ldr	r3, [r7, #0]
  /* System interrupt init*/

  /* USER CODE BEGIN MspInit 1 */

  /* USER CODE END MspInit 1 */
}
 80023ca:	bf00      	nop
 80023cc:	370c      	adds	r7, #12
 80023ce:	46bd      	mov	sp, r7
 80023d0:	f85d 7b04 	ldr.w	r7, [sp], #4
 80023d4:	4770      	bx	lr
 80023d6:	bf00      	nop
 80023d8:	40023800 	.word	0x40023800

080023dc <NMI_Handler>:
/******************************************************************************/
/**
  * @brief This function handles Non maskable interrupt.
  */
void NMI_Handler(void)
{
 80023dc:	b480      	push	{r7}
 80023de:	af00      	add	r7, sp, #0
  /* USER CODE BEGIN NonMaskableInt_IRQn 0 */

  /* USER CODE END NonMaskableInt_IRQn 0 */
  /* USER CODE BEGIN NonMaskableInt_IRQn 1 */
   while (1)
 80023e0:	bf00      	nop
 80023e2:	e7fd      	b.n	80023e0 <NMI_Handler+0x4>

080023e4 <HardFault_Handler>:

/**
  * @brief This function handles Hard fault interrupt.
  */
void HardFault_Handler(void)
{
 80023e4:	b480      	push	{r7}
 80023e6:	af00      	add	r7, sp, #0
  /* USER CODE BEGIN HardFault_IRQn 0 */

  /* USER CODE END HardFault_IRQn 0 */
  while (1)
 80023e8:	bf00      	nop
 80023ea:	e7fd      	b.n	80023e8 <HardFault_Handler+0x4>

080023ec <MemManage_Handler>:

/**
  * @brief This function handles Memory management fault.
  */
void MemManage_Handler(void)
{
 80023ec:	b480      	push	{r7}
 80023ee:	af00      	add	r7, sp, #0
  /* USER CODE BEGIN MemoryManagement_IRQn 0 */

  /* USER CODE END MemoryManagement_IRQn 0 */
  while (1)
 80023f0:	bf00      	nop
 80023f2:	e7fd      	b.n	80023f0 <MemManage_Handler+0x4>

080023f4 <BusFault_Handler>:

/**
  * @brief This function handles Pre-fetch fault, memory access fault.
  */
void BusFault_Handler(void)
{
 80023f4:	b480      	push	{r7}
 80023f6:	af00      	add	r7, sp, #0
  /* USER CODE BEGIN BusFault_IRQn 0 */

  /* USER CODE END BusFault_IRQn 0 */
  while (1)
 80023f8:	bf00      	nop
 80023fa:	e7fd      	b.n	80023f8 <BusFault_Handler+0x4>

080023fc <UsageFault_Handler>:

/**
  * @brief This function handles Undefined instruction or illegal state.
  */
void UsageFault_Handler(void)
{
 80023fc:	b480      	push	{r7}
 80023fe:	af00      	add	r7, sp, #0
  /* USER CODE BEGIN UsageFault_IRQn 0 */

  /* USER CODE END UsageFault_IRQn 0 */
  while (1)
 8002400:	bf00      	nop
 8002402:	e7fd      	b.n	8002400 <UsageFault_Handler+0x4>

08002404 <SVC_Handler>:

/**
  * @brief This function handles System service call via SWI instruction.
  */
void SVC_Handler(void)
{
 8002404:	b480      	push	{r7}
 8002406:	af00      	add	r7, sp, #0

  /* USER CODE END SVCall_IRQn 0 */
  /* USER CODE BEGIN SVCall_IRQn 1 */

  /* USER CODE END SVCall_IRQn 1 */
}
 8002408:	bf00      	nop
 800240a:	46bd      	mov	sp, r7
 800240c:	f85d 7b04 	ldr.w	r7, [sp], #4
 8002410:	4770      	bx	lr

08002412 <DebugMon_Handler>:

/**
  * @brief This function handles Debug monitor.
  */
void DebugMon_Handler(void)
{
 8002412:	b480      	push	{r7}
 8002414:	af00      	add	r7, sp, #0

  /* USER CODE END DebugMonitor_IRQn 0 */
  /* USER CODE BEGIN DebugMonitor_IRQn 1 */

  /* USER CODE END DebugMonitor_IRQn 1 */
}
 8002416:	bf00      	nop
 8002418:	46bd      	mov	sp, r7
 800241a:	f85d 7b04 	ldr.w	r7, [sp], #4
 800241e:	4770      	bx	lr

08002420 <PendSV_Handler>:

/**
  * @brief This function handles Pendable request for system service.
  */
void PendSV_Handler(void)
{
 8002420:	b480      	push	{r7}
 8002422:	af00      	add	r7, sp, #0

  /* USER CODE END PendSV_IRQn 0 */
  /* USER CODE BEGIN PendSV_IRQn 1 */

  /* USER CODE END PendSV_IRQn 1 */
}
 8002424:	bf00      	nop
 8002426:	46bd      	mov	sp, r7
 8002428:	f85d 7b04 	ldr.w	r7, [sp], #4
 800242c:	4770      	bx	lr

0800242e <SysTick_Handler>:

/**
  * @brief This function handles System tick timer.
  */
void SysTick_Handler(void)
{
 800242e:	b580      	push	{r7, lr}
 8002430:	af00      	add	r7, sp, #0
  /* USER CODE BEGIN SysTick_IRQn 0 */

  /* USER CODE END SysTick_IRQn 0 */
  HAL_IncTick();
 8002432:	f000 faa3 	bl	800297c <HAL_IncTick>
  /* USER CODE BEGIN SysTick_IRQn 1 */

  /* USER CODE END SysTick_IRQn 1 */
}
 8002436:	bf00      	nop
 8002438:	bd80      	pop	{r7, pc}
	...

0800243c <TIM6_DAC_IRQHandler>:

/**
  * @brief This function handles TIM6 global interrupt, DAC1 and DAC2 underrun error interrupts.
  */
void TIM6_DAC_IRQHandler(void)
{
 800243c:	b580      	push	{r7, lr}
 800243e:	af00      	add	r7, sp, #0
  /* USER CODE BEGIN TIM6_DAC_IRQn 0 */

  /* USER CODE END TIM6_DAC_IRQn 0 */
  HAL_TIM_IRQHandler(&htim6);
 8002440:	4802      	ldr	r0, [pc, #8]	@ (800244c <TIM6_DAC_IRQHandler+0x10>)
 8002442:	f002 fe7b 	bl	800513c <HAL_TIM_IRQHandler>
  /* USER CODE BEGIN TIM6_DAC_IRQn 1 */

  /* USER CODE END TIM6_DAC_IRQn 1 */
}
 8002446:	bf00      	nop
 8002448:	bd80      	pop	{r7, pc}
 800244a:	bf00      	nop
 800244c:	2000026c 	.word	0x2000026c

08002450 <USART6_IRQHandler>:

/**
  * @brief This function handles USART6 global interrupt.
  */
void USART6_IRQHandler(void)
{
 8002450:	b580      	push	{r7, lr}
 8002452:	af00      	add	r7, sp, #0
  /* USER CODE BEGIN USART6_IRQn 0 */

  /* USER CODE END USART6_IRQn 0 */
  HAL_UART_IRQHandler(&huart6);
 8002454:	4802      	ldr	r0, [pc, #8]	@ (8002460 <USART6_IRQHandler+0x10>)
 8002456:	f003 fd95 	bl	8005f84 <HAL_UART_IRQHandler>
  /* USER CODE BEGIN USART6_IRQn 1 */

  /* USER CODE END USART6_IRQn 1 */
}
 800245a:	bf00      	nop
 800245c:	bd80      	pop	{r7, pc}
 800245e:	bf00      	nop
 8002460:	200002b4 	.word	0x200002b4

08002464 <_sbrk>:
 *
 * @param incr Memory size
 * @return Pointer to allocated memory
 */
void *_sbrk(ptrdiff_t incr)
{
 8002464:	b580      	push	{r7, lr}
 8002466:	b086      	sub	sp, #24
 8002468:	af00      	add	r7, sp, #0
 800246a:	6078      	str	r0, [r7, #4]
  extern uint8_t _end; /* Symbol defined in the linker script */
  extern uint8_t _estack; /* Symbol defined in the linker script */
  extern uint32_t _Min_Stack_Size; /* Symbol defined in the linker script */
  const uint32_t stack_limit = (uint32_t)&_estack - (uint32_t)&_Min_Stack_Size;
 800246c:	4a14      	ldr	r2, [pc, #80]	@ (80024c0 <_sbrk+0x5c>)
 800246e:	4b15      	ldr	r3, [pc, #84]	@ (80024c4 <_sbrk+0x60>)
 8002470:	1ad3      	subs	r3, r2, r3
 8002472:	617b      	str	r3, [r7, #20]
  const uint8_t *max_heap = (uint8_t *)stack_limit;
 8002474:	697b      	ldr	r3, [r7, #20]
 8002476:	613b      	str	r3, [r7, #16]
  uint8_t *prev_heap_end;

  /* Initialize heap end at first call */
  if (NULL == __sbrk_heap_end)
 8002478:	4b13      	ldr	r3, [pc, #76]	@ (80024c8 <_sbrk+0x64>)
 800247a:	681b      	ldr	r3, [r3, #0]
 800247c:	2b00      	cmp	r3, #0
 800247e:	d102      	bne.n	8002486 <_sbrk+0x22>
  {
    __sbrk_heap_end = &_end;
 8002480:	4b11      	ldr	r3, [pc, #68]	@ (80024c8 <_sbrk+0x64>)
 8002482:	4a12      	ldr	r2, [pc, #72]	@ (80024cc <_sbrk+0x68>)
 8002484:	601a      	str	r2, [r3, #0]
  }

  /* Protect heap from growing into the reserved MSP stack */
  if (__sbrk_heap_end + incr > max_heap)
 8002486:	4b10      	ldr	r3, [pc, #64]	@ (80024c8 <_sbrk+0x64>)
 8002488:	681a      	ldr	r2, [r3, #0]
 800248a:	687b      	ldr	r3, [r7, #4]
 800248c:	4413      	add	r3, r2
 800248e:	693a      	ldr	r2, [r7, #16]
 8002490:	429a      	cmp	r2, r3
 8002492:	d207      	bcs.n	80024a4 <_sbrk+0x40>
  {
    errno = ENOMEM;
 8002494:	f004 fcdc 	bl	8006e50 <__errno>
 8002498:	4603      	mov	r3, r0
 800249a:	220c      	movs	r2, #12
 800249c:	601a      	str	r2, [r3, #0]
    return (void *)-1;
 800249e:	f04f 33ff 	mov.w	r3, #4294967295
 80024a2:	e009      	b.n	80024b8 <_sbrk+0x54>
  }

  prev_heap_end = __sbrk_heap_end;
 80024a4:	4b08      	ldr	r3, [pc, #32]	@ (80024c8 <_sbrk+0x64>)
 80024a6:	681b      	ldr	r3, [r3, #0]
 80024a8:	60fb      	str	r3, [r7, #12]
  __sbrk_heap_end += incr;
 80024aa:	4b07      	ldr	r3, [pc, #28]	@ (80024c8 <_sbrk+0x64>)
 80024ac:	681a      	ldr	r2, [r3, #0]
 80024ae:	687b      	ldr	r3, [r7, #4]
 80024b0:	4413      	add	r3, r2
 80024b2:	4a05      	ldr	r2, [pc, #20]	@ (80024c8 <_sbrk+0x64>)
 80024b4:	6013      	str	r3, [r2, #0]

  return (void *)prev_heap_end;
 80024b6:	68fb      	ldr	r3, [r7, #12]
}
 80024b8:	4618      	mov	r0, r3
 80024ba:	3718      	adds	r7, #24
 80024bc:	46bd      	mov	sp, r7
 80024be:	bd80      	pop	{r7, pc}
 80024c0:	20030000 	.word	0x20030000
 80024c4:	00000400 	.word	0x00000400
 80024c8:	20000220 	.word	0x20000220
 80024cc:	20000448 	.word	0x20000448

080024d0 <SystemInit>:
  *         configuration.
  * @param  None
  * @retval None
  */
void SystemInit(void)
{
 80024d0:	b480      	push	{r7}
 80024d2:	af00      	add	r7, sp, #0
  /* FPU settings ------------------------------------------------------------*/
  #if (__FPU_PRESENT == 1) && (__FPU_USED == 1)
    SCB->CPACR |= ((3UL << 10*2)|(3UL << 11*2));  /* set CP10 and CP11 Full Access */
 80024d4:	4b06      	ldr	r3, [pc, #24]	@ (80024f0 <SystemInit+0x20>)
 80024d6:	f8d3 3088 	ldr.w	r3, [r3, #136]	@ 0x88
 80024da:	4a05      	ldr	r2, [pc, #20]	@ (80024f0 <SystemInit+0x20>)
 80024dc:	f443 0370 	orr.w	r3, r3, #15728640	@ 0xf00000
 80024e0:	f8c2 3088 	str.w	r3, [r2, #136]	@ 0x88

  /* Configure the Vector Table location -------------------------------------*/
#if defined(USER_VECT_TAB_ADDRESS)
  SCB->VTOR = VECT_TAB_BASE_ADDRESS | VECT_TAB_OFFSET; /* Vector Table Relocation in Internal SRAM */
#endif /* USER_VECT_TAB_ADDRESS */
}
 80024e4:	bf00      	nop
 80024e6:	46bd      	mov	sp, r7
 80024e8:	f85d 7b04 	ldr.w	r7, [sp], #4
 80024ec:	4770      	bx	lr
 80024ee:	bf00      	nop
 80024f0:	e000ed00 	.word	0xe000ed00

080024f4 <MX_TIM4_Init>:
TIM_HandleTypeDef htim4;
TIM_HandleTypeDef htim6;

/* TIM4 init function */
void MX_TIM4_Init(void)
{
 80024f4:	b580      	push	{r7, lr}
 80024f6:	b08e      	sub	sp, #56	@ 0x38
 80024f8:	af00      	add	r7, sp, #0

  /* USER CODE BEGIN TIM4_Init 0 */

  /* USER CODE END TIM4_Init 0 */

  TIM_ClockConfigTypeDef sClockSourceConfig = {0};
 80024fa:	f107 0328 	add.w	r3, r7, #40	@ 0x28
 80024fe:	2200      	movs	r2, #0
 8002500:	601a      	str	r2, [r3, #0]
 8002502:	605a      	str	r2, [r3, #4]
 8002504:	609a      	str	r2, [r3, #8]
 8002506:	60da      	str	r2, [r3, #12]
  TIM_MasterConfigTypeDef sMasterConfig = {0};
 8002508:	f107 0320 	add.w	r3, r7, #32
 800250c:	2200      	movs	r2, #0
 800250e:	601a      	str	r2, [r3, #0]
 8002510:	605a      	str	r2, [r3, #4]
  TIM_OC_InitTypeDef sConfigOC = {0};
 8002512:	1d3b      	adds	r3, r7, #4
 8002514:	2200      	movs	r2, #0
 8002516:	601a      	str	r2, [r3, #0]
 8002518:	605a      	str	r2, [r3, #4]
 800251a:	609a      	str	r2, [r3, #8]
 800251c:	60da      	str	r2, [r3, #12]
 800251e:	611a      	str	r2, [r3, #16]
 8002520:	615a      	str	r2, [r3, #20]
 8002522:	619a      	str	r2, [r3, #24]

  /* USER CODE BEGIN TIM4_Init 1 */

  /* USER CODE END TIM4_Init 1 */
  htim4.Instance = TIM4;
 8002524:	4b37      	ldr	r3, [pc, #220]	@ (8002604 <MX_TIM4_Init+0x110>)
 8002526:	4a38      	ldr	r2, [pc, #224]	@ (8002608 <MX_TIM4_Init+0x114>)
 8002528:	601a      	str	r2, [r3, #0]
  htim4.Init.Prescaler = 44;
 800252a:	4b36      	ldr	r3, [pc, #216]	@ (8002604 <MX_TIM4_Init+0x110>)
 800252c:	222c      	movs	r2, #44	@ 0x2c
 800252e:	605a      	str	r2, [r3, #4]
  htim4.Init.CounterMode = TIM_COUNTERMODE_UP;
 8002530:	4b34      	ldr	r3, [pc, #208]	@ (8002604 <MX_TIM4_Init+0x110>)
 8002532:	2200      	movs	r2, #0
 8002534:	609a      	str	r2, [r3, #8]
  htim4.Init.Period = 499;
 8002536:	4b33      	ldr	r3, [pc, #204]	@ (8002604 <MX_TIM4_Init+0x110>)
 8002538:	f240 12f3 	movw	r2, #499	@ 0x1f3
 800253c:	60da      	str	r2, [r3, #12]
  htim4.Init.ClockDivision = TIM_CLOCKDIVISION_DIV1;
 800253e:	4b31      	ldr	r3, [pc, #196]	@ (8002604 <MX_TIM4_Init+0x110>)
 8002540:	2200      	movs	r2, #0
 8002542:	611a      	str	r2, [r3, #16]
  htim4.Init.AutoReloadPreload = TIM_AUTORELOAD_PRELOAD_DISABLE;
 8002544:	4b2f      	ldr	r3, [pc, #188]	@ (8002604 <MX_TIM4_Init+0x110>)
 8002546:	2200      	movs	r2, #0
 8002548:	619a      	str	r2, [r3, #24]
  if (HAL_TIM_Base_Init(&htim4) != HAL_OK)
 800254a:	482e      	ldr	r0, [pc, #184]	@ (8002604 <MX_TIM4_Init+0x110>)
 800254c:	f002 fc14 	bl	8004d78 <HAL_TIM_Base_Init>
 8002550:	4603      	mov	r3, r0
 8002552:	2b00      	cmp	r3, #0
 8002554:	d001      	beq.n	800255a <MX_TIM4_Init+0x66>
  {
    Error_Handler();
 8002556:	f7ff ff13 	bl	8002380 <Error_Handler>
  }
  sClockSourceConfig.ClockSource = TIM_CLOCKSOURCE_INTERNAL;
 800255a:	f44f 5380 	mov.w	r3, #4096	@ 0x1000
 800255e:	62bb      	str	r3, [r7, #40]	@ 0x28
  if (HAL_TIM_ConfigClockSource(&htim4, &sClockSourceConfig) != HAL_OK)
 8002560:	f107 0328 	add.w	r3, r7, #40	@ 0x28
 8002564:	4619      	mov	r1, r3
 8002566:	4827      	ldr	r0, [pc, #156]	@ (8002604 <MX_TIM4_Init+0x110>)
 8002568:	f002 ff9a 	bl	80054a0 <HAL_TIM_ConfigClockSource>
 800256c:	4603      	mov	r3, r0
 800256e:	2b00      	cmp	r3, #0
 8002570:	d001      	beq.n	8002576 <MX_TIM4_Init+0x82>
  {
    Error_Handler();
 8002572:	f7ff ff05 	bl	8002380 <Error_Handler>
  }
  if (HAL_TIM_PWM_Init(&htim4) != HAL_OK)
 8002576:	4823      	ldr	r0, [pc, #140]	@ (8002604 <MX_TIM4_Init+0x110>)
 8002578:	f002 fcbe 	bl	8004ef8 <HAL_TIM_PWM_Init>
 800257c:	4603      	mov	r3, r0
 800257e:	2b00      	cmp	r3, #0
 8002580:	d001      	beq.n	8002586 <MX_TIM4_Init+0x92>
  {
    Error_Handler();
 8002582:	f7ff fefd 	bl	8002380 <Error_Handler>
  }
  sMasterConfig.MasterOutputTrigger = TIM_TRGO_RESET;
 8002586:	2300      	movs	r3, #0
 8002588:	623b      	str	r3, [r7, #32]
  sMasterConfig.MasterSlaveMode = TIM_MASTERSLAVEMODE_DISABLE;
 800258a:	2300      	movs	r3, #0
 800258c:	627b      	str	r3, [r7, #36]	@ 0x24
  if (HAL_TIMEx_MasterConfigSynchronization(&htim4, &sMasterConfig) != HAL_OK)
 800258e:	f107 0320 	add.w	r3, r7, #32
 8002592:	4619      	mov	r1, r3
 8002594:	481b      	ldr	r0, [pc, #108]	@ (8002604 <MX_TIM4_Init+0x110>)
 8002596:	f003 fb89 	bl	8005cac <HAL_TIMEx_MasterConfigSynchronization>
 800259a:	4603      	mov	r3, r0
 800259c:	2b00      	cmp	r3, #0
 800259e:	d001      	beq.n	80025a4 <MX_TIM4_Init+0xb0>
  {
    Error_Handler();
 80025a0:	f7ff feee 	bl	8002380 <Error_Handler>
  }
  sConfigOC.OCMode = TIM_OCMODE_PWM1;
 80025a4:	2360      	movs	r3, #96	@ 0x60
 80025a6:	607b      	str	r3, [r7, #4]
  sConfigOC.Pulse = 0;
 80025a8:	2300      	movs	r3, #0
 80025aa:	60bb      	str	r3, [r7, #8]
  sConfigOC.OCPolarity = TIM_OCPOLARITY_HIGH;
 80025ac:	2300      	movs	r3, #0
 80025ae:	60fb      	str	r3, [r7, #12]
  sConfigOC.OCFastMode = TIM_OCFAST_DISABLE;
 80025b0:	2300      	movs	r3, #0
 80025b2:	617b      	str	r3, [r7, #20]
  if (HAL_TIM_PWM_ConfigChannel(&htim4, &sConfigOC, TIM_CHANNEL_2) != HAL_OK)
 80025b4:	1d3b      	adds	r3, r7, #4
 80025b6:	2204      	movs	r2, #4
 80025b8:	4619      	mov	r1, r3
 80025ba:	4812      	ldr	r0, [pc, #72]	@ (8002604 <MX_TIM4_Init+0x110>)
 80025bc:	f002 feae 	bl	800531c <HAL_TIM_PWM_ConfigChannel>
 80025c0:	4603      	mov	r3, r0
 80025c2:	2b00      	cmp	r3, #0
 80025c4:	d001      	beq.n	80025ca <MX_TIM4_Init+0xd6>
  {
    Error_Handler();
 80025c6:	f7ff fedb 	bl	8002380 <Error_Handler>
  }
  if (HAL_TIM_PWM_ConfigChannel(&htim4, &sConfigOC, TIM_CHANNEL_3) != HAL_OK)
 80025ca:	1d3b      	adds	r3, r7, #4
 80025cc:	2208      	movs	r2, #8
 80025ce:	4619      	mov	r1, r3
 80025d0:	480c      	ldr	r0, [pc, #48]	@ (8002604 <MX_TIM4_Init+0x110>)
 80025d2:	f002 fea3 	bl	800531c <HAL_TIM_PWM_ConfigChannel>
 80025d6:	4603      	mov	r3, r0
 80025d8:	2b00      	cmp	r3, #0
 80025da:	d001      	beq.n	80025e0 <MX_TIM4_Init+0xec>
  {
    Error_Handler();
 80025dc:	f7ff fed0 	bl	8002380 <Error_Handler>
  }
  if (HAL_TIM_PWM_ConfigChannel(&htim4, &sConfigOC, TIM_CHANNEL_4) != HAL_OK)
 80025e0:	1d3b      	adds	r3, r7, #4
 80025e2:	220c      	movs	r2, #12
 80025e4:	4619      	mov	r1, r3
 80025e6:	4807      	ldr	r0, [pc, #28]	@ (8002604 <MX_TIM4_Init+0x110>)
 80025e8:	f002 fe98 	bl	800531c <HAL_TIM_PWM_ConfigChannel>
 80025ec:	4603      	mov	r3, r0
 80025ee:	2b00      	cmp	r3, #0
 80025f0:	d001      	beq.n	80025f6 <MX_TIM4_Init+0x102>
  {
    Error_Handler();
 80025f2:	f7ff fec5 	bl	8002380 <Error_Handler>
  }
  /* USER CODE BEGIN TIM4_Init 2 */

  /* USER CODE END TIM4_Init 2 */
  HAL_TIM_MspPostInit(&htim4);
 80025f6:	4803      	ldr	r0, [pc, #12]	@ (8002604 <MX_TIM4_Init+0x110>)
 80025f8:	f000 f87c 	bl	80026f4 <HAL_TIM_MspPostInit>

}
 80025fc:	bf00      	nop
 80025fe:	3738      	adds	r7, #56	@ 0x38
 8002600:	46bd      	mov	sp, r7
 8002602:	bd80      	pop	{r7, pc}
 8002604:	20000224 	.word	0x20000224
 8002608:	40000800 	.word	0x40000800

0800260c <MX_TIM6_Init>:
/* TIM6 init function */
void MX_TIM6_Init(void)
{
 800260c:	b580      	push	{r7, lr}
 800260e:	b082      	sub	sp, #8
 8002610:	af00      	add	r7, sp, #0

  /* USER CODE BEGIN TIM6_Init 0 */

  /* USER CODE END TIM6_Init 0 */

  TIM_MasterConfigTypeDef sMasterConfig = {0};
 8002612:	463b      	mov	r3, r7
 8002614:	2200      	movs	r2, #0
 8002616:	601a      	str	r2, [r3, #0]
 8002618:	605a      	str	r2, [r3, #4]

  /* USER CODE BEGIN TIM6_Init 1 */

  /* USER CODE END TIM6_Init 1 */
  htim6.Instance = TIM6;
 800261a:	4b15      	ldr	r3, [pc, #84]	@ (8002670 <MX_TIM6_Init+0x64>)
 800261c:	4a15      	ldr	r2, [pc, #84]	@ (8002674 <MX_TIM6_Init+0x68>)
 800261e:	601a      	str	r2, [r3, #0]
  htim6.Init.Prescaler = 8999;
 8002620:	4b13      	ldr	r3, [pc, #76]	@ (8002670 <MX_TIM6_Init+0x64>)
 8002622:	f242 3227 	movw	r2, #8999	@ 0x2327
 8002626:	605a      	str	r2, [r3, #4]
  htim6.Init.CounterMode = TIM_COUNTERMODE_UP;
 8002628:	4b11      	ldr	r3, [pc, #68]	@ (8002670 <MX_TIM6_Init+0x64>)
 800262a:	2200      	movs	r2, #0
 800262c:	609a      	str	r2, [r3, #8]
  htim6.Init.Period = 499;
 800262e:	4b10      	ldr	r3, [pc, #64]	@ (8002670 <MX_TIM6_Init+0x64>)
 8002630:	f240 12f3 	movw	r2, #499	@ 0x1f3
 8002634:	60da      	str	r2, [r3, #12]
  htim6.Init.AutoReloadPreload = TIM_AUTORELOAD_PRELOAD_DISABLE;
 8002636:	4b0e      	ldr	r3, [pc, #56]	@ (8002670 <MX_TIM6_Init+0x64>)
 8002638:	2200      	movs	r2, #0
 800263a:	619a      	str	r2, [r3, #24]
  if (HAL_TIM_Base_Init(&htim6) != HAL_OK)
 800263c:	480c      	ldr	r0, [pc, #48]	@ (8002670 <MX_TIM6_Init+0x64>)
 800263e:	f002 fb9b 	bl	8004d78 <HAL_TIM_Base_Init>
 8002642:	4603      	mov	r3, r0
 8002644:	2b00      	cmp	r3, #0
 8002646:	d001      	beq.n	800264c <MX_TIM6_Init+0x40>
  {
    Error_Handler();
 8002648:	f7ff fe9a 	bl	8002380 <Error_Handler>
  }
  sMasterConfig.MasterOutputTrigger = TIM_TRGO_RESET;
 800264c:	2300      	movs	r3, #0
 800264e:	603b      	str	r3, [r7, #0]
  sMasterConfig.MasterSlaveMode = TIM_MASTERSLAVEMODE_DISABLE;
 8002650:	2300      	movs	r3, #0
 8002652:	607b      	str	r3, [r7, #4]
  if (HAL_TIMEx_MasterConfigSynchronization(&htim6, &sMasterConfig) != HAL_OK)
 8002654:	463b      	mov	r3, r7
 8002656:	4619      	mov	r1, r3
 8002658:	4805      	ldr	r0, [pc, #20]	@ (8002670 <MX_TIM6_Init+0x64>)
 800265a:	f003 fb27 	bl	8005cac <HAL_TIMEx_MasterConfigSynchronization>
 800265e:	4603      	mov	r3, r0
 8002660:	2b00      	cmp	r3, #0
 8002662:	d001      	beq.n	8002668 <MX_TIM6_Init+0x5c>
  {
    Error_Handler();
 8002664:	f7ff fe8c 	bl	8002380 <Error_Handler>
  }
  /* USER CODE BEGIN TIM6_Init 2 */

  /* USER CODE END TIM6_Init 2 */

}
 8002668:	bf00      	nop
 800266a:	3708      	adds	r7, #8
 800266c:	46bd      	mov	sp, r7
 800266e:	bd80      	pop	{r7, pc}
 8002670:	2000026c 	.word	0x2000026c
 8002674:	40001000 	.word	0x40001000

08002678 <HAL_TIM_Base_MspInit>:

void HAL_TIM_Base_MspInit(TIM_HandleTypeDef* tim_baseHandle)
{
 8002678:	b580      	push	{r7, lr}
 800267a:	b084      	sub	sp, #16
 800267c:	af00      	add	r7, sp, #0
 800267e:	6078      	str	r0, [r7, #4]

  if(tim_baseHandle->Instance==TIM4)
 8002680:	687b      	ldr	r3, [r7, #4]
 8002682:	681b      	ldr	r3, [r3, #0]
 8002684:	4a18      	ldr	r2, [pc, #96]	@ (80026e8 <HAL_TIM_Base_MspInit+0x70>)
 8002686:	4293      	cmp	r3, r2
 8002688:	d10e      	bne.n	80026a8 <HAL_TIM_Base_MspInit+0x30>
  {
  /* USER CODE BEGIN TIM4_MspInit 0 */

  /* USER CODE END TIM4_MspInit 0 */
    /* TIM4 clock enable */
    __HAL_RCC_TIM4_CLK_ENABLE();
 800268a:	2300      	movs	r3, #0
 800268c:	60fb      	str	r3, [r7, #12]
 800268e:	4b17      	ldr	r3, [pc, #92]	@ (80026ec <HAL_TIM_Base_MspInit+0x74>)
 8002690:	6c1b      	ldr	r3, [r3, #64]	@ 0x40
 8002692:	4a16      	ldr	r2, [pc, #88]	@ (80026ec <HAL_TIM_Base_MspInit+0x74>)
 8002694:	f043 0304 	orr.w	r3, r3, #4
 8002698:	6413      	str	r3, [r2, #64]	@ 0x40
 800269a:	4b14      	ldr	r3, [pc, #80]	@ (80026ec <HAL_TIM_Base_MspInit+0x74>)
 800269c:	6c1b      	ldr	r3, [r3, #64]	@ 0x40
 800269e:	f003 0304 	and.w	r3, r3, #4
 80026a2:	60fb      	str	r3, [r7, #12]
 80026a4:	68fb      	ldr	r3, [r7, #12]
    HAL_NVIC_EnableIRQ(TIM6_DAC_IRQn);
  /* USER CODE BEGIN TIM6_MspInit 1 */

  /* USER CODE END TIM6_MspInit 1 */
  }
}
 80026a6:	e01a      	b.n	80026de <HAL_TIM_Base_MspInit+0x66>
  else if(tim_baseHandle->Instance==TIM6)
 80026a8:	687b      	ldr	r3, [r7, #4]
 80026aa:	681b      	ldr	r3, [r3, #0]
 80026ac:	4a10      	ldr	r2, [pc, #64]	@ (80026f0 <HAL_TIM_Base_MspInit+0x78>)
 80026ae:	4293      	cmp	r3, r2
 80026b0:	d115      	bne.n	80026de <HAL_TIM_Base_MspInit+0x66>
    __HAL_RCC_TIM6_CLK_ENABLE();
 80026b2:	2300      	movs	r3, #0
 80026b4:	60bb      	str	r3, [r7, #8]
 80026b6:	4b0d      	ldr	r3, [pc, #52]	@ (80026ec <HAL_TIM_Base_MspInit+0x74>)
 80026b8:	6c1b      	ldr	r3, [r3, #64]	@ 0x40
 80026ba:	4a0c      	ldr	r2, [pc, #48]	@ (80026ec <HAL_TIM_Base_MspInit+0x74>)
 80026bc:	f043 0310 	orr.w	r3, r3, #16
 80026c0:	6413      	str	r3, [r2, #64]	@ 0x40
 80026c2:	4b0a      	ldr	r3, [pc, #40]	@ (80026ec <HAL_TIM_Base_MspInit+0x74>)
 80026c4:	6c1b      	ldr	r3, [r3, #64]	@ 0x40
 80026c6:	f003 0310 	and.w	r3, r3, #16
 80026ca:	60bb      	str	r3, [r7, #8]
 80026cc:	68bb      	ldr	r3, [r7, #8]
    HAL_NVIC_SetPriority(TIM6_DAC_IRQn, 0, 0);
 80026ce:	2200      	movs	r2, #0
 80026d0:	2100      	movs	r1, #0
 80026d2:	2036      	movs	r0, #54	@ 0x36
 80026d4:	f000 fa4d 	bl	8002b72 <HAL_NVIC_SetPriority>
    HAL_NVIC_EnableIRQ(TIM6_DAC_IRQn);
 80026d8:	2036      	movs	r0, #54	@ 0x36
 80026da:	f000 fa66 	bl	8002baa <HAL_NVIC_EnableIRQ>
}
 80026de:	bf00      	nop
 80026e0:	3710      	adds	r7, #16
 80026e2:	46bd      	mov	sp, r7
 80026e4:	bd80      	pop	{r7, pc}
 80026e6:	bf00      	nop
 80026e8:	40000800 	.word	0x40000800
 80026ec:	40023800 	.word	0x40023800
 80026f0:	40001000 	.word	0x40001000

080026f4 <HAL_TIM_MspPostInit>:
void HAL_TIM_MspPostInit(TIM_HandleTypeDef* timHandle)
{
 80026f4:	b580      	push	{r7, lr}
 80026f6:	b088      	sub	sp, #32
 80026f8:	af00      	add	r7, sp, #0
 80026fa:	6078      	str	r0, [r7, #4]

  GPIO_InitTypeDef GPIO_InitStruct = {0};
 80026fc:	f107 030c 	add.w	r3, r7, #12
 8002700:	2200      	movs	r2, #0
 8002702:	601a      	str	r2, [r3, #0]
 8002704:	605a      	str	r2, [r3, #4]
 8002706:	609a      	str	r2, [r3, #8]
 8002708:	60da      	str	r2, [r3, #12]
 800270a:	611a      	str	r2, [r3, #16]
  if(timHandle->Instance==TIM4)
 800270c:	687b      	ldr	r3, [r7, #4]
 800270e:	681b      	ldr	r3, [r3, #0]
 8002710:	4a12      	ldr	r2, [pc, #72]	@ (800275c <HAL_TIM_MspPostInit+0x68>)
 8002712:	4293      	cmp	r3, r2
 8002714:	d11e      	bne.n	8002754 <HAL_TIM_MspPostInit+0x60>
  {
  /* USER CODE BEGIN TIM4_MspPostInit 0 */

  /* USER CODE END TIM4_MspPostInit 0 */

    __HAL_RCC_GPIOD_CLK_ENABLE();
 8002716:	2300      	movs	r3, #0
 8002718:	60bb      	str	r3, [r7, #8]
 800271a:	4b11      	ldr	r3, [pc, #68]	@ (8002760 <HAL_TIM_MspPostInit+0x6c>)
 800271c:	6b1b      	ldr	r3, [r3, #48]	@ 0x30
 800271e:	4a10      	ldr	r2, [pc, #64]	@ (8002760 <HAL_TIM_MspPostInit+0x6c>)
 8002720:	f043 0308 	orr.w	r3, r3, #8
 8002724:	6313      	str	r3, [r2, #48]	@ 0x30
 8002726:	4b0e      	ldr	r3, [pc, #56]	@ (8002760 <HAL_TIM_MspPostInit+0x6c>)
 8002728:	6b1b      	ldr	r3, [r3, #48]	@ 0x30
 800272a:	f003 0308 	and.w	r3, r3, #8
 800272e:	60bb      	str	r3, [r7, #8]
 8002730:	68bb      	ldr	r3, [r7, #8]
    /**TIM4 GPIO Configuration
    PD13     ------> TIM4_CH2
    PD14     ------> TIM4_CH3
    PD15     ------> TIM4_CH4
    */
    GPIO_InitStruct.Pin = GPIO_PIN_13|GPIO_PIN_14|GPIO_PIN_15;
 8002732:	f44f 4360 	mov.w	r3, #57344	@ 0xe000
 8002736:	60fb      	str	r3, [r7, #12]
    GPIO_InitStruct.Mode = GPIO_MODE_AF_PP;
 8002738:	2302      	movs	r3, #2
 800273a:	613b      	str	r3, [r7, #16]
    GPIO_InitStruct.Pull = GPIO_NOPULL;
 800273c:	2300      	movs	r3, #0
 800273e:	617b      	str	r3, [r7, #20]
    GPIO_InitStruct.Speed = GPIO_SPEED_FREQ_LOW;
 8002740:	2300      	movs	r3, #0
 8002742:	61bb      	str	r3, [r7, #24]
    GPIO_InitStruct.Alternate = GPIO_AF2_TIM4;
 8002744:	2302      	movs	r3, #2
 8002746:	61fb      	str	r3, [r7, #28]
    HAL_GPIO_Init(GPIOD, &GPIO_InitStruct);
 8002748:	f107 030c 	add.w	r3, r7, #12
 800274c:	4619      	mov	r1, r3
 800274e:	4805      	ldr	r0, [pc, #20]	@ (8002764 <HAL_TIM_MspPostInit+0x70>)
 8002750:	f000 fad8 	bl	8002d04 <HAL_GPIO_Init>
  /* USER CODE BEGIN TIM4_MspPostInit 1 */

  /* USER CODE END TIM4_MspPostInit 1 */
  }

}
 8002754:	bf00      	nop
 8002756:	3720      	adds	r7, #32
 8002758:	46bd      	mov	sp, r7
 800275a:	bd80      	pop	{r7, pc}
 800275c:	40000800 	.word	0x40000800
 8002760:	40023800 	.word	0x40023800
 8002764:	40020c00 	.word	0x40020c00

08002768 <uart_buf_reset>:
	buf->size--;

	return true;
}

void uart_buf_reset(uart_buf* buf) {
 8002768:	b480      	push	{r7}
 800276a:	b083      	sub	sp, #12
 800276c:	af00      	add	r7, sp, #0
 800276e:	6078      	str	r0, [r7, #4]
	buf->write_idx = 0;
 8002770:	687b      	ldr	r3, [r7, #4]
 8002772:	2200      	movs	r2, #0
 8002774:	811a      	strh	r2, [r3, #8]
	buf->read_idx = 0;
 8002776:	687b      	ldr	r3, [r7, #4]
 8002778:	2200      	movs	r2, #0
 800277a:	815a      	strh	r2, [r3, #10]
	buf->size = 0;
 800277c:	687b      	ldr	r3, [r7, #4]
 800277e:	2200      	movs	r2, #0
 8002780:	819a      	strh	r2, [r3, #12]
}
 8002782:	bf00      	nop
 8002784:	370c      	adds	r7, #12
 8002786:	46bd      	mov	sp, r7
 8002788:	f85d 7b04 	ldr.w	r7, [sp], #4
 800278c:	4770      	bx	lr
	...

08002790 <MX_USART6_UART_Init>:
UART_HandleTypeDef huart6;

/* USART6 init function */

void MX_USART6_UART_Init(void)
{
 8002790:	b580      	push	{r7, lr}
 8002792:	af00      	add	r7, sp, #0
  /* USER CODE END USART6_Init 0 */

  /* USER CODE BEGIN USART6_Init 1 */

  /* USER CODE END USART6_Init 1 */
  huart6.Instance = USART6;
 8002794:	4b11      	ldr	r3, [pc, #68]	@ (80027dc <MX_USART6_UART_Init+0x4c>)
 8002796:	4a12      	ldr	r2, [pc, #72]	@ (80027e0 <MX_USART6_UART_Init+0x50>)
 8002798:	601a      	str	r2, [r3, #0]
  huart6.Init.BaudRate = 115200;
 800279a:	4b10      	ldr	r3, [pc, #64]	@ (80027dc <MX_USART6_UART_Init+0x4c>)
 800279c:	f44f 32e1 	mov.w	r2, #115200	@ 0x1c200
 80027a0:	605a      	str	r2, [r3, #4]
  huart6.Init.WordLength = UART_WORDLENGTH_8B;
 80027a2:	4b0e      	ldr	r3, [pc, #56]	@ (80027dc <MX_USART6_UART_Init+0x4c>)
 80027a4:	2200      	movs	r2, #0
 80027a6:	609a      	str	r2, [r3, #8]
  huart6.Init.StopBits = UART_STOPBITS_1;
 80027a8:	4b0c      	ldr	r3, [pc, #48]	@ (80027dc <MX_USART6_UART_Init+0x4c>)
 80027aa:	2200      	movs	r2, #0
 80027ac:	60da      	str	r2, [r3, #12]
  huart6.Init.Parity = UART_PARITY_NONE;
 80027ae:	4b0b      	ldr	r3, [pc, #44]	@ (80027dc <MX_USART6_UART_Init+0x4c>)
 80027b0:	2200      	movs	r2, #0
 80027b2:	611a      	str	r2, [r3, #16]
  huart6.Init.Mode = UART_MODE_TX_RX;
 80027b4:	4b09      	ldr	r3, [pc, #36]	@ (80027dc <MX_USART6_UART_Init+0x4c>)
 80027b6:	220c      	movs	r2, #12
 80027b8:	615a      	str	r2, [r3, #20]
  huart6.Init.HwFlowCtl = UART_HWCONTROL_NONE;
 80027ba:	4b08      	ldr	r3, [pc, #32]	@ (80027dc <MX_USART6_UART_Init+0x4c>)
 80027bc:	2200      	movs	r2, #0
 80027be:	619a      	str	r2, [r3, #24]
  huart6.Init.OverSampling = UART_OVERSAMPLING_16;
 80027c0:	4b06      	ldr	r3, [pc, #24]	@ (80027dc <MX_USART6_UART_Init+0x4c>)
 80027c2:	2200      	movs	r2, #0
 80027c4:	61da      	str	r2, [r3, #28]
  if (HAL_UART_Init(&huart6) != HAL_OK)
 80027c6:	4805      	ldr	r0, [pc, #20]	@ (80027dc <MX_USART6_UART_Init+0x4c>)
 80027c8:	f003 fb00 	bl	8005dcc <HAL_UART_Init>
 80027cc:	4603      	mov	r3, r0
 80027ce:	2b00      	cmp	r3, #0
 80027d0:	d001      	beq.n	80027d6 <MX_USART6_UART_Init+0x46>
  {
    Error_Handler();
 80027d2:	f7ff fdd5 	bl	8002380 <Error_Handler>
  }
  /* USER CODE BEGIN USART6_Init 2 */

  /* USER CODE END USART6_Init 2 */

}
 80027d6:	bf00      	nop
 80027d8:	bd80      	pop	{r7, pc}
 80027da:	bf00      	nop
 80027dc:	200002b4 	.word	0x200002b4
 80027e0:	40011400 	.word	0x40011400

080027e4 <HAL_UART_MspInit>:

void HAL_UART_MspInit(UART_HandleTypeDef* uartHandle)
{
 80027e4:	b580      	push	{r7, lr}
 80027e6:	b08a      	sub	sp, #40	@ 0x28
 80027e8:	af00      	add	r7, sp, #0
 80027ea:	6078      	str	r0, [r7, #4]

  GPIO_InitTypeDef GPIO_InitStruct = {0};
 80027ec:	f107 0314 	add.w	r3, r7, #20
 80027f0:	2200      	movs	r2, #0
 80027f2:	601a      	str	r2, [r3, #0]
 80027f4:	605a      	str	r2, [r3, #4]
 80027f6:	609a      	str	r2, [r3, #8]
 80027f8:	60da      	str	r2, [r3, #12]
 80027fa:	611a      	str	r2, [r3, #16]
  if(uartHandle->Instance==USART6)
 80027fc:	687b      	ldr	r3, [r7, #4]
 80027fe:	681b      	ldr	r3, [r3, #0]
 8002800:	4a1d      	ldr	r2, [pc, #116]	@ (8002878 <HAL_UART_MspInit+0x94>)
 8002802:	4293      	cmp	r3, r2
 8002804:	d133      	bne.n	800286e <HAL_UART_MspInit+0x8a>
  {
  /* USER CODE BEGIN USART6_MspInit 0 */

  /* USER CODE END USART6_MspInit 0 */
    /* USART6 clock enable */
    __HAL_RCC_USART6_CLK_ENABLE();
 8002806:	2300      	movs	r3, #0
 8002808:	613b      	str	r3, [r7, #16]
 800280a:	4b1c      	ldr	r3, [pc, #112]	@ (800287c <HAL_UART_MspInit+0x98>)
 800280c:	6c5b      	ldr	r3, [r3, #68]	@ 0x44
 800280e:	4a1b      	ldr	r2, [pc, #108]	@ (800287c <HAL_UART_MspInit+0x98>)
 8002810:	f043 0320 	orr.w	r3, r3, #32
 8002814:	6453      	str	r3, [r2, #68]	@ 0x44
 8002816:	4b19      	ldr	r3, [pc, #100]	@ (800287c <HAL_UART_MspInit+0x98>)
 8002818:	6c5b      	ldr	r3, [r3, #68]	@ 0x44
 800281a:	f003 0320 	and.w	r3, r3, #32
 800281e:	613b      	str	r3, [r7, #16]
 8002820:	693b      	ldr	r3, [r7, #16]

    __HAL_RCC_GPIOC_CLK_ENABLE();
 8002822:	2300      	movs	r3, #0
 8002824:	60fb      	str	r3, [r7, #12]
 8002826:	4b15      	ldr	r3, [pc, #84]	@ (800287c <HAL_UART_MspInit+0x98>)
 8002828:	6b1b      	ldr	r3, [r3, #48]	@ 0x30
 800282a:	4a14      	ldr	r2, [pc, #80]	@ (800287c <HAL_UART_MspInit+0x98>)
 800282c:	f043 0304 	orr.w	r3, r3, #4
 8002830:	6313      	str	r3, [r2, #48]	@ 0x30
 8002832:	4b12      	ldr	r3, [pc, #72]	@ (800287c <HAL_UART_MspInit+0x98>)
 8002834:	6b1b      	ldr	r3, [r3, #48]	@ 0x30
 8002836:	f003 0304 	and.w	r3, r3, #4
 800283a:	60fb      	str	r3, [r7, #12]
 800283c:	68fb      	ldr	r3, [r7, #12]
    /**USART6 GPIO Configuration
    PC6     ------> USART6_TX
    PC7     ------> USART6_RX
    */
    GPIO_InitStruct.Pin = GPIO_PIN_6|GPIO_PIN_7;
 800283e:	23c0      	movs	r3, #192	@ 0xc0
 8002840:	617b      	str	r3, [r7, #20]
    GPIO_InitStruct.Mode = GPIO_MODE_AF_PP;
 8002842:	2302      	movs	r3, #2
 8002844:	61bb      	str	r3, [r7, #24]
    GPIO_InitStruct.Pull = GPIO_NOPULL;
 8002846:	2300      	movs	r3, #0
 8002848:	61fb      	str	r3, [r7, #28]
    GPIO_InitStruct.Speed = GPIO_SPEED_FREQ_VERY_HIGH;
 800284a:	2303      	movs	r3, #3
 800284c:	623b      	str	r3, [r7, #32]
    GPIO_InitStruct.Alternate = GPIO_AF8_USART6;
 800284e:	2308      	movs	r3, #8
 8002850:	627b      	str	r3, [r7, #36]	@ 0x24
    HAL_GPIO_Init(GPIOC, &GPIO_InitStruct);
 8002852:	f107 0314 	add.w	r3, r7, #20
 8002856:	4619      	mov	r1, r3
 8002858:	4809      	ldr	r0, [pc, #36]	@ (8002880 <HAL_UART_MspInit+0x9c>)
 800285a:	f000 fa53 	bl	8002d04 <HAL_GPIO_Init>

    /* USART6 interrupt Init */
    HAL_NVIC_SetPriority(USART6_IRQn, 0, 0);
 800285e:	2200      	movs	r2, #0
 8002860:	2100      	movs	r1, #0
 8002862:	2047      	movs	r0, #71	@ 0x47
 8002864:	f000 f985 	bl	8002b72 <HAL_NVIC_SetPriority>
    HAL_NVIC_EnableIRQ(USART6_IRQn);
 8002868:	2047      	movs	r0, #71	@ 0x47
 800286a:	f000 f99e 	bl	8002baa <HAL_NVIC_EnableIRQ>
  /* USER CODE BEGIN USART6_MspInit 1 */

  /* USER CODE END USART6_MspInit 1 */
  }
}
 800286e:	bf00      	nop
 8002870:	3728      	adds	r7, #40	@ 0x28
 8002872:	46bd      	mov	sp, r7
 8002874:	bd80      	pop	{r7, pc}
 8002876:	bf00      	nop
 8002878:	40011400 	.word	0x40011400
 800287c:	40023800 	.word	0x40023800
 8002880:	40020800 	.word	0x40020800

08002884 <Reset_Handler>:

    .section  .text.Reset_Handler
  .weak  Reset_Handler
  .type  Reset_Handler, %function
Reset_Handler:  
  ldr   sp, =_estack      /* set stack pointer */
 8002884:	f8df d034 	ldr.w	sp, [pc, #52]	@ 80028bc <LoopFillZerobss+0xe>
  
/* Call the clock system initialization function.*/
  bl  SystemInit   
 8002888:	f7ff fe22 	bl	80024d0 <SystemInit>

/* Copy the data segment initializers from flash to SRAM */  
  ldr r0, =_sdata
 800288c:	480c      	ldr	r0, [pc, #48]	@ (80028c0 <LoopFillZerobss+0x12>)
  ldr r1, =_edata
 800288e:	490d      	ldr	r1, [pc, #52]	@ (80028c4 <LoopFillZerobss+0x16>)
  ldr r2, =_sidata
 8002890:	4a0d      	ldr	r2, [pc, #52]	@ (80028c8 <LoopFillZerobss+0x1a>)
  movs r3, #0
 8002892:	2300      	movs	r3, #0
  b LoopCopyDataInit
 8002894:	e002      	b.n	800289c <LoopCopyDataInit>

08002896 <CopyDataInit>:

CopyDataInit:
  ldr r4, [r2, r3]
 8002896:	58d4      	ldr	r4, [r2, r3]
  str r4, [r0, r3]
 8002898:	50c4      	str	r4, [r0, r3]
  adds r3, r3, #4
 800289a:	3304      	adds	r3, #4

0800289c <LoopCopyDataInit>:

LoopCopyDataInit:
  adds r4, r0, r3
 800289c:	18c4      	adds	r4, r0, r3
  cmp r4, r1
 800289e:	428c      	cmp	r4, r1
  bcc CopyDataInit
 80028a0:	d3f9      	bcc.n	8002896 <CopyDataInit>
  
/* Zero fill the bss segment. */
  ldr r2, =_sbss
 80028a2:	4a0a      	ldr	r2, [pc, #40]	@ (80028cc <LoopFillZerobss+0x1e>)
  ldr r4, =_ebss
 80028a4:	4c0a      	ldr	r4, [pc, #40]	@ (80028d0 <LoopFillZerobss+0x22>)
  movs r3, #0
 80028a6:	2300      	movs	r3, #0
  b LoopFillZerobss
 80028a8:	e001      	b.n	80028ae <LoopFillZerobss>

080028aa <FillZerobss>:

FillZerobss:
  str  r3, [r2]
 80028aa:	6013      	str	r3, [r2, #0]
  adds r2, r2, #4
 80028ac:	3204      	adds	r2, #4

080028ae <LoopFillZerobss>:

LoopFillZerobss:
  cmp r2, r4
 80028ae:	42a2      	cmp	r2, r4
  bcc FillZerobss
 80028b0:	d3fb      	bcc.n	80028aa <FillZerobss>
  
/* Call static constructors */
    bl __libc_init_array
 80028b2:	f004 fad3 	bl	8006e5c <__libc_init_array>
/* Call the application's entry point.*/
  bl  main
 80028b6:	f7ff fc7b 	bl	80021b0 <main>
  bx  lr    
 80028ba:	4770      	bx	lr
  ldr   sp, =_estack      /* set stack pointer */
 80028bc:	20030000 	.word	0x20030000
  ldr r0, =_sdata
 80028c0:	20000000 	.word	0x20000000
  ldr r1, =_edata
 80028c4:	20000084 	.word	0x20000084
  ldr r2, =_sidata
 80028c8:	08007918 	.word	0x08007918
  ldr r2, =_sbss
 80028cc:	20000084 	.word	0x20000084
  ldr r4, =_ebss
 80028d0:	20000448 	.word	0x20000448

080028d4 <ADC_IRQHandler>:
 * @retval None       
*/
    .section  .text.Default_Handler,"ax",%progbits
Default_Handler:
Infinite_Loop:
  b  Infinite_Loop
 80028d4:	e7fe      	b.n	80028d4 <ADC_IRQHandler>
	...

080028d8 <HAL_Init>:
  *         need to ensure that the SysTick time base is always set to 1 millisecond
  *         to have correct HAL operation.
  * @retval HAL status
  */
HAL_StatusTypeDef HAL_Init(void)
{
 80028d8:	b580      	push	{r7, lr}
 80028da:	af00      	add	r7, sp, #0
  /* Configure Flash prefetch, Instruction cache, Data cache */ 
#if (INSTRUCTION_CACHE_ENABLE != 0U)
  __HAL_FLASH_INSTRUCTION_CACHE_ENABLE();
 80028dc:	4b0e      	ldr	r3, [pc, #56]	@ (8002918 <HAL_Init+0x40>)
 80028de:	681b      	ldr	r3, [r3, #0]
 80028e0:	4a0d      	ldr	r2, [pc, #52]	@ (8002918 <HAL_Init+0x40>)
 80028e2:	f443 7300 	orr.w	r3, r3, #512	@ 0x200
 80028e6:	6013      	str	r3, [r2, #0]
#endif /* INSTRUCTION_CACHE_ENABLE */

#if (DATA_CACHE_ENABLE != 0U)
  __HAL_FLASH_DATA_CACHE_ENABLE();
 80028e8:	4b0b      	ldr	r3, [pc, #44]	@ (8002918 <HAL_Init+0x40>)
 80028ea:	681b      	ldr	r3, [r3, #0]
 80028ec:	4a0a      	ldr	r2, [pc, #40]	@ (8002918 <HAL_Init+0x40>)
 80028ee:	f443 6380 	orr.w	r3, r3, #1024	@ 0x400
 80028f2:	6013      	str	r3, [r2, #0]
#endif /* DATA_CACHE_ENABLE */

#if (PREFETCH_ENABLE != 0U)
  __HAL_FLASH_PREFETCH_BUFFER_ENABLE();
 80028f4:	4b08      	ldr	r3, [pc, #32]	@ (8002918 <HAL_Init+0x40>)
 80028f6:	681b      	ldr	r3, [r3, #0]
 80028f8:	4a07      	ldr	r2, [pc, #28]	@ (8002918 <HAL_Init+0x40>)
 80028fa:	f443 7380 	orr.w	r3, r3, #256	@ 0x100
 80028fe:	6013      	str	r3, [r2, #0]
#endif /* PREFETCH_ENABLE */

  /* Set Interrupt Group Priority */
  HAL_NVIC_SetPriorityGrouping(NVIC_PRIORITYGROUP_4);
 8002900:	2003      	movs	r0, #3
 8002902:	f000 f92b 	bl	8002b5c <HAL_NVIC_SetPriorityGrouping>

  /* Use systick as time base source and configure 1ms tick (default clock after Reset is HSI) */
  HAL_InitTick(TICK_INT_PRIORITY);
 8002906:	200f      	movs	r0, #15
 8002908:	f000 f808 	bl	800291c <HAL_InitTick>

  /* Init the low level hardware */
  HAL_MspInit();
 800290c:	f7ff fd3e 	bl	800238c <HAL_MspInit>

  /* Return function status */
  return HAL_OK;
 8002910:	2300      	movs	r3, #0
}
 8002912:	4618      	mov	r0, r3
 8002914:	bd80      	pop	{r7, pc}
 8002916:	bf00      	nop
 8002918:	40023c00 	.word	0x40023c00

0800291c <HAL_InitTick>:
  *       implementation  in user file.
  * @param TickPriority Tick interrupt priority.
  * @retval HAL status
  */
__weak HAL_StatusTypeDef HAL_InitTick(uint32_t TickPriority)
{
 800291c:	b580      	push	{r7, lr}
 800291e:	b082      	sub	sp, #8
 8002920:	af00      	add	r7, sp, #0
 8002922:	6078      	str	r0, [r7, #4]
  /* Configure the SysTick to have interrupt in 1ms time basis*/
  if (HAL_SYSTICK_Config(SystemCoreClock / (1000U / uwTickFreq)) > 0U)
 8002924:	4b12      	ldr	r3, [pc, #72]	@ (8002970 <HAL_InitTick+0x54>)
 8002926:	681a      	ldr	r2, [r3, #0]
 8002928:	4b12      	ldr	r3, [pc, #72]	@ (8002974 <HAL_InitTick+0x58>)
 800292a:	781b      	ldrb	r3, [r3, #0]
 800292c:	4619      	mov	r1, r3
 800292e:	f44f 737a 	mov.w	r3, #1000	@ 0x3e8
 8002932:	fbb3 f3f1 	udiv	r3, r3, r1
 8002936:	fbb2 f3f3 	udiv	r3, r2, r3
 800293a:	4618      	mov	r0, r3
 800293c:	f000 f943 	bl	8002bc6 <HAL_SYSTICK_Config>
 8002940:	4603      	mov	r3, r0
 8002942:	2b00      	cmp	r3, #0
 8002944:	d001      	beq.n	800294a <HAL_InitTick+0x2e>
  {
    return HAL_ERROR;
 8002946:	2301      	movs	r3, #1
 8002948:	e00e      	b.n	8002968 <HAL_InitTick+0x4c>
  }

  /* Configure the SysTick IRQ priority */
  if (TickPriority < (1UL << __NVIC_PRIO_BITS))
 800294a:	687b      	ldr	r3, [r7, #4]
 800294c:	2b0f      	cmp	r3, #15
 800294e:	d80a      	bhi.n	8002966 <HAL_InitTick+0x4a>
  {
    HAL_NVIC_SetPriority(SysTick_IRQn, TickPriority, 0U);
 8002950:	2200      	movs	r2, #0
 8002952:	6879      	ldr	r1, [r7, #4]
 8002954:	f04f 30ff 	mov.w	r0, #4294967295
 8002958:	f000 f90b 	bl	8002b72 <HAL_NVIC_SetPriority>
    uwTickPrio = TickPriority;
 800295c:	4a06      	ldr	r2, [pc, #24]	@ (8002978 <HAL_InitTick+0x5c>)
 800295e:	687b      	ldr	r3, [r7, #4]
 8002960:	6013      	str	r3, [r2, #0]
  {
    return HAL_ERROR;
  }

  /* Return function status */
  return HAL_OK;
 8002962:	2300      	movs	r3, #0
 8002964:	e000      	b.n	8002968 <HAL_InitTick+0x4c>
    return HAL_ERROR;
 8002966:	2301      	movs	r3, #1
}
 8002968:	4618      	mov	r0, r3
 800296a:	3708      	adds	r7, #8
 800296c:	46bd      	mov	sp, r7
 800296e:	bd80      	pop	{r7, pc}
 8002970:	20000028 	.word	0x20000028
 8002974:	20000030 	.word	0x20000030
 8002978:	2000002c 	.word	0x2000002c

0800297c <HAL_IncTick>:
 * @note This function is declared as __weak to be overwritten in case of other 
  *      implementations in user file.
  * @retval None
  */
__weak void HAL_IncTick(void)
{
 800297c:	b480      	push	{r7}
 800297e:	af00      	add	r7, sp, #0
  uwTick += uwTickFreq;
 8002980:	4b06      	ldr	r3, [pc, #24]	@ (800299c <HAL_IncTick+0x20>)
 8002982:	781b      	ldrb	r3, [r3, #0]
 8002984:	461a      	mov	r2, r3
 8002986:	4b06      	ldr	r3, [pc, #24]	@ (80029a0 <HAL_IncTick+0x24>)
 8002988:	681b      	ldr	r3, [r3, #0]
 800298a:	4413      	add	r3, r2
 800298c:	4a04      	ldr	r2, [pc, #16]	@ (80029a0 <HAL_IncTick+0x24>)
 800298e:	6013      	str	r3, [r2, #0]
}
 8002990:	bf00      	nop
 8002992:	46bd      	mov	sp, r7
 8002994:	f85d 7b04 	ldr.w	r7, [sp], #4
 8002998:	4770      	bx	lr
 800299a:	bf00      	nop
 800299c:	20000030 	.word	0x20000030
 80029a0:	200002fc 	.word	0x200002fc

080029a4 <HAL_GetTick>:
  * @note This function is declared as __weak to be overwritten in case of other 
  *       implementations in user file.
  * @retval tick value
  */
__weak uint32_t HAL_GetTick(void)
{
 80029a4:	b480      	push	{r7}
 80029a6:	af00      	add	r7, sp, #0
  return uwTick;
 80029a8:	4b03      	ldr	r3, [pc, #12]	@ (80029b8 <HAL_GetTick+0x14>)
 80029aa:	681b      	ldr	r3, [r3, #0]
}
 80029ac:	4618      	mov	r0, r3
 80029ae:	46bd      	mov	sp, r7
 80029b0:	f85d 7b04 	ldr.w	r7, [sp], #4
 80029b4:	4770      	bx	lr
 80029b6:	bf00      	nop
 80029b8:	200002fc 	.word	0x200002fc

080029bc <__NVIC_SetPriorityGrouping>:
           In case of a conflict between priority grouping and available
           priority bits (__NVIC_PRIO_BITS), the smallest possible priority group is set.
  \param [in]      PriorityGroup  Priority grouping field.
 */
__STATIC_INLINE void __NVIC_SetPriorityGrouping(uint32_t PriorityGroup)
{
 80029bc:	b480      	push	{r7}
 80029be:	b085      	sub	sp, #20
 80029c0:	af00      	add	r7, sp, #0
 80029c2:	6078      	str	r0, [r7, #4]
  uint32_t reg_value;
  uint32_t PriorityGroupTmp = (PriorityGroup & (uint32_t)0x07UL);             /* only values 0..7 are used          */
 80029c4:	687b      	ldr	r3, [r7, #4]
 80029c6:	f003 0307 	and.w	r3, r3, #7
 80029ca:	60fb      	str	r3, [r7, #12]

  reg_value  =  SCB->AIRCR;                                                   /* read old register configuration    */
 80029cc:	4b0c      	ldr	r3, [pc, #48]	@ (8002a00 <__NVIC_SetPriorityGrouping+0x44>)
 80029ce:	68db      	ldr	r3, [r3, #12]
 80029d0:	60bb      	str	r3, [r7, #8]
  reg_value &= ~((uint32_t)(SCB_AIRCR_VECTKEY_Msk | SCB_AIRCR_PRIGROUP_Msk)); /* clear bits to change               */
 80029d2:	68ba      	ldr	r2, [r7, #8]
 80029d4:	f64f 03ff 	movw	r3, #63743	@ 0xf8ff
 80029d8:	4013      	ands	r3, r2
 80029da:	60bb      	str	r3, [r7, #8]
  reg_value  =  (reg_value                                   |
                ((uint32_t)0x5FAUL << SCB_AIRCR_VECTKEY_Pos) |
                (PriorityGroupTmp << SCB_AIRCR_PRIGROUP_Pos)  );              /* Insert write key and priority group */
 80029dc:	68fb      	ldr	r3, [r7, #12]
 80029de:	021a      	lsls	r2, r3, #8
                ((uint32_t)0x5FAUL << SCB_AIRCR_VECTKEY_Pos) |
 80029e0:	68bb      	ldr	r3, [r7, #8]
 80029e2:	4313      	orrs	r3, r2
  reg_value  =  (reg_value                                   |
 80029e4:	f043 63bf 	orr.w	r3, r3, #100139008	@ 0x5f80000
 80029e8:	f443 3300 	orr.w	r3, r3, #131072	@ 0x20000
 80029ec:	60bb      	str	r3, [r7, #8]
  SCB->AIRCR =  reg_value;
 80029ee:	4a04      	ldr	r2, [pc, #16]	@ (8002a00 <__NVIC_SetPriorityGrouping+0x44>)
 80029f0:	68bb      	ldr	r3, [r7, #8]
 80029f2:	60d3      	str	r3, [r2, #12]
}
 80029f4:	bf00      	nop
 80029f6:	3714      	adds	r7, #20
 80029f8:	46bd      	mov	sp, r7
 80029fa:	f85d 7b04 	ldr.w	r7, [sp], #4
 80029fe:	4770      	bx	lr
 8002a00:	e000ed00 	.word	0xe000ed00

08002a04 <__NVIC_GetPriorityGrouping>:
  \brief   Get Priority Grouping
  \details Reads the priority grouping field from the NVIC Interrupt Controller.
  \return                Priority grouping field (SCB->AIRCR [10:8] PRIGROUP field).
 */
__STATIC_INLINE uint32_t __NVIC_GetPriorityGrouping(void)
{
 8002a04:	b480      	push	{r7}
 8002a06:	af00      	add	r7, sp, #0
  return ((uint32_t)((SCB->AIRCR & SCB_AIRCR_PRIGROUP_Msk) >> SCB_AIRCR_PRIGROUP_Pos));
 8002a08:	4b04      	ldr	r3, [pc, #16]	@ (8002a1c <__NVIC_GetPriorityGrouping+0x18>)
 8002a0a:	68db      	ldr	r3, [r3, #12]
 8002a0c:	0a1b      	lsrs	r3, r3, #8
 8002a0e:	f003 0307 	and.w	r3, r3, #7
}
 8002a12:	4618      	mov	r0, r3
 8002a14:	46bd      	mov	sp, r7
 8002a16:	f85d 7b04 	ldr.w	r7, [sp], #4
 8002a1a:	4770      	bx	lr
 8002a1c:	e000ed00 	.word	0xe000ed00

08002a20 <__NVIC_EnableIRQ>:
  \details Enables a device specific interrupt in the NVIC interrupt controller.
  \param [in]      IRQn  Device specific interrupt number.
  \note    IRQn must not be negative.
 */
__STATIC_INLINE void __NVIC_EnableIRQ(IRQn_Type IRQn)
{
 8002a20:	b480      	push	{r7}
 8002a22:	b083      	sub	sp, #12
 8002a24:	af00      	add	r7, sp, #0
 8002a26:	4603      	mov	r3, r0
 8002a28:	71fb      	strb	r3, [r7, #7]
  if ((int32_t)(IRQn) >= 0)
 8002a2a:	f997 3007 	ldrsb.w	r3, [r7, #7]
 8002a2e:	2b00      	cmp	r3, #0
 8002a30:	db0b      	blt.n	8002a4a <__NVIC_EnableIRQ+0x2a>
  {
    __COMPILER_BARRIER();
    NVIC->ISER[(((uint32_t)IRQn) >> 5UL)] = (uint32_t)(1UL << (((uint32_t)IRQn) & 0x1FUL));
 8002a32:	79fb      	ldrb	r3, [r7, #7]
 8002a34:	f003 021f 	and.w	r2, r3, #31
 8002a38:	4907      	ldr	r1, [pc, #28]	@ (8002a58 <__NVIC_EnableIRQ+0x38>)
 8002a3a:	f997 3007 	ldrsb.w	r3, [r7, #7]
 8002a3e:	095b      	lsrs	r3, r3, #5
 8002a40:	2001      	movs	r0, #1
 8002a42:	fa00 f202 	lsl.w	r2, r0, r2
 8002a46:	f841 2023 	str.w	r2, [r1, r3, lsl #2]
    __COMPILER_BARRIER();
  }
}
 8002a4a:	bf00      	nop
 8002a4c:	370c      	adds	r7, #12
 8002a4e:	46bd      	mov	sp, r7
 8002a50:	f85d 7b04 	ldr.w	r7, [sp], #4
 8002a54:	4770      	bx	lr
 8002a56:	bf00      	nop
 8002a58:	e000e100 	.word	0xe000e100

08002a5c <__NVIC_SetPriority>:
  \param [in]      IRQn  Interrupt number.
  \param [in]  priority  Priority to set.
  \note    The priority cannot be set for every processor exception.
 */
__STATIC_INLINE void __NVIC_SetPriority(IRQn_Type IRQn, uint32_t priority)
{
 8002a5c:	b480      	push	{r7}
 8002a5e:	b083      	sub	sp, #12
 8002a60:	af00      	add	r7, sp, #0
 8002a62:	4603      	mov	r3, r0
 8002a64:	6039      	str	r1, [r7, #0]
 8002a66:	71fb      	strb	r3, [r7, #7]
  if ((int32_t)(IRQn) >= 0)
 8002a68:	f997 3007 	ldrsb.w	r3, [r7, #7]
 8002a6c:	2b00      	cmp	r3, #0
 8002a6e:	db0a      	blt.n	8002a86 <__NVIC_SetPriority+0x2a>
  {
    NVIC->IP[((uint32_t)IRQn)]               = (uint8_t)((priority << (8U - __NVIC_PRIO_BITS)) & (uint32_t)0xFFUL);
 8002a70:	683b      	ldr	r3, [r7, #0]
 8002a72:	b2da      	uxtb	r2, r3
 8002a74:	490c      	ldr	r1, [pc, #48]	@ (8002aa8 <__NVIC_SetPriority+0x4c>)
 8002a76:	f997 3007 	ldrsb.w	r3, [r7, #7]
 8002a7a:	0112      	lsls	r2, r2, #4
 8002a7c:	b2d2      	uxtb	r2, r2
 8002a7e:	440b      	add	r3, r1
 8002a80:	f883 2300 	strb.w	r2, [r3, #768]	@ 0x300
  }
  else
  {
    SCB->SHP[(((uint32_t)IRQn) & 0xFUL)-4UL] = (uint8_t)((priority << (8U - __NVIC_PRIO_BITS)) & (uint32_t)0xFFUL);
  }
}
 8002a84:	e00a      	b.n	8002a9c <__NVIC_SetPriority+0x40>
    SCB->SHP[(((uint32_t)IRQn) & 0xFUL)-4UL] = (uint8_t)((priority << (8U - __NVIC_PRIO_BITS)) & (uint32_t)0xFFUL);
 8002a86:	683b      	ldr	r3, [r7, #0]
 8002a88:	b2da      	uxtb	r2, r3
 8002a8a:	4908      	ldr	r1, [pc, #32]	@ (8002aac <__NVIC_SetPriority+0x50>)
 8002a8c:	79fb      	ldrb	r3, [r7, #7]
 8002a8e:	f003 030f 	and.w	r3, r3, #15
 8002a92:	3b04      	subs	r3, #4
 8002a94:	0112      	lsls	r2, r2, #4
 8002a96:	b2d2      	uxtb	r2, r2
 8002a98:	440b      	add	r3, r1
 8002a9a:	761a      	strb	r2, [r3, #24]
}
 8002a9c:	bf00      	nop
 8002a9e:	370c      	adds	r7, #12
 8002aa0:	46bd      	mov	sp, r7
 8002aa2:	f85d 7b04 	ldr.w	r7, [sp], #4
 8002aa6:	4770      	bx	lr
 8002aa8:	e000e100 	.word	0xe000e100
 8002aac:	e000ed00 	.word	0xe000ed00

08002ab0 <NVIC_EncodePriority>:
  \param [in]   PreemptPriority  Preemptive priority value (starting from 0).
  \param [in]       SubPriority  Subpriority value (starting from 0).
  \return                        Encoded priority. Value can be used in the function \ref NVIC_SetPriority().
 */
__STATIC_INLINE uint32_t NVIC_EncodePriority (uint32_t PriorityGroup, uint32_t PreemptPriority, uint32_t SubPriority)
{
 8002ab0:	b480      	push	{r7}
 8002ab2:	b089      	sub	sp, #36	@ 0x24
 8002ab4:	af00      	add	r7, sp, #0
 8002ab6:	60f8      	str	r0, [r7, #12]
 8002ab8:	60b9      	str	r1, [r7, #8]
 8002aba:	607a      	str	r2, [r7, #4]
  uint32_t PriorityGroupTmp = (PriorityGroup & (uint32_t)0x07UL);   /* only values 0..7 are used          */
 8002abc:	68fb      	ldr	r3, [r7, #12]
 8002abe:	f003 0307 	and.w	r3, r3, #7
 8002ac2:	61fb      	str	r3, [r7, #28]
  uint32_t PreemptPriorityBits;
  uint32_t SubPriorityBits;

  PreemptPriorityBits = ((7UL - PriorityGroupTmp) > (uint32_t)(__NVIC_PRIO_BITS)) ? (uint32_t)(__NVIC_PRIO_BITS) : (uint32_t)(7UL - PriorityGroupTmp);
 8002ac4:	69fb      	ldr	r3, [r7, #28]
 8002ac6:	f1c3 0307 	rsb	r3, r3, #7
 8002aca:	2b04      	cmp	r3, #4
 8002acc:	bf28      	it	cs
 8002ace:	2304      	movcs	r3, #4
 8002ad0:	61bb      	str	r3, [r7, #24]
  SubPriorityBits     = ((PriorityGroupTmp + (uint32_t)(__NVIC_PRIO_BITS)) < (uint32_t)7UL) ? (uint32_t)0UL : (uint32_t)((PriorityGroupTmp - 7UL) + (uint32_t)(__NVIC_PRIO_BITS));
 8002ad2:	69fb      	ldr	r3, [r7, #28]
 8002ad4:	3304      	adds	r3, #4
 8002ad6:	2b06      	cmp	r3, #6
 8002ad8:	d902      	bls.n	8002ae0 <NVIC_EncodePriority+0x30>
 8002ada:	69fb      	ldr	r3, [r7, #28]
 8002adc:	3b03      	subs	r3, #3
 8002ade:	e000      	b.n	8002ae2 <NVIC_EncodePriority+0x32>
 8002ae0:	2300      	movs	r3, #0
 8002ae2:	617b      	str	r3, [r7, #20]

  return (
           ((PreemptPriority & (uint32_t)((1UL << (PreemptPriorityBits)) - 1UL)) << SubPriorityBits) |
 8002ae4:	f04f 32ff 	mov.w	r2, #4294967295
 8002ae8:	69bb      	ldr	r3, [r7, #24]
 8002aea:	fa02 f303 	lsl.w	r3, r2, r3
 8002aee:	43da      	mvns	r2, r3
 8002af0:	68bb      	ldr	r3, [r7, #8]
 8002af2:	401a      	ands	r2, r3
 8002af4:	697b      	ldr	r3, [r7, #20]
 8002af6:	409a      	lsls	r2, r3
           ((SubPriority     & (uint32_t)((1UL << (SubPriorityBits    )) - 1UL)))
 8002af8:	f04f 31ff 	mov.w	r1, #4294967295
 8002afc:	697b      	ldr	r3, [r7, #20]
 8002afe:	fa01 f303 	lsl.w	r3, r1, r3
 8002b02:	43d9      	mvns	r1, r3
 8002b04:	687b      	ldr	r3, [r7, #4]
 8002b06:	400b      	ands	r3, r1
           ((PreemptPriority & (uint32_t)((1UL << (PreemptPriorityBits)) - 1UL)) << SubPriorityBits) |
 8002b08:	4313      	orrs	r3, r2
         );
}
 8002b0a:	4618      	mov	r0, r3
 8002b0c:	3724      	adds	r7, #36	@ 0x24
 8002b0e:	46bd      	mov	sp, r7
 8002b10:	f85d 7b04 	ldr.w	r7, [sp], #4
 8002b14:	4770      	bx	lr
	...

08002b18 <SysTick_Config>:
  \note    When the variable <b>__Vendor_SysTickConfig</b> is set to 1, then the
           function <b>SysTick_Config</b> is not included. In this case, the file <b><i>device</i>.h</b>
           must contain a vendor-specific implementation of this function.
 */
__STATIC_INLINE uint32_t SysTick_Config(uint32_t ticks)
{
 8002b18:	b580      	push	{r7, lr}
 8002b1a:	b082      	sub	sp, #8
 8002b1c:	af00      	add	r7, sp, #0
 8002b1e:	6078      	str	r0, [r7, #4]
  if ((ticks - 1UL) > SysTick_LOAD_RELOAD_Msk)
 8002b20:	687b      	ldr	r3, [r7, #4]
 8002b22:	3b01      	subs	r3, #1
 8002b24:	f1b3 7f80 	cmp.w	r3, #16777216	@ 0x1000000
 8002b28:	d301      	bcc.n	8002b2e <SysTick_Config+0x16>
  {
    return (1UL);                                                   /* Reload value impossible */
 8002b2a:	2301      	movs	r3, #1
 8002b2c:	e00f      	b.n	8002b4e <SysTick_Config+0x36>
  }

  SysTick->LOAD  = (uint32_t)(ticks - 1UL);                         /* set reload register */
 8002b2e:	4a0a      	ldr	r2, [pc, #40]	@ (8002b58 <SysTick_Config+0x40>)
 8002b30:	687b      	ldr	r3, [r7, #4]
 8002b32:	3b01      	subs	r3, #1
 8002b34:	6053      	str	r3, [r2, #4]
  NVIC_SetPriority (SysTick_IRQn, (1UL << __NVIC_PRIO_BITS) - 1UL); /* set Priority for Systick Interrupt */
 8002b36:	210f      	movs	r1, #15
 8002b38:	f04f 30ff 	mov.w	r0, #4294967295
 8002b3c:	f7ff ff8e 	bl	8002a5c <__NVIC_SetPriority>
  SysTick->VAL   = 0UL;                                             /* Load the SysTick Counter Value */
 8002b40:	4b05      	ldr	r3, [pc, #20]	@ (8002b58 <SysTick_Config+0x40>)
 8002b42:	2200      	movs	r2, #0
 8002b44:	609a      	str	r2, [r3, #8]
  SysTick->CTRL  = SysTick_CTRL_CLKSOURCE_Msk |
 8002b46:	4b04      	ldr	r3, [pc, #16]	@ (8002b58 <SysTick_Config+0x40>)
 8002b48:	2207      	movs	r2, #7
 8002b4a:	601a      	str	r2, [r3, #0]
                   SysTick_CTRL_TICKINT_Msk   |
                   SysTick_CTRL_ENABLE_Msk;                         /* Enable SysTick IRQ and SysTick Timer */
  return (0UL);                                                     /* Function successful */
 8002b4c:	2300      	movs	r3, #0
}
 8002b4e:	4618      	mov	r0, r3
 8002b50:	3708      	adds	r7, #8
 8002b52:	46bd      	mov	sp, r7
 8002b54:	bd80      	pop	{r7, pc}
 8002b56:	bf00      	nop
 8002b58:	e000e010 	.word	0xe000e010

08002b5c <HAL_NVIC_SetPriorityGrouping>:
  * @note   When the NVIC_PriorityGroup_0 is selected, IRQ preemption is no more possible. 
  *         The pending IRQ priority will be managed only by the subpriority. 
  * @retval None
  */
void HAL_NVIC_SetPriorityGrouping(uint32_t PriorityGroup)
{
 8002b5c:	b580      	push	{r7, lr}
 8002b5e:	b082      	sub	sp, #8
 8002b60:	af00      	add	r7, sp, #0
 8002b62:	6078      	str	r0, [r7, #4]
  /* Check the parameters */
  assert_param(IS_NVIC_PRIORITY_GROUP(PriorityGroup));
  
  /* Set the PRIGROUP[10:8] bits according to the PriorityGroup parameter value */
  NVIC_SetPriorityGrouping(PriorityGroup);
 8002b64:	6878      	ldr	r0, [r7, #4]
 8002b66:	f7ff ff29 	bl	80029bc <__NVIC_SetPriorityGrouping>
}
 8002b6a:	bf00      	nop
 8002b6c:	3708      	adds	r7, #8
 8002b6e:	46bd      	mov	sp, r7
 8002b70:	bd80      	pop	{r7, pc}

08002b72 <HAL_NVIC_SetPriority>:
  *         This parameter can be a value between 0 and 15
  *         A lower priority value indicates a higher priority.          
  * @retval None
  */
void HAL_NVIC_SetPriority(IRQn_Type IRQn, uint32_t PreemptPriority, uint32_t SubPriority)
{ 
 8002b72:	b580      	push	{r7, lr}
 8002b74:	b086      	sub	sp, #24
 8002b76:	af00      	add	r7, sp, #0
 8002b78:	4603      	mov	r3, r0
 8002b7a:	60b9      	str	r1, [r7, #8]
 8002b7c:	607a      	str	r2, [r7, #4]
 8002b7e:	73fb      	strb	r3, [r7, #15]
  uint32_t prioritygroup = 0x00U;
 8002b80:	2300      	movs	r3, #0
 8002b82:	617b      	str	r3, [r7, #20]
  
  /* Check the parameters */
  assert_param(IS_NVIC_SUB_PRIORITY(SubPriority));
  assert_param(IS_NVIC_PREEMPTION_PRIORITY(PreemptPriority));
  
  prioritygroup = NVIC_GetPriorityGrouping();
 8002b84:	f7ff ff3e 	bl	8002a04 <__NVIC_GetPriorityGrouping>
 8002b88:	6178      	str	r0, [r7, #20]
  
  NVIC_SetPriority(IRQn, NVIC_EncodePriority(prioritygroup, PreemptPriority, SubPriority));
 8002b8a:	687a      	ldr	r2, [r7, #4]
 8002b8c:	68b9      	ldr	r1, [r7, #8]
 8002b8e:	6978      	ldr	r0, [r7, #20]
 8002b90:	f7ff ff8e 	bl	8002ab0 <NVIC_EncodePriority>
 8002b94:	4602      	mov	r2, r0
 8002b96:	f997 300f 	ldrsb.w	r3, [r7, #15]
 8002b9a:	4611      	mov	r1, r2
 8002b9c:	4618      	mov	r0, r3
 8002b9e:	f7ff ff5d 	bl	8002a5c <__NVIC_SetPriority>
}
 8002ba2:	bf00      	nop
 8002ba4:	3718      	adds	r7, #24
 8002ba6:	46bd      	mov	sp, r7
 8002ba8:	bd80      	pop	{r7, pc}

08002baa <HAL_NVIC_EnableIRQ>:
  *         This parameter can be an enumerator of IRQn_Type enumeration
  *         (For the complete STM32 Devices IRQ Channels list, please refer to the appropriate CMSIS device file (stm32f4xxxx.h))
  * @retval None
  */
void HAL_NVIC_EnableIRQ(IRQn_Type IRQn)
{
 8002baa:	b580      	push	{r7, lr}
 8002bac:	b082      	sub	sp, #8
 8002bae:	af00      	add	r7, sp, #0
 8002bb0:	4603      	mov	r3, r0
 8002bb2:	71fb      	strb	r3, [r7, #7]
  /* Check the parameters */
  assert_param(IS_NVIC_DEVICE_IRQ(IRQn));
  
  /* Enable interrupt */
  NVIC_EnableIRQ(IRQn);
 8002bb4:	f997 3007 	ldrsb.w	r3, [r7, #7]
 8002bb8:	4618      	mov	r0, r3
 8002bba:	f7ff ff31 	bl	8002a20 <__NVIC_EnableIRQ>
}
 8002bbe:	bf00      	nop
 8002bc0:	3708      	adds	r7, #8
 8002bc2:	46bd      	mov	sp, r7
 8002bc4:	bd80      	pop	{r7, pc}

08002bc6 <HAL_SYSTICK_Config>:
  * @param  TicksNumb Specifies the ticks Number of ticks between two interrupts.
  * @retval status:  - 0  Function succeeded.
  *                  - 1  Function failed.
  */
uint32_t HAL_SYSTICK_Config(uint32_t TicksNumb)
{
 8002bc6:	b580      	push	{r7, lr}
 8002bc8:	b082      	sub	sp, #8
 8002bca:	af00      	add	r7, sp, #0
 8002bcc:	6078      	str	r0, [r7, #4]
   return SysTick_Config(TicksNumb);
 8002bce:	6878      	ldr	r0, [r7, #4]
 8002bd0:	f7ff ffa2 	bl	8002b18 <SysTick_Config>
 8002bd4:	4603      	mov	r3, r0
}
 8002bd6:	4618      	mov	r0, r3
 8002bd8:	3708      	adds	r7, #8
 8002bda:	46bd      	mov	sp, r7
 8002bdc:	bd80      	pop	{r7, pc}

08002bde <HAL_DMA_Abort>:
  *        and the Stream will be effectively disabled only after the transfer of
  *        this single data is finished.  
  * @retval HAL status
  */
HAL_StatusTypeDef HAL_DMA_Abort(DMA_HandleTypeDef *hdma)
{
 8002bde:	b580      	push	{r7, lr}
 8002be0:	b084      	sub	sp, #16
 8002be2:	af00      	add	r7, sp, #0
 8002be4:	6078      	str	r0, [r7, #4]
  /* calculate DMA base and stream number */
  DMA_Base_Registers *regs = (DMA_Base_Registers *)hdma->StreamBaseAddress;
 8002be6:	687b      	ldr	r3, [r7, #4]
 8002be8:	6d9b      	ldr	r3, [r3, #88]	@ 0x58
 8002bea:	60fb      	str	r3, [r7, #12]
  
  uint32_t tickstart = HAL_GetTick();
 8002bec:	f7ff feda 	bl	80029a4 <HAL_GetTick>
 8002bf0:	60b8      	str	r0, [r7, #8]
  
  if(hdma->State != HAL_DMA_STATE_BUSY)
 8002bf2:	687b      	ldr	r3, [r7, #4]
 8002bf4:	f893 3035 	ldrb.w	r3, [r3, #53]	@ 0x35
 8002bf8:	b2db      	uxtb	r3, r3
 8002bfa:	2b02      	cmp	r3, #2
 8002bfc:	d008      	beq.n	8002c10 <HAL_DMA_Abort+0x32>
  {
    hdma->ErrorCode = HAL_DMA_ERROR_NO_XFER;
 8002bfe:	687b      	ldr	r3, [r7, #4]
 8002c00:	2280      	movs	r2, #128	@ 0x80
 8002c02:	655a      	str	r2, [r3, #84]	@ 0x54
    
    /* Process Unlocked */
    __HAL_UNLOCK(hdma);
 8002c04:	687b      	ldr	r3, [r7, #4]
 8002c06:	2200      	movs	r2, #0
 8002c08:	f883 2034 	strb.w	r2, [r3, #52]	@ 0x34
    
    return HAL_ERROR;
 8002c0c:	2301      	movs	r3, #1
 8002c0e:	e052      	b.n	8002cb6 <HAL_DMA_Abort+0xd8>
  }
  else
  {
    /* Disable all the transfer interrupts */
    hdma->Instance->CR  &= ~(DMA_IT_TC | DMA_IT_TE | DMA_IT_DME);
 8002c10:	687b      	ldr	r3, [r7, #4]
 8002c12:	681b      	ldr	r3, [r3, #0]
 8002c14:	681a      	ldr	r2, [r3, #0]
 8002c16:	687b      	ldr	r3, [r7, #4]
 8002c18:	681b      	ldr	r3, [r3, #0]
 8002c1a:	f022 0216 	bic.w	r2, r2, #22
 8002c1e:	601a      	str	r2, [r3, #0]
    hdma->Instance->FCR &= ~(DMA_IT_FE);
 8002c20:	687b      	ldr	r3, [r7, #4]
 8002c22:	681b      	ldr	r3, [r3, #0]
 8002c24:	695a      	ldr	r2, [r3, #20]
 8002c26:	687b      	ldr	r3, [r7, #4]
 8002c28:	681b      	ldr	r3, [r3, #0]
 8002c2a:	f022 0280 	bic.w	r2, r2, #128	@ 0x80
 8002c2e:	615a      	str	r2, [r3, #20]
    
    if((hdma->XferHalfCpltCallback != NULL) || (hdma->XferM1HalfCpltCallback != NULL))
 8002c30:	687b      	ldr	r3, [r7, #4]
 8002c32:	6c1b      	ldr	r3, [r3, #64]	@ 0x40
 8002c34:	2b00      	cmp	r3, #0
 8002c36:	d103      	bne.n	8002c40 <HAL_DMA_Abort+0x62>
 8002c38:	687b      	ldr	r3, [r7, #4]
 8002c3a:	6c9b      	ldr	r3, [r3, #72]	@ 0x48
 8002c3c:	2b00      	cmp	r3, #0
 8002c3e:	d007      	beq.n	8002c50 <HAL_DMA_Abort+0x72>
    {
      hdma->Instance->CR  &= ~(DMA_IT_HT);
 8002c40:	687b      	ldr	r3, [r7, #4]
 8002c42:	681b      	ldr	r3, [r3, #0]
 8002c44:	681a      	ldr	r2, [r3, #0]
 8002c46:	687b      	ldr	r3, [r7, #4]
 8002c48:	681b      	ldr	r3, [r3, #0]
 8002c4a:	f022 0208 	bic.w	r2, r2, #8
 8002c4e:	601a      	str	r2, [r3, #0]
    }
    
    /* Disable the stream */
    __HAL_DMA_DISABLE(hdma);
 8002c50:	687b      	ldr	r3, [r7, #4]
 8002c52:	681b      	ldr	r3, [r3, #0]
 8002c54:	681a      	ldr	r2, [r3, #0]
 8002c56:	687b      	ldr	r3, [r7, #4]
 8002c58:	681b      	ldr	r3, [r3, #0]
 8002c5a:	f022 0201 	bic.w	r2, r2, #1
 8002c5e:	601a      	str	r2, [r3, #0]
    
    /* Check if the DMA Stream is effectively disabled */
    while((hdma->Instance->CR & DMA_SxCR_EN) != RESET)
 8002c60:	e013      	b.n	8002c8a <HAL_DMA_Abort+0xac>
    {
      /* Check for the Timeout */
      if((HAL_GetTick() - tickstart ) > HAL_TIMEOUT_DMA_ABORT)
 8002c62:	f7ff fe9f 	bl	80029a4 <HAL_GetTick>
 8002c66:	4602      	mov	r2, r0
 8002c68:	68bb      	ldr	r3, [r7, #8]
 8002c6a:	1ad3      	subs	r3, r2, r3
 8002c6c:	2b05      	cmp	r3, #5
 8002c6e:	d90c      	bls.n	8002c8a <HAL_DMA_Abort+0xac>
      {
        /* Update error code */
        hdma->ErrorCode = HAL_DMA_ERROR_TIMEOUT;
 8002c70:	687b      	ldr	r3, [r7, #4]
 8002c72:	2220      	movs	r2, #32
 8002c74:	655a      	str	r2, [r3, #84]	@ 0x54
        
        /* Change the DMA state */
        hdma->State = HAL_DMA_STATE_TIMEOUT;
 8002c76:	687b      	ldr	r3, [r7, #4]
 8002c78:	2203      	movs	r2, #3
 8002c7a:	f883 2035 	strb.w	r2, [r3, #53]	@ 0x35
        
        /* Process Unlocked */
        __HAL_UNLOCK(hdma);
 8002c7e:	687b      	ldr	r3, [r7, #4]
 8002c80:	2200      	movs	r2, #0
 8002c82:	f883 2034 	strb.w	r2, [r3, #52]	@ 0x34
        
        return HAL_TIMEOUT;
 8002c86:	2303      	movs	r3, #3
 8002c88:	e015      	b.n	8002cb6 <HAL_DMA_Abort+0xd8>
    while((hdma->Instance->CR & DMA_SxCR_EN) != RESET)
 8002c8a:	687b      	ldr	r3, [r7, #4]
 8002c8c:	681b      	ldr	r3, [r3, #0]
 8002c8e:	681b      	ldr	r3, [r3, #0]
 8002c90:	f003 0301 	and.w	r3, r3, #1
 8002c94:	2b00      	cmp	r3, #0
 8002c96:	d1e4      	bne.n	8002c62 <HAL_DMA_Abort+0x84>
      }
    }
    
    /* Clear all interrupt flags at correct offset within the register */
    regs->IFCR = 0x3FU << hdma->StreamIndex;
 8002c98:	687b      	ldr	r3, [r7, #4]
 8002c9a:	6ddb      	ldr	r3, [r3, #92]	@ 0x5c
 8002c9c:	223f      	movs	r2, #63	@ 0x3f
 8002c9e:	409a      	lsls	r2, r3
 8002ca0:	68fb      	ldr	r3, [r7, #12]
 8002ca2:	609a      	str	r2, [r3, #8]
    
    /* Change the DMA state*/
    hdma->State = HAL_DMA_STATE_READY;
 8002ca4:	687b      	ldr	r3, [r7, #4]
 8002ca6:	2201      	movs	r2, #1
 8002ca8:	f883 2035 	strb.w	r2, [r3, #53]	@ 0x35
    
    /* Process Unlocked */
    __HAL_UNLOCK(hdma);
 8002cac:	687b      	ldr	r3, [r7, #4]
 8002cae:	2200      	movs	r2, #0
 8002cb0:	f883 2034 	strb.w	r2, [r3, #52]	@ 0x34
  }
  return HAL_OK;
 8002cb4:	2300      	movs	r3, #0
}
 8002cb6:	4618      	mov	r0, r3
 8002cb8:	3710      	adds	r7, #16
 8002cba:	46bd      	mov	sp, r7
 8002cbc:	bd80      	pop	{r7, pc}

08002cbe <HAL_DMA_Abort_IT>:
  * @param  hdma   pointer to a DMA_HandleTypeDef structure that contains
  *                 the configuration information for the specified DMA Stream.
  * @retval HAL status
  */
HAL_StatusTypeDef HAL_DMA_Abort_IT(DMA_HandleTypeDef *hdma)
{
 8002cbe:	b480      	push	{r7}
 8002cc0:	b083      	sub	sp, #12
 8002cc2:	af00      	add	r7, sp, #0
 8002cc4:	6078      	str	r0, [r7, #4]
  if(hdma->State != HAL_DMA_STATE_BUSY)
 8002cc6:	687b      	ldr	r3, [r7, #4]
 8002cc8:	f893 3035 	ldrb.w	r3, [r3, #53]	@ 0x35
 8002ccc:	b2db      	uxtb	r3, r3
 8002cce:	2b02      	cmp	r3, #2
 8002cd0:	d004      	beq.n	8002cdc <HAL_DMA_Abort_IT+0x1e>
  {
    hdma->ErrorCode = HAL_DMA_ERROR_NO_XFER;
 8002cd2:	687b      	ldr	r3, [r7, #4]
 8002cd4:	2280      	movs	r2, #128	@ 0x80
 8002cd6:	655a      	str	r2, [r3, #84]	@ 0x54
    return HAL_ERROR;
 8002cd8:	2301      	movs	r3, #1
 8002cda:	e00c      	b.n	8002cf6 <HAL_DMA_Abort_IT+0x38>
  }
  else
  {
    /* Set Abort State  */
    hdma->State = HAL_DMA_STATE_ABORT;
 8002cdc:	687b      	ldr	r3, [r7, #4]
 8002cde:	2205      	movs	r2, #5
 8002ce0:	f883 2035 	strb.w	r2, [r3, #53]	@ 0x35
    
    /* Disable the stream */
    __HAL_DMA_DISABLE(hdma);
 8002ce4:	687b      	ldr	r3, [r7, #4]
 8002ce6:	681b      	ldr	r3, [r3, #0]
 8002ce8:	681a      	ldr	r2, [r3, #0]
 8002cea:	687b      	ldr	r3, [r7, #4]
 8002cec:	681b      	ldr	r3, [r3, #0]
 8002cee:	f022 0201 	bic.w	r2, r2, #1
 8002cf2:	601a      	str	r2, [r3, #0]
  }

  return HAL_OK;
 8002cf4:	2300      	movs	r3, #0
}
 8002cf6:	4618      	mov	r0, r3
 8002cf8:	370c      	adds	r7, #12
 8002cfa:	46bd      	mov	sp, r7
 8002cfc:	f85d 7b04 	ldr.w	r7, [sp], #4
 8002d00:	4770      	bx	lr
	...

08002d04 <HAL_GPIO_Init>:
  * @param  GPIO_Init pointer to a GPIO_InitTypeDef structure that contains
  *         the configuration information for the specified GPIO peripheral.
  * @retval None
  */
void HAL_GPIO_Init(GPIO_TypeDef  *GPIOx, GPIO_InitTypeDef *GPIO_Init)
{
 8002d04:	b480      	push	{r7}
 8002d06:	b089      	sub	sp, #36	@ 0x24
 8002d08:	af00      	add	r7, sp, #0
 8002d0a:	6078      	str	r0, [r7, #4]
 8002d0c:	6039      	str	r1, [r7, #0]
  uint32_t position;
  uint32_t ioposition = 0x00U;
 8002d0e:	2300      	movs	r3, #0
 8002d10:	617b      	str	r3, [r7, #20]
  uint32_t iocurrent = 0x00U;
 8002d12:	2300      	movs	r3, #0
 8002d14:	613b      	str	r3, [r7, #16]
  uint32_t temp = 0x00U;
 8002d16:	2300      	movs	r3, #0
 8002d18:	61bb      	str	r3, [r7, #24]
  assert_param(IS_GPIO_ALL_INSTANCE(GPIOx));
  assert_param(IS_GPIO_PIN(GPIO_Init->Pin));
  assert_param(IS_GPIO_MODE(GPIO_Init->Mode));

  /* Configure the port pins */
  for(position = 0U; position < GPIO_NUMBER; position++)
 8002d1a:	2300      	movs	r3, #0
 8002d1c:	61fb      	str	r3, [r7, #28]
 8002d1e:	e177      	b.n	8003010 <HAL_GPIO_Init+0x30c>
  {
    /* Get the IO position */
    ioposition = 0x01U << position;
 8002d20:	2201      	movs	r2, #1
 8002d22:	69fb      	ldr	r3, [r7, #28]
 8002d24:	fa02 f303 	lsl.w	r3, r2, r3
 8002d28:	617b      	str	r3, [r7, #20]
    /* Get the current IO position */
    iocurrent = (uint32_t)(GPIO_Init->Pin) & ioposition;
 8002d2a:	683b      	ldr	r3, [r7, #0]
 8002d2c:	681b      	ldr	r3, [r3, #0]
 8002d2e:	697a      	ldr	r2, [r7, #20]
 8002d30:	4013      	ands	r3, r2
 8002d32:	613b      	str	r3, [r7, #16]

    if(iocurrent == ioposition)
 8002d34:	693a      	ldr	r2, [r7, #16]
 8002d36:	697b      	ldr	r3, [r7, #20]
 8002d38:	429a      	cmp	r2, r3
 8002d3a:	f040 8166 	bne.w	800300a <HAL_GPIO_Init+0x306>
    {
      /*--------------------- GPIO Mode Configuration ------------------------*/
      /* In case of Output or Alternate function mode selection */
      if(((GPIO_Init->Mode & GPIO_MODE) == MODE_OUTPUT) || \
 8002d3e:	683b      	ldr	r3, [r7, #0]
 8002d40:	685b      	ldr	r3, [r3, #4]
 8002d42:	f003 0303 	and.w	r3, r3, #3
 8002d46:	2b01      	cmp	r3, #1
 8002d48:	d005      	beq.n	8002d56 <HAL_GPIO_Init+0x52>
          (GPIO_Init->Mode & GPIO_MODE) == MODE_AF)
 8002d4a:	683b      	ldr	r3, [r7, #0]
 8002d4c:	685b      	ldr	r3, [r3, #4]
 8002d4e:	f003 0303 	and.w	r3, r3, #3
      if(((GPIO_Init->Mode & GPIO_MODE) == MODE_OUTPUT) || \
 8002d52:	2b02      	cmp	r3, #2
 8002d54:	d130      	bne.n	8002db8 <HAL_GPIO_Init+0xb4>
      {
        /* Check the Speed parameter */
        assert_param(IS_GPIO_SPEED(GPIO_Init->Speed));
        /* Configure the IO Speed */
        temp = GPIOx->OSPEEDR; 
 8002d56:	687b      	ldr	r3, [r7, #4]
 8002d58:	689b      	ldr	r3, [r3, #8]
 8002d5a:	61bb      	str	r3, [r7, #24]
        temp &= ~(GPIO_OSPEEDER_OSPEEDR0 << (position * 2U));
 8002d5c:	69fb      	ldr	r3, [r7, #28]
 8002d5e:	005b      	lsls	r3, r3, #1
 8002d60:	2203      	movs	r2, #3
 8002d62:	fa02 f303 	lsl.w	r3, r2, r3
 8002d66:	43db      	mvns	r3, r3
 8002d68:	69ba      	ldr	r2, [r7, #24]
 8002d6a:	4013      	ands	r3, r2
 8002d6c:	61bb      	str	r3, [r7, #24]
        temp |= (GPIO_Init->Speed << (position * 2U));
 8002d6e:	683b      	ldr	r3, [r7, #0]
 8002d70:	68da      	ldr	r2, [r3, #12]
 8002d72:	69fb      	ldr	r3, [r7, #28]
 8002d74:	005b      	lsls	r3, r3, #1
 8002d76:	fa02 f303 	lsl.w	r3, r2, r3
 8002d7a:	69ba      	ldr	r2, [r7, #24]
 8002d7c:	4313      	orrs	r3, r2
 8002d7e:	61bb      	str	r3, [r7, #24]
        GPIOx->OSPEEDR = temp;
 8002d80:	687b      	ldr	r3, [r7, #4]
 8002d82:	69ba      	ldr	r2, [r7, #24]
 8002d84:	609a      	str	r2, [r3, #8]

        /* Configure the IO Output Type */
        temp = GPIOx->OTYPER;
 8002d86:	687b      	ldr	r3, [r7, #4]
 8002d88:	685b      	ldr	r3, [r3, #4]
 8002d8a:	61bb      	str	r3, [r7, #24]
        temp &= ~(GPIO_OTYPER_OT_0 << position) ;
 8002d8c:	2201      	movs	r2, #1
 8002d8e:	69fb      	ldr	r3, [r7, #28]
 8002d90:	fa02 f303 	lsl.w	r3, r2, r3
 8002d94:	43db      	mvns	r3, r3
 8002d96:	69ba      	ldr	r2, [r7, #24]
 8002d98:	4013      	ands	r3, r2
 8002d9a:	61bb      	str	r3, [r7, #24]
        temp |= (((GPIO_Init->Mode & OUTPUT_TYPE) >> OUTPUT_TYPE_Pos) << position);
 8002d9c:	683b      	ldr	r3, [r7, #0]
 8002d9e:	685b      	ldr	r3, [r3, #4]
 8002da0:	091b      	lsrs	r3, r3, #4
 8002da2:	f003 0201 	and.w	r2, r3, #1
 8002da6:	69fb      	ldr	r3, [r7, #28]
 8002da8:	fa02 f303 	lsl.w	r3, r2, r3
 8002dac:	69ba      	ldr	r2, [r7, #24]
 8002dae:	4313      	orrs	r3, r2
 8002db0:	61bb      	str	r3, [r7, #24]
        GPIOx->OTYPER = temp;
 8002db2:	687b      	ldr	r3, [r7, #4]
 8002db4:	69ba      	ldr	r2, [r7, #24]
 8002db6:	605a      	str	r2, [r3, #4]
       }

      if((GPIO_Init->Mode & GPIO_MODE) != MODE_ANALOG)
 8002db8:	683b      	ldr	r3, [r7, #0]
 8002dba:	685b      	ldr	r3, [r3, #4]
 8002dbc:	f003 0303 	and.w	r3, r3, #3
 8002dc0:	2b03      	cmp	r3, #3
 8002dc2:	d017      	beq.n	8002df4 <HAL_GPIO_Init+0xf0>
      {
        /* Check the parameters */
        assert_param(IS_GPIO_PULL(GPIO_Init->Pull));
        
        /* Activate the Pull-up or Pull down resistor for the current IO */
        temp = GPIOx->PUPDR;
 8002dc4:	687b      	ldr	r3, [r7, #4]
 8002dc6:	68db      	ldr	r3, [r3, #12]
 8002dc8:	61bb      	str	r3, [r7, #24]
        temp &= ~(GPIO_PUPDR_PUPDR0 << (position * 2U));
 8002dca:	69fb      	ldr	r3, [r7, #28]
 8002dcc:	005b      	lsls	r3, r3, #1
 8002dce:	2203      	movs	r2, #3
 8002dd0:	fa02 f303 	lsl.w	r3, r2, r3
 8002dd4:	43db      	mvns	r3, r3
 8002dd6:	69ba      	ldr	r2, [r7, #24]
 8002dd8:	4013      	ands	r3, r2
 8002dda:	61bb      	str	r3, [r7, #24]
        temp |= ((GPIO_Init->Pull) << (position * 2U));
 8002ddc:	683b      	ldr	r3, [r7, #0]
 8002dde:	689a      	ldr	r2, [r3, #8]
 8002de0:	69fb      	ldr	r3, [r7, #28]
 8002de2:	005b      	lsls	r3, r3, #1
 8002de4:	fa02 f303 	lsl.w	r3, r2, r3
 8002de8:	69ba      	ldr	r2, [r7, #24]
 8002dea:	4313      	orrs	r3, r2
 8002dec:	61bb      	str	r3, [r7, #24]
        GPIOx->PUPDR = temp;
 8002dee:	687b      	ldr	r3, [r7, #4]
 8002df0:	69ba      	ldr	r2, [r7, #24]
 8002df2:	60da      	str	r2, [r3, #12]
      }

      /* In case of Alternate function mode selection */
      if((GPIO_Init->Mode & GPIO_MODE) == MODE_AF)
 8002df4:	683b      	ldr	r3, [r7, #0]
 8002df6:	685b      	ldr	r3, [r3, #4]
 8002df8:	f003 0303 	and.w	r3, r3, #3
 8002dfc:	2b02      	cmp	r3, #2
 8002dfe:	d123      	bne.n	8002e48 <HAL_GPIO_Init+0x144>
      {
        /* Check the Alternate function parameter */
        assert_param(IS_GPIO_AF(GPIO_Init->Alternate));
        /* Configure Alternate function mapped with the current IO */
        temp = GPIOx->AFR[position >> 3U];
 8002e00:	69fb      	ldr	r3, [r7, #28]
 8002e02:	08da      	lsrs	r2, r3, #3
 8002e04:	687b      	ldr	r3, [r7, #4]
 8002e06:	3208      	adds	r2, #8
 8002e08:	f853 3022 	ldr.w	r3, [r3, r2, lsl #2]
 8002e0c:	61bb      	str	r3, [r7, #24]
        temp &= ~(0xFU << ((uint32_t)(position & 0x07U) * 4U)) ;
 8002e0e:	69fb      	ldr	r3, [r7, #28]
 8002e10:	f003 0307 	and.w	r3, r3, #7
 8002e14:	009b      	lsls	r3, r3, #2
 8002e16:	220f      	movs	r2, #15
 8002e18:	fa02 f303 	lsl.w	r3, r2, r3
 8002e1c:	43db      	mvns	r3, r3
 8002e1e:	69ba      	ldr	r2, [r7, #24]
 8002e20:	4013      	ands	r3, r2
 8002e22:	61bb      	str	r3, [r7, #24]
        temp |= ((uint32_t)(GPIO_Init->Alternate) << (((uint32_t)position & 0x07U) * 4U));
 8002e24:	683b      	ldr	r3, [r7, #0]
 8002e26:	691a      	ldr	r2, [r3, #16]
 8002e28:	69fb      	ldr	r3, [r7, #28]
 8002e2a:	f003 0307 	and.w	r3, r3, #7
 8002e2e:	009b      	lsls	r3, r3, #2
 8002e30:	fa02 f303 	lsl.w	r3, r2, r3
 8002e34:	69ba      	ldr	r2, [r7, #24]
 8002e36:	4313      	orrs	r3, r2
 8002e38:	61bb      	str	r3, [r7, #24]
        GPIOx->AFR[position >> 3U] = temp;
 8002e3a:	69fb      	ldr	r3, [r7, #28]
 8002e3c:	08da      	lsrs	r2, r3, #3
 8002e3e:	687b      	ldr	r3, [r7, #4]
 8002e40:	3208      	adds	r2, #8
 8002e42:	69b9      	ldr	r1, [r7, #24]
 8002e44:	f843 1022 	str.w	r1, [r3, r2, lsl #2]
      }

      /* Configure IO Direction mode (Input, Output, Alternate or Analog) */
      temp = GPIOx->MODER;
 8002e48:	687b      	ldr	r3, [r7, #4]
 8002e4a:	681b      	ldr	r3, [r3, #0]
 8002e4c:	61bb      	str	r3, [r7, #24]
      temp &= ~(GPIO_MODER_MODER0 << (position * 2U));
 8002e4e:	69fb      	ldr	r3, [r7, #28]
 8002e50:	005b      	lsls	r3, r3, #1
 8002e52:	2203      	movs	r2, #3
 8002e54:	fa02 f303 	lsl.w	r3, r2, r3
 8002e58:	43db      	mvns	r3, r3
 8002e5a:	69ba      	ldr	r2, [r7, #24]
 8002e5c:	4013      	ands	r3, r2
 8002e5e:	61bb      	str	r3, [r7, #24]
      temp |= ((GPIO_Init->Mode & GPIO_MODE) << (position * 2U));
 8002e60:	683b      	ldr	r3, [r7, #0]
 8002e62:	685b      	ldr	r3, [r3, #4]
 8002e64:	f003 0203 	and.w	r2, r3, #3
 8002e68:	69fb      	ldr	r3, [r7, #28]
 8002e6a:	005b      	lsls	r3, r3, #1
 8002e6c:	fa02 f303 	lsl.w	r3, r2, r3
 8002e70:	69ba      	ldr	r2, [r7, #24]
 8002e72:	4313      	orrs	r3, r2
 8002e74:	61bb      	str	r3, [r7, #24]
      GPIOx->MODER = temp;
 8002e76:	687b      	ldr	r3, [r7, #4]
 8002e78:	69ba      	ldr	r2, [r7, #24]
 8002e7a:	601a      	str	r2, [r3, #0]

      /*--------------------- EXTI Mode Configuration ------------------------*/
      /* Configure the External Interrupt or event for the current IO */
      if((GPIO_Init->Mode & EXTI_MODE) != 0x00U)
 8002e7c:	683b      	ldr	r3, [r7, #0]
 8002e7e:	685b      	ldr	r3, [r3, #4]
 8002e80:	f403 3340 	and.w	r3, r3, #196608	@ 0x30000
 8002e84:	2b00      	cmp	r3, #0
 8002e86:	f000 80c0 	beq.w	800300a <HAL_GPIO_Init+0x306>
      {
        /* Enable SYSCFG Clock */
        __HAL_RCC_SYSCFG_CLK_ENABLE();
 8002e8a:	2300      	movs	r3, #0
 8002e8c:	60fb      	str	r3, [r7, #12]
 8002e8e:	4b66      	ldr	r3, [pc, #408]	@ (8003028 <HAL_GPIO_Init+0x324>)
 8002e90:	6c5b      	ldr	r3, [r3, #68]	@ 0x44
 8002e92:	4a65      	ldr	r2, [pc, #404]	@ (8003028 <HAL_GPIO_Init+0x324>)
 8002e94:	f443 4380 	orr.w	r3, r3, #16384	@ 0x4000
 8002e98:	6453      	str	r3, [r2, #68]	@ 0x44
 8002e9a:	4b63      	ldr	r3, [pc, #396]	@ (8003028 <HAL_GPIO_Init+0x324>)
 8002e9c:	6c5b      	ldr	r3, [r3, #68]	@ 0x44
 8002e9e:	f403 4380 	and.w	r3, r3, #16384	@ 0x4000
 8002ea2:	60fb      	str	r3, [r7, #12]
 8002ea4:	68fb      	ldr	r3, [r7, #12]

        temp = SYSCFG->EXTICR[position >> 2U];
 8002ea6:	4a61      	ldr	r2, [pc, #388]	@ (800302c <HAL_GPIO_Init+0x328>)
 8002ea8:	69fb      	ldr	r3, [r7, #28]
 8002eaa:	089b      	lsrs	r3, r3, #2
 8002eac:	3302      	adds	r3, #2
 8002eae:	f852 3023 	ldr.w	r3, [r2, r3, lsl #2]
 8002eb2:	61bb      	str	r3, [r7, #24]
        temp &= ~(0x0FU << (4U * (position & 0x03U)));
 8002eb4:	69fb      	ldr	r3, [r7, #28]
 8002eb6:	f003 0303 	and.w	r3, r3, #3
 8002eba:	009b      	lsls	r3, r3, #2
 8002ebc:	220f      	movs	r2, #15
 8002ebe:	fa02 f303 	lsl.w	r3, r2, r3
 8002ec2:	43db      	mvns	r3, r3
 8002ec4:	69ba      	ldr	r2, [r7, #24]
 8002ec6:	4013      	ands	r3, r2
 8002ec8:	61bb      	str	r3, [r7, #24]
        temp |= ((uint32_t)(GPIO_GET_INDEX(GPIOx)) << (4U * (position & 0x03U)));
 8002eca:	687b      	ldr	r3, [r7, #4]
 8002ecc:	4a58      	ldr	r2, [pc, #352]	@ (8003030 <HAL_GPIO_Init+0x32c>)
 8002ece:	4293      	cmp	r3, r2
 8002ed0:	d037      	beq.n	8002f42 <HAL_GPIO_Init+0x23e>
 8002ed2:	687b      	ldr	r3, [r7, #4]
 8002ed4:	4a57      	ldr	r2, [pc, #348]	@ (8003034 <HAL_GPIO_Init+0x330>)
 8002ed6:	4293      	cmp	r3, r2
 8002ed8:	d031      	beq.n	8002f3e <HAL_GPIO_Init+0x23a>
 8002eda:	687b      	ldr	r3, [r7, #4]
 8002edc:	4a56      	ldr	r2, [pc, #344]	@ (8003038 <HAL_GPIO_Init+0x334>)
 8002ede:	4293      	cmp	r3, r2
 8002ee0:	d02b      	beq.n	8002f3a <HAL_GPIO_Init+0x236>
 8002ee2:	687b      	ldr	r3, [r7, #4]
 8002ee4:	4a55      	ldr	r2, [pc, #340]	@ (800303c <HAL_GPIO_Init+0x338>)
 8002ee6:	4293      	cmp	r3, r2
 8002ee8:	d025      	beq.n	8002f36 <HAL_GPIO_Init+0x232>
 8002eea:	687b      	ldr	r3, [r7, #4]
 8002eec:	4a54      	ldr	r2, [pc, #336]	@ (8003040 <HAL_GPIO_Init+0x33c>)
 8002eee:	4293      	cmp	r3, r2
 8002ef0:	d01f      	beq.n	8002f32 <HAL_GPIO_Init+0x22e>
 8002ef2:	687b      	ldr	r3, [r7, #4]
 8002ef4:	4a53      	ldr	r2, [pc, #332]	@ (8003044 <HAL_GPIO_Init+0x340>)
 8002ef6:	4293      	cmp	r3, r2
 8002ef8:	d019      	beq.n	8002f2e <HAL_GPIO_Init+0x22a>
 8002efa:	687b      	ldr	r3, [r7, #4]
 8002efc:	4a52      	ldr	r2, [pc, #328]	@ (8003048 <HAL_GPIO_Init+0x344>)
 8002efe:	4293      	cmp	r3, r2
 8002f00:	d013      	beq.n	8002f2a <HAL_GPIO_Init+0x226>
 8002f02:	687b      	ldr	r3, [r7, #4]
 8002f04:	4a51      	ldr	r2, [pc, #324]	@ (800304c <HAL_GPIO_Init+0x348>)
 8002f06:	4293      	cmp	r3, r2
 8002f08:	d00d      	beq.n	8002f26 <HAL_GPIO_Init+0x222>
 8002f0a:	687b      	ldr	r3, [r7, #4]
 8002f0c:	4a50      	ldr	r2, [pc, #320]	@ (8003050 <HAL_GPIO_Init+0x34c>)
 8002f0e:	4293      	cmp	r3, r2
 8002f10:	d007      	beq.n	8002f22 <HAL_GPIO_Init+0x21e>
 8002f12:	687b      	ldr	r3, [r7, #4]
 8002f14:	4a4f      	ldr	r2, [pc, #316]	@ (8003054 <HAL_GPIO_Init+0x350>)
 8002f16:	4293      	cmp	r3, r2
 8002f18:	d101      	bne.n	8002f1e <HAL_GPIO_Init+0x21a>
 8002f1a:	2309      	movs	r3, #9
 8002f1c:	e012      	b.n	8002f44 <HAL_GPIO_Init+0x240>
 8002f1e:	230a      	movs	r3, #10
 8002f20:	e010      	b.n	8002f44 <HAL_GPIO_Init+0x240>
 8002f22:	2308      	movs	r3, #8
 8002f24:	e00e      	b.n	8002f44 <HAL_GPIO_Init+0x240>
 8002f26:	2307      	movs	r3, #7
 8002f28:	e00c      	b.n	8002f44 <HAL_GPIO_Init+0x240>
 8002f2a:	2306      	movs	r3, #6
 8002f2c:	e00a      	b.n	8002f44 <HAL_GPIO_Init+0x240>
 8002f2e:	2305      	movs	r3, #5
 8002f30:	e008      	b.n	8002f44 <HAL_GPIO_Init+0x240>
 8002f32:	2304      	movs	r3, #4
 8002f34:	e006      	b.n	8002f44 <HAL_GPIO_Init+0x240>
 8002f36:	2303      	movs	r3, #3
 8002f38:	e004      	b.n	8002f44 <HAL_GPIO_Init+0x240>
 8002f3a:	2302      	movs	r3, #2
 8002f3c:	e002      	b.n	8002f44 <HAL_GPIO_Init+0x240>
 8002f3e:	2301      	movs	r3, #1
 8002f40:	e000      	b.n	8002f44 <HAL_GPIO_Init+0x240>
 8002f42:	2300      	movs	r3, #0
 8002f44:	69fa      	ldr	r2, [r7, #28]
 8002f46:	f002 0203 	and.w	r2, r2, #3
 8002f4a:	0092      	lsls	r2, r2, #2
 8002f4c:	4093      	lsls	r3, r2
 8002f4e:	69ba      	ldr	r2, [r7, #24]
 8002f50:	4313      	orrs	r3, r2
 8002f52:	61bb      	str	r3, [r7, #24]
        SYSCFG->EXTICR[position >> 2U] = temp;
 8002f54:	4935      	ldr	r1, [pc, #212]	@ (800302c <HAL_GPIO_Init+0x328>)
 8002f56:	69fb      	ldr	r3, [r7, #28]
 8002f58:	089b      	lsrs	r3, r3, #2
 8002f5a:	3302      	adds	r3, #2
 8002f5c:	69ba      	ldr	r2, [r7, #24]
 8002f5e:	f841 2023 	str.w	r2, [r1, r3, lsl #2]

        /* Clear Rising Falling edge configuration */
        temp = EXTI->RTSR;
 8002f62:	4b3d      	ldr	r3, [pc, #244]	@ (8003058 <HAL_GPIO_Init+0x354>)
 8002f64:	689b      	ldr	r3, [r3, #8]
 8002f66:	61bb      	str	r3, [r7, #24]
        temp &= ~((uint32_t)iocurrent);
 8002f68:	693b      	ldr	r3, [r7, #16]
 8002f6a:	43db      	mvns	r3, r3
 8002f6c:	69ba      	ldr	r2, [r7, #24]
 8002f6e:	4013      	ands	r3, r2
 8002f70:	61bb      	str	r3, [r7, #24]
        if((GPIO_Init->Mode & TRIGGER_RISING) != 0x00U)
 8002f72:	683b      	ldr	r3, [r7, #0]
 8002f74:	685b      	ldr	r3, [r3, #4]
 8002f76:	f403 1380 	and.w	r3, r3, #1048576	@ 0x100000
 8002f7a:	2b00      	cmp	r3, #0
 8002f7c:	d003      	beq.n	8002f86 <HAL_GPIO_Init+0x282>
        {
          temp |= iocurrent;
 8002f7e:	69ba      	ldr	r2, [r7, #24]
 8002f80:	693b      	ldr	r3, [r7, #16]
 8002f82:	4313      	orrs	r3, r2
 8002f84:	61bb      	str	r3, [r7, #24]
        }
        EXTI->RTSR = temp;
 8002f86:	4a34      	ldr	r2, [pc, #208]	@ (8003058 <HAL_GPIO_Init+0x354>)
 8002f88:	69bb      	ldr	r3, [r7, #24]
 8002f8a:	6093      	str	r3, [r2, #8]

        temp = EXTI->FTSR;
 8002f8c:	4b32      	ldr	r3, [pc, #200]	@ (8003058 <HAL_GPIO_Init+0x354>)
 8002f8e:	68db      	ldr	r3, [r3, #12]
 8002f90:	61bb      	str	r3, [r7, #24]
        temp &= ~((uint32_t)iocurrent);
 8002f92:	693b      	ldr	r3, [r7, #16]
 8002f94:	43db      	mvns	r3, r3
 8002f96:	69ba      	ldr	r2, [r7, #24]
 8002f98:	4013      	ands	r3, r2
 8002f9a:	61bb      	str	r3, [r7, #24]
        if((GPIO_Init->Mode & TRIGGER_FALLING) != 0x00U)
 8002f9c:	683b      	ldr	r3, [r7, #0]
 8002f9e:	685b      	ldr	r3, [r3, #4]
 8002fa0:	f403 1300 	and.w	r3, r3, #2097152	@ 0x200000
 8002fa4:	2b00      	cmp	r3, #0
 8002fa6:	d003      	beq.n	8002fb0 <HAL_GPIO_Init+0x2ac>
        {
          temp |= iocurrent;
 8002fa8:	69ba      	ldr	r2, [r7, #24]
 8002faa:	693b      	ldr	r3, [r7, #16]
 8002fac:	4313      	orrs	r3, r2
 8002fae:	61bb      	str	r3, [r7, #24]
        }
        EXTI->FTSR = temp;
 8002fb0:	4a29      	ldr	r2, [pc, #164]	@ (8003058 <HAL_GPIO_Init+0x354>)
 8002fb2:	69bb      	ldr	r3, [r7, #24]
 8002fb4:	60d3      	str	r3, [r2, #12]

        temp = EXTI->EMR;
 8002fb6:	4b28      	ldr	r3, [pc, #160]	@ (8003058 <HAL_GPIO_Init+0x354>)
 8002fb8:	685b      	ldr	r3, [r3, #4]
 8002fba:	61bb      	str	r3, [r7, #24]
        temp &= ~((uint32_t)iocurrent);
 8002fbc:	693b      	ldr	r3, [r7, #16]
 8002fbe:	43db      	mvns	r3, r3
 8002fc0:	69ba      	ldr	r2, [r7, #24]
 8002fc2:	4013      	ands	r3, r2
 8002fc4:	61bb      	str	r3, [r7, #24]
        if((GPIO_Init->Mode & EXTI_EVT) != 0x00U)
 8002fc6:	683b      	ldr	r3, [r7, #0]
 8002fc8:	685b      	ldr	r3, [r3, #4]
 8002fca:	f403 3300 	and.w	r3, r3, #131072	@ 0x20000
 8002fce:	2b00      	cmp	r3, #0
 8002fd0:	d003      	beq.n	8002fda <HAL_GPIO_Init+0x2d6>
        {
          temp |= iocurrent;
 8002fd2:	69ba      	ldr	r2, [r7, #24]
 8002fd4:	693b      	ldr	r3, [r7, #16]
 8002fd6:	4313      	orrs	r3, r2
 8002fd8:	61bb      	str	r3, [r7, #24]
        }
        EXTI->EMR = temp;
 8002fda:	4a1f      	ldr	r2, [pc, #124]	@ (8003058 <HAL_GPIO_Init+0x354>)
 8002fdc:	69bb      	ldr	r3, [r7, #24]
 8002fde:	6053      	str	r3, [r2, #4]

        /* Clear EXTI line configuration */
        temp = EXTI->IMR;
 8002fe0:	4b1d      	ldr	r3, [pc, #116]	@ (8003058 <HAL_GPIO_Init+0x354>)
 8002fe2:	681b      	ldr	r3, [r3, #0]
 8002fe4:	61bb      	str	r3, [r7, #24]
        temp &= ~((uint32_t)iocurrent);
 8002fe6:	693b      	ldr	r3, [r7, #16]
 8002fe8:	43db      	mvns	r3, r3
 8002fea:	69ba      	ldr	r2, [r7, #24]
 8002fec:	4013      	ands	r3, r2
 8002fee:	61bb      	str	r3, [r7, #24]
        if((GPIO_Init->Mode & EXTI_IT) != 0x00U)
 8002ff0:	683b      	ldr	r3, [r7, #0]
 8002ff2:	685b      	ldr	r3, [r3, #4]
 8002ff4:	f403 3380 	and.w	r3, r3, #65536	@ 0x10000
 8002ff8:	2b00      	cmp	r3, #0
 8002ffa:	d003      	beq.n	8003004 <HAL_GPIO_Init+0x300>
        {
          temp |= iocurrent;
 8002ffc:	69ba      	ldr	r2, [r7, #24]
 8002ffe:	693b      	ldr	r3, [r7, #16]
 8003000:	4313      	orrs	r3, r2
 8003002:	61bb      	str	r3, [r7, #24]
        }
        EXTI->IMR = temp;
 8003004:	4a14      	ldr	r2, [pc, #80]	@ (8003058 <HAL_GPIO_Init+0x354>)
 8003006:	69bb      	ldr	r3, [r7, #24]
 8003008:	6013      	str	r3, [r2, #0]
  for(position = 0U; position < GPIO_NUMBER; position++)
 800300a:	69fb      	ldr	r3, [r7, #28]
 800300c:	3301      	adds	r3, #1
 800300e:	61fb      	str	r3, [r7, #28]
 8003010:	69fb      	ldr	r3, [r7, #28]
 8003012:	2b0f      	cmp	r3, #15
 8003014:	f67f ae84 	bls.w	8002d20 <HAL_GPIO_Init+0x1c>
      }
    }
  }
}
 8003018:	bf00      	nop
 800301a:	bf00      	nop
 800301c:	3724      	adds	r7, #36	@ 0x24
 800301e:	46bd      	mov	sp, r7
 8003020:	f85d 7b04 	ldr.w	r7, [sp], #4
 8003024:	4770      	bx	lr
 8003026:	bf00      	nop
 8003028:	40023800 	.word	0x40023800
 800302c:	40013800 	.word	0x40013800
 8003030:	40020000 	.word	0x40020000
 8003034:	40020400 	.word	0x40020400
 8003038:	40020800 	.word	0x40020800
 800303c:	40020c00 	.word	0x40020c00
 8003040:	40021000 	.word	0x40021000
 8003044:	40021400 	.word	0x40021400
 8003048:	40021800 	.word	0x40021800
 800304c:	40021c00 	.word	0x40021c00
 8003050:	40022000 	.word	0x40022000
 8003054:	40022400 	.word	0x40022400
 8003058:	40013c00 	.word	0x40013c00

0800305c <HAL_GPIO_ReadPin>:
  * @param  GPIO_Pin specifies the port bit to read.
  *         This parameter can be GPIO_PIN_x where x can be (0..15).
  * @retval The input port pin value.
  */
GPIO_PinState HAL_GPIO_ReadPin(GPIO_TypeDef* GPIOx, uint16_t GPIO_Pin)
{
 800305c:	b480      	push	{r7}
 800305e:	b085      	sub	sp, #20
 8003060:	af00      	add	r7, sp, #0
 8003062:	6078      	str	r0, [r7, #4]
 8003064:	460b      	mov	r3, r1
 8003066:	807b      	strh	r3, [r7, #2]
  GPIO_PinState bitstatus;

  /* Check the parameters */
  assert_param(IS_GPIO_PIN(GPIO_Pin));

  if((GPIOx->IDR & GPIO_Pin) != (uint32_t)GPIO_PIN_RESET)
 8003068:	687b      	ldr	r3, [r7, #4]
 800306a:	691a      	ldr	r2, [r3, #16]
 800306c:	887b      	ldrh	r3, [r7, #2]
 800306e:	4013      	ands	r3, r2
 8003070:	2b00      	cmp	r3, #0
 8003072:	d002      	beq.n	800307a <HAL_GPIO_ReadPin+0x1e>
  {
    bitstatus = GPIO_PIN_SET;
 8003074:	2301      	movs	r3, #1
 8003076:	73fb      	strb	r3, [r7, #15]
 8003078:	e001      	b.n	800307e <HAL_GPIO_ReadPin+0x22>
  }
  else
  {
    bitstatus = GPIO_PIN_RESET;
 800307a:	2300      	movs	r3, #0
 800307c:	73fb      	strb	r3, [r7, #15]
  }
  return bitstatus;
 800307e:	7bfb      	ldrb	r3, [r7, #15]
}
 8003080:	4618      	mov	r0, r3
 8003082:	3714      	adds	r7, #20
 8003084:	46bd      	mov	sp, r7
 8003086:	f85d 7b04 	ldr.w	r7, [sp], #4
 800308a:	4770      	bx	lr

0800308c <HAL_I2C_Init>:
  * @param  hi2c Pointer to a I2C_HandleTypeDef structure that contains
  *                the configuration information for the specified I2C.
  * @retval HAL status
  */
HAL_StatusTypeDef HAL_I2C_Init(I2C_HandleTypeDef *hi2c)
{
 800308c:	b580      	push	{r7, lr}
 800308e:	b084      	sub	sp, #16
 8003090:	af00      	add	r7, sp, #0
 8003092:	6078      	str	r0, [r7, #4]
  uint32_t freqrange;
  uint32_t pclk1;

  /* Check the I2C handle allocation */
  if (hi2c == NULL)
 8003094:	687b      	ldr	r3, [r7, #4]
 8003096:	2b00      	cmp	r3, #0
 8003098:	d101      	bne.n	800309e <HAL_I2C_Init+0x12>
  {
    return HAL_ERROR;
 800309a:	2301      	movs	r3, #1
 800309c:	e12b      	b.n	80032f6 <HAL_I2C_Init+0x26a>
  assert_param(IS_I2C_DUAL_ADDRESS(hi2c->Init.DualAddressMode));
  assert_param(IS_I2C_OWN_ADDRESS2(hi2c->Init.OwnAddress2));
  assert_param(IS_I2C_GENERAL_CALL(hi2c->Init.GeneralCallMode));
  assert_param(IS_I2C_NO_STRETCH(hi2c->Init.NoStretchMode));

  if (hi2c->State == HAL_I2C_STATE_RESET)
 800309e:	687b      	ldr	r3, [r7, #4]
 80030a0:	f893 303d 	ldrb.w	r3, [r3, #61]	@ 0x3d
 80030a4:	b2db      	uxtb	r3, r3
 80030a6:	2b00      	cmp	r3, #0
 80030a8:	d106      	bne.n	80030b8 <HAL_I2C_Init+0x2c>
  {
    /* Allocate lock resource and initialize it */
    hi2c->Lock = HAL_UNLOCKED;
 80030aa:	687b      	ldr	r3, [r7, #4]
 80030ac:	2200      	movs	r2, #0
 80030ae:	f883 203c 	strb.w	r2, [r3, #60]	@ 0x3c

    /* Init the low level hardware : GPIO, CLOCK, NVIC */
    hi2c->MspInitCallback(hi2c);
#else
    /* Init the low level hardware : GPIO, CLOCK, NVIC */
    HAL_I2C_MspInit(hi2c);
 80030b2:	6878      	ldr	r0, [r7, #4]
 80030b4:	f7fe fe26 	bl	8001d04 <HAL_I2C_MspInit>
#endif /* USE_HAL_I2C_REGISTER_CALLBACKS */
  }

  hi2c->State = HAL_I2C_STATE_BUSY;
 80030b8:	687b      	ldr	r3, [r7, #4]
 80030ba:	2224      	movs	r2, #36	@ 0x24
 80030bc:	f883 203d 	strb.w	r2, [r3, #61]	@ 0x3d

  /* Disable the selected I2C peripheral */
  __HAL_I2C_DISABLE(hi2c);
 80030c0:	687b      	ldr	r3, [r7, #4]
 80030c2:	681b      	ldr	r3, [r3, #0]
 80030c4:	681a      	ldr	r2, [r3, #0]
 80030c6:	687b      	ldr	r3, [r7, #4]
 80030c8:	681b      	ldr	r3, [r3, #0]
 80030ca:	f022 0201 	bic.w	r2, r2, #1
 80030ce:	601a      	str	r2, [r3, #0]

  /*Reset I2C*/
  hi2c->Instance->CR1 |= I2C_CR1_SWRST;
 80030d0:	687b      	ldr	r3, [r7, #4]
 80030d2:	681b      	ldr	r3, [r3, #0]
 80030d4:	681a      	ldr	r2, [r3, #0]
 80030d6:	687b      	ldr	r3, [r7, #4]
 80030d8:	681b      	ldr	r3, [r3, #0]
 80030da:	f442 4200 	orr.w	r2, r2, #32768	@ 0x8000
 80030de:	601a      	str	r2, [r3, #0]
  hi2c->Instance->CR1 &= ~I2C_CR1_SWRST;
 80030e0:	687b      	ldr	r3, [r7, #4]
 80030e2:	681b      	ldr	r3, [r3, #0]
 80030e4:	681a      	ldr	r2, [r3, #0]
 80030e6:	687b      	ldr	r3, [r7, #4]
 80030e8:	681b      	ldr	r3, [r3, #0]
 80030ea:	f422 4200 	bic.w	r2, r2, #32768	@ 0x8000
 80030ee:	601a      	str	r2, [r3, #0]

  /* Get PCLK1 frequency */
  pclk1 = HAL_RCC_GetPCLK1Freq();
 80030f0:	f001 fe1a 	bl	8004d28 <HAL_RCC_GetPCLK1Freq>
 80030f4:	60f8      	str	r0, [r7, #12]

  /* Check the minimum allowed PCLK1 frequency */
  if (I2C_MIN_PCLK_FREQ(pclk1, hi2c->Init.ClockSpeed) == 1U)
 80030f6:	687b      	ldr	r3, [r7, #4]
 80030f8:	685b      	ldr	r3, [r3, #4]
 80030fa:	4a81      	ldr	r2, [pc, #516]	@ (8003300 <HAL_I2C_Init+0x274>)
 80030fc:	4293      	cmp	r3, r2
 80030fe:	d807      	bhi.n	8003110 <HAL_I2C_Init+0x84>
 8003100:	68fb      	ldr	r3, [r7, #12]
 8003102:	4a80      	ldr	r2, [pc, #512]	@ (8003304 <HAL_I2C_Init+0x278>)
 8003104:	4293      	cmp	r3, r2
 8003106:	bf94      	ite	ls
 8003108:	2301      	movls	r3, #1
 800310a:	2300      	movhi	r3, #0
 800310c:	b2db      	uxtb	r3, r3
 800310e:	e006      	b.n	800311e <HAL_I2C_Init+0x92>
 8003110:	68fb      	ldr	r3, [r7, #12]
 8003112:	4a7d      	ldr	r2, [pc, #500]	@ (8003308 <HAL_I2C_Init+0x27c>)
 8003114:	4293      	cmp	r3, r2
 8003116:	bf94      	ite	ls
 8003118:	2301      	movls	r3, #1
 800311a:	2300      	movhi	r3, #0
 800311c:	b2db      	uxtb	r3, r3
 800311e:	2b00      	cmp	r3, #0
 8003120:	d001      	beq.n	8003126 <HAL_I2C_Init+0x9a>
  {
    return HAL_ERROR;
 8003122:	2301      	movs	r3, #1
 8003124:	e0e7      	b.n	80032f6 <HAL_I2C_Init+0x26a>
  }

  /* Calculate frequency range */
  freqrange = I2C_FREQRANGE(pclk1);
 8003126:	68fb      	ldr	r3, [r7, #12]
 8003128:	4a78      	ldr	r2, [pc, #480]	@ (800330c <HAL_I2C_Init+0x280>)
 800312a:	fba2 2303 	umull	r2, r3, r2, r3
 800312e:	0c9b      	lsrs	r3, r3, #18
 8003130:	60bb      	str	r3, [r7, #8]

  /*---------------------------- I2Cx CR2 Configuration ----------------------*/
  /* Configure I2Cx: Frequency range */
  MODIFY_REG(hi2c->Instance->CR2, I2C_CR2_FREQ, freqrange);
 8003132:	687b      	ldr	r3, [r7, #4]
 8003134:	681b      	ldr	r3, [r3, #0]
 8003136:	685b      	ldr	r3, [r3, #4]
 8003138:	f023 013f 	bic.w	r1, r3, #63	@ 0x3f
 800313c:	687b      	ldr	r3, [r7, #4]
 800313e:	681b      	ldr	r3, [r3, #0]
 8003140:	68ba      	ldr	r2, [r7, #8]
 8003142:	430a      	orrs	r2, r1
 8003144:	605a      	str	r2, [r3, #4]

  /*---------------------------- I2Cx TRISE Configuration --------------------*/
  /* Configure I2Cx: Rise Time */
  MODIFY_REG(hi2c->Instance->TRISE, I2C_TRISE_TRISE, I2C_RISE_TIME(freqrange, hi2c->Init.ClockSpeed));
 8003146:	687b      	ldr	r3, [r7, #4]
 8003148:	681b      	ldr	r3, [r3, #0]
 800314a:	6a1b      	ldr	r3, [r3, #32]
 800314c:	f023 013f 	bic.w	r1, r3, #63	@ 0x3f
 8003150:	687b      	ldr	r3, [r7, #4]
 8003152:	685b      	ldr	r3, [r3, #4]
 8003154:	4a6a      	ldr	r2, [pc, #424]	@ (8003300 <HAL_I2C_Init+0x274>)
 8003156:	4293      	cmp	r3, r2
 8003158:	d802      	bhi.n	8003160 <HAL_I2C_Init+0xd4>
 800315a:	68bb      	ldr	r3, [r7, #8]
 800315c:	3301      	adds	r3, #1
 800315e:	e009      	b.n	8003174 <HAL_I2C_Init+0xe8>
 8003160:	68bb      	ldr	r3, [r7, #8]
 8003162:	f44f 7296 	mov.w	r2, #300	@ 0x12c
 8003166:	fb02 f303 	mul.w	r3, r2, r3
 800316a:	4a69      	ldr	r2, [pc, #420]	@ (8003310 <HAL_I2C_Init+0x284>)
 800316c:	fba2 2303 	umull	r2, r3, r2, r3
 8003170:	099b      	lsrs	r3, r3, #6
 8003172:	3301      	adds	r3, #1
 8003174:	687a      	ldr	r2, [r7, #4]
 8003176:	6812      	ldr	r2, [r2, #0]
 8003178:	430b      	orrs	r3, r1
 800317a:	6213      	str	r3, [r2, #32]

  /*---------------------------- I2Cx CCR Configuration ----------------------*/
  /* Configure I2Cx: Speed */
  MODIFY_REG(hi2c->Instance->CCR, (I2C_CCR_FS | I2C_CCR_DUTY | I2C_CCR_CCR), I2C_SPEED(pclk1, hi2c->Init.ClockSpeed, hi2c->Init.DutyCycle));
 800317c:	687b      	ldr	r3, [r7, #4]
 800317e:	681b      	ldr	r3, [r3, #0]
 8003180:	69db      	ldr	r3, [r3, #28]
 8003182:	f423 424f 	bic.w	r2, r3, #52992	@ 0xcf00
 8003186:	f022 02ff 	bic.w	r2, r2, #255	@ 0xff
 800318a:	687b      	ldr	r3, [r7, #4]
 800318c:	685b      	ldr	r3, [r3, #4]
 800318e:	495c      	ldr	r1, [pc, #368]	@ (8003300 <HAL_I2C_Init+0x274>)
 8003190:	428b      	cmp	r3, r1
 8003192:	d819      	bhi.n	80031c8 <HAL_I2C_Init+0x13c>
 8003194:	68fb      	ldr	r3, [r7, #12]
 8003196:	1e59      	subs	r1, r3, #1
 8003198:	687b      	ldr	r3, [r7, #4]
 800319a:	685b      	ldr	r3, [r3, #4]
 800319c:	005b      	lsls	r3, r3, #1
 800319e:	fbb1 f3f3 	udiv	r3, r1, r3
 80031a2:	1c59      	adds	r1, r3, #1
 80031a4:	f640 73fc 	movw	r3, #4092	@ 0xffc
 80031a8:	400b      	ands	r3, r1
 80031aa:	2b00      	cmp	r3, #0
 80031ac:	d00a      	beq.n	80031c4 <HAL_I2C_Init+0x138>
 80031ae:	68fb      	ldr	r3, [r7, #12]
 80031b0:	1e59      	subs	r1, r3, #1
 80031b2:	687b      	ldr	r3, [r7, #4]
 80031b4:	685b      	ldr	r3, [r3, #4]
 80031b6:	005b      	lsls	r3, r3, #1
 80031b8:	fbb1 f3f3 	udiv	r3, r1, r3
 80031bc:	3301      	adds	r3, #1
 80031be:	f3c3 030b 	ubfx	r3, r3, #0, #12
 80031c2:	e051      	b.n	8003268 <HAL_I2C_Init+0x1dc>
 80031c4:	2304      	movs	r3, #4
 80031c6:	e04f      	b.n	8003268 <HAL_I2C_Init+0x1dc>
 80031c8:	687b      	ldr	r3, [r7, #4]
 80031ca:	689b      	ldr	r3, [r3, #8]
 80031cc:	2b00      	cmp	r3, #0
 80031ce:	d111      	bne.n	80031f4 <HAL_I2C_Init+0x168>
 80031d0:	68fb      	ldr	r3, [r7, #12]
 80031d2:	1e58      	subs	r0, r3, #1
 80031d4:	687b      	ldr	r3, [r7, #4]
 80031d6:	6859      	ldr	r1, [r3, #4]
 80031d8:	460b      	mov	r3, r1
 80031da:	005b      	lsls	r3, r3, #1
 80031dc:	440b      	add	r3, r1
 80031de:	fbb0 f3f3 	udiv	r3, r0, r3
 80031e2:	3301      	adds	r3, #1
 80031e4:	f3c3 030b 	ubfx	r3, r3, #0, #12
 80031e8:	2b00      	cmp	r3, #0
 80031ea:	bf0c      	ite	eq
 80031ec:	2301      	moveq	r3, #1
 80031ee:	2300      	movne	r3, #0
 80031f0:	b2db      	uxtb	r3, r3
 80031f2:	e012      	b.n	800321a <HAL_I2C_Init+0x18e>
 80031f4:	68fb      	ldr	r3, [r7, #12]
 80031f6:	1e58      	subs	r0, r3, #1
 80031f8:	687b      	ldr	r3, [r7, #4]
 80031fa:	6859      	ldr	r1, [r3, #4]
 80031fc:	460b      	mov	r3, r1
 80031fe:	009b      	lsls	r3, r3, #2
 8003200:	440b      	add	r3, r1
 8003202:	0099      	lsls	r1, r3, #2
 8003204:	440b      	add	r3, r1
 8003206:	fbb0 f3f3 	udiv	r3, r0, r3
 800320a:	3301      	adds	r3, #1
 800320c:	f3c3 030b 	ubfx	r3, r3, #0, #12
 8003210:	2b00      	cmp	r3, #0
 8003212:	bf0c      	ite	eq
 8003214:	2301      	moveq	r3, #1
 8003216:	2300      	movne	r3, #0
 8003218:	b2db      	uxtb	r3, r3
 800321a:	2b00      	cmp	r3, #0
 800321c:	d001      	beq.n	8003222 <HAL_I2C_Init+0x196>
 800321e:	2301      	movs	r3, #1
 8003220:	e022      	b.n	8003268 <HAL_I2C_Init+0x1dc>
 8003222:	687b      	ldr	r3, [r7, #4]
 8003224:	689b      	ldr	r3, [r3, #8]
 8003226:	2b00      	cmp	r3, #0
 8003228:	d10e      	bne.n	8003248 <HAL_I2C_Init+0x1bc>
 800322a:	68fb      	ldr	r3, [r7, #12]
 800322c:	1e58      	subs	r0, r3, #1
 800322e:	687b      	ldr	r3, [r7, #4]
 8003230:	6859      	ldr	r1, [r3, #4]
 8003232:	460b      	mov	r3, r1
 8003234:	005b      	lsls	r3, r3, #1
 8003236:	440b      	add	r3, r1
 8003238:	fbb0 f3f3 	udiv	r3, r0, r3
 800323c:	3301      	adds	r3, #1
 800323e:	f3c3 030b 	ubfx	r3, r3, #0, #12
 8003242:	f443 4300 	orr.w	r3, r3, #32768	@ 0x8000
 8003246:	e00f      	b.n	8003268 <HAL_I2C_Init+0x1dc>
 8003248:	68fb      	ldr	r3, [r7, #12]
 800324a:	1e58      	subs	r0, r3, #1
 800324c:	687b      	ldr	r3, [r7, #4]
 800324e:	6859      	ldr	r1, [r3, #4]
 8003250:	460b      	mov	r3, r1
 8003252:	009b      	lsls	r3, r3, #2
 8003254:	440b      	add	r3, r1
 8003256:	0099      	lsls	r1, r3, #2
 8003258:	440b      	add	r3, r1
 800325a:	fbb0 f3f3 	udiv	r3, r0, r3
 800325e:	3301      	adds	r3, #1
 8003260:	f3c3 030b 	ubfx	r3, r3, #0, #12
 8003264:	f443 4340 	orr.w	r3, r3, #49152	@ 0xc000
 8003268:	6879      	ldr	r1, [r7, #4]
 800326a:	6809      	ldr	r1, [r1, #0]
 800326c:	4313      	orrs	r3, r2
 800326e:	61cb      	str	r3, [r1, #28]

  /*---------------------------- I2Cx CR1 Configuration ----------------------*/
  /* Configure I2Cx: Generalcall and NoStretch mode */
  MODIFY_REG(hi2c->Instance->CR1, (I2C_CR1_ENGC | I2C_CR1_NOSTRETCH), (hi2c->Init.GeneralCallMode | hi2c->Init.NoStretchMode));
 8003270:	687b      	ldr	r3, [r7, #4]
 8003272:	681b      	ldr	r3, [r3, #0]
 8003274:	681b      	ldr	r3, [r3, #0]
 8003276:	f023 01c0 	bic.w	r1, r3, #192	@ 0xc0
 800327a:	687b      	ldr	r3, [r7, #4]
 800327c:	69da      	ldr	r2, [r3, #28]
 800327e:	687b      	ldr	r3, [r7, #4]
 8003280:	6a1b      	ldr	r3, [r3, #32]
 8003282:	431a      	orrs	r2, r3
 8003284:	687b      	ldr	r3, [r7, #4]
 8003286:	681b      	ldr	r3, [r3, #0]
 8003288:	430a      	orrs	r2, r1
 800328a:	601a      	str	r2, [r3, #0]

  /*---------------------------- I2Cx OAR1 Configuration ---------------------*/
  /* Configure I2Cx: Own Address1 and addressing mode */
  MODIFY_REG(hi2c->Instance->OAR1, (I2C_OAR1_ADDMODE | I2C_OAR1_ADD8_9 | I2C_OAR1_ADD1_7 | I2C_OAR1_ADD0), (hi2c->Init.AddressingMode | hi2c->Init.OwnAddress1));
 800328c:	687b      	ldr	r3, [r7, #4]
 800328e:	681b      	ldr	r3, [r3, #0]
 8003290:	689b      	ldr	r3, [r3, #8]
 8003292:	f423 4303 	bic.w	r3, r3, #33536	@ 0x8300
 8003296:	f023 03ff 	bic.w	r3, r3, #255	@ 0xff
 800329a:	687a      	ldr	r2, [r7, #4]
 800329c:	6911      	ldr	r1, [r2, #16]
 800329e:	687a      	ldr	r2, [r7, #4]
 80032a0:	68d2      	ldr	r2, [r2, #12]
 80032a2:	4311      	orrs	r1, r2
 80032a4:	687a      	ldr	r2, [r7, #4]
 80032a6:	6812      	ldr	r2, [r2, #0]
 80032a8:	430b      	orrs	r3, r1
 80032aa:	6093      	str	r3, [r2, #8]

  /*---------------------------- I2Cx OAR2 Configuration ---------------------*/
  /* Configure I2Cx: Dual mode and Own Address2 */
  MODIFY_REG(hi2c->Instance->OAR2, (I2C_OAR2_ENDUAL | I2C_OAR2_ADD2), (hi2c->Init.DualAddressMode | hi2c->Init.OwnAddress2));
 80032ac:	687b      	ldr	r3, [r7, #4]
 80032ae:	681b      	ldr	r3, [r3, #0]
 80032b0:	68db      	ldr	r3, [r3, #12]
 80032b2:	f023 01ff 	bic.w	r1, r3, #255	@ 0xff
 80032b6:	687b      	ldr	r3, [r7, #4]
 80032b8:	695a      	ldr	r2, [r3, #20]
 80032ba:	687b      	ldr	r3, [r7, #4]
 80032bc:	699b      	ldr	r3, [r3, #24]
 80032be:	431a      	orrs	r2, r3
 80032c0:	687b      	ldr	r3, [r7, #4]
 80032c2:	681b      	ldr	r3, [r3, #0]
 80032c4:	430a      	orrs	r2, r1
 80032c6:	60da      	str	r2, [r3, #12]

  /* Enable the selected I2C peripheral */
  __HAL_I2C_ENABLE(hi2c);
 80032c8:	687b      	ldr	r3, [r7, #4]
 80032ca:	681b      	ldr	r3, [r3, #0]
 80032cc:	681a      	ldr	r2, [r3, #0]
 80032ce:	687b      	ldr	r3, [r7, #4]
 80032d0:	681b      	ldr	r3, [r3, #0]
 80032d2:	f042 0201 	orr.w	r2, r2, #1
 80032d6:	601a      	str	r2, [r3, #0]

  hi2c->ErrorCode = HAL_I2C_ERROR_NONE;
 80032d8:	687b      	ldr	r3, [r7, #4]
 80032da:	2200      	movs	r2, #0
 80032dc:	641a      	str	r2, [r3, #64]	@ 0x40
  hi2c->State = HAL_I2C_STATE_READY;
 80032de:	687b      	ldr	r3, [r7, #4]
 80032e0:	2220      	movs	r2, #32
 80032e2:	f883 203d 	strb.w	r2, [r3, #61]	@ 0x3d
  hi2c->PreviousState = I2C_STATE_NONE;
 80032e6:	687b      	ldr	r3, [r7, #4]
 80032e8:	2200      	movs	r2, #0
 80032ea:	631a      	str	r2, [r3, #48]	@ 0x30
  hi2c->Mode = HAL_I2C_MODE_NONE;
 80032ec:	687b      	ldr	r3, [r7, #4]
 80032ee:	2200      	movs	r2, #0
 80032f0:	f883 203e 	strb.w	r2, [r3, #62]	@ 0x3e

  return HAL_OK;
 80032f4:	2300      	movs	r3, #0
}
 80032f6:	4618      	mov	r0, r3
 80032f8:	3710      	adds	r7, #16
 80032fa:	46bd      	mov	sp, r7
 80032fc:	bd80      	pop	{r7, pc}
 80032fe:	bf00      	nop
 8003300:	000186a0 	.word	0x000186a0
 8003304:	001e847f 	.word	0x001e847f
 8003308:	003d08ff 	.word	0x003d08ff
 800330c:	431bde83 	.word	0x431bde83
 8003310:	10624dd3 	.word	0x10624dd3

08003314 <HAL_I2C_Mem_Write>:
  * @param  Size Amount of data to be sent
  * @param  Timeout Timeout duration
  * @retval HAL status
  */
HAL_StatusTypeDef HAL_I2C_Mem_Write(I2C_HandleTypeDef *hi2c, uint16_t DevAddress, uint16_t MemAddress, uint16_t MemAddSize, uint8_t *pData, uint16_t Size, uint32_t Timeout)
{
 8003314:	b580      	push	{r7, lr}
 8003316:	b088      	sub	sp, #32
 8003318:	af02      	add	r7, sp, #8
 800331a:	60f8      	str	r0, [r7, #12]
 800331c:	4608      	mov	r0, r1
 800331e:	4611      	mov	r1, r2
 8003320:	461a      	mov	r2, r3
 8003322:	4603      	mov	r3, r0
 8003324:	817b      	strh	r3, [r7, #10]
 8003326:	460b      	mov	r3, r1
 8003328:	813b      	strh	r3, [r7, #8]
 800332a:	4613      	mov	r3, r2
 800332c:	80fb      	strh	r3, [r7, #6]
  /* Init tickstart for timeout management*/
  uint32_t tickstart = HAL_GetTick();
 800332e:	f7ff fb39 	bl	80029a4 <HAL_GetTick>
 8003332:	6178      	str	r0, [r7, #20]

  /* Check the parameters */
  assert_param(IS_I2C_MEMADD_SIZE(MemAddSize));

  if (hi2c->State == HAL_I2C_STATE_READY)
 8003334:	68fb      	ldr	r3, [r7, #12]
 8003336:	f893 303d 	ldrb.w	r3, [r3, #61]	@ 0x3d
 800333a:	b2db      	uxtb	r3, r3
 800333c:	2b20      	cmp	r3, #32
 800333e:	f040 80d9 	bne.w	80034f4 <HAL_I2C_Mem_Write+0x1e0>
  {
    /* Wait until BUSY flag is reset */
    if (I2C_WaitOnFlagUntilTimeout(hi2c, I2C_FLAG_BUSY, SET, I2C_TIMEOUT_BUSY_FLAG, tickstart) != HAL_OK)
 8003342:	697b      	ldr	r3, [r7, #20]
 8003344:	9300      	str	r3, [sp, #0]
 8003346:	2319      	movs	r3, #25
 8003348:	2201      	movs	r2, #1
 800334a:	496d      	ldr	r1, [pc, #436]	@ (8003500 <HAL_I2C_Mem_Write+0x1ec>)
 800334c:	68f8      	ldr	r0, [r7, #12]
 800334e:	f000 fdb9 	bl	8003ec4 <I2C_WaitOnFlagUntilTimeout>
 8003352:	4603      	mov	r3, r0
 8003354:	2b00      	cmp	r3, #0
 8003356:	d001      	beq.n	800335c <HAL_I2C_Mem_Write+0x48>
    {
      return HAL_BUSY;
 8003358:	2302      	movs	r3, #2
 800335a:	e0cc      	b.n	80034f6 <HAL_I2C_Mem_Write+0x1e2>
    }

    /* Process Locked */
    __HAL_LOCK(hi2c);
 800335c:	68fb      	ldr	r3, [r7, #12]
 800335e:	f893 303c 	ldrb.w	r3, [r3, #60]	@ 0x3c
 8003362:	2b01      	cmp	r3, #1
 8003364:	d101      	bne.n	800336a <HAL_I2C_Mem_Write+0x56>
 8003366:	2302      	movs	r3, #2
 8003368:	e0c5      	b.n	80034f6 <HAL_I2C_Mem_Write+0x1e2>
 800336a:	68fb      	ldr	r3, [r7, #12]
 800336c:	2201      	movs	r2, #1
 800336e:	f883 203c 	strb.w	r2, [r3, #60]	@ 0x3c

    /* Check if the I2C is already enabled */
    if ((hi2c->Instance->CR1 & I2C_CR1_PE) != I2C_CR1_PE)
 8003372:	68fb      	ldr	r3, [r7, #12]
 8003374:	681b      	ldr	r3, [r3, #0]
 8003376:	681b      	ldr	r3, [r3, #0]
 8003378:	f003 0301 	and.w	r3, r3, #1
 800337c:	2b01      	cmp	r3, #1
 800337e:	d007      	beq.n	8003390 <HAL_I2C_Mem_Write+0x7c>
    {
      /* Enable I2C peripheral */
      __HAL_I2C_ENABLE(hi2c);
 8003380:	68fb      	ldr	r3, [r7, #12]
 8003382:	681b      	ldr	r3, [r3, #0]
 8003384:	681a      	ldr	r2, [r3, #0]
 8003386:	68fb      	ldr	r3, [r7, #12]
 8003388:	681b      	ldr	r3, [r3, #0]
 800338a:	f042 0201 	orr.w	r2, r2, #1
 800338e:	601a      	str	r2, [r3, #0]
    }

    /* Disable Pos */
    CLEAR_BIT(hi2c->Instance->CR1, I2C_CR1_POS);
 8003390:	68fb      	ldr	r3, [r7, #12]
 8003392:	681b      	ldr	r3, [r3, #0]
 8003394:	681a      	ldr	r2, [r3, #0]
 8003396:	68fb      	ldr	r3, [r7, #12]
 8003398:	681b      	ldr	r3, [r3, #0]
 800339a:	f422 6200 	bic.w	r2, r2, #2048	@ 0x800
 800339e:	601a      	str	r2, [r3, #0]

    hi2c->State     = HAL_I2C_STATE_BUSY_TX;
 80033a0:	68fb      	ldr	r3, [r7, #12]
 80033a2:	2221      	movs	r2, #33	@ 0x21
 80033a4:	f883 203d 	strb.w	r2, [r3, #61]	@ 0x3d
    hi2c->Mode      = HAL_I2C_MODE_MEM;
 80033a8:	68fb      	ldr	r3, [r7, #12]
 80033aa:	2240      	movs	r2, #64	@ 0x40
 80033ac:	f883 203e 	strb.w	r2, [r3, #62]	@ 0x3e
    hi2c->ErrorCode = HAL_I2C_ERROR_NONE;
 80033b0:	68fb      	ldr	r3, [r7, #12]
 80033b2:	2200      	movs	r2, #0
 80033b4:	641a      	str	r2, [r3, #64]	@ 0x40

    /* Prepare transfer parameters */
    hi2c->pBuffPtr    = pData;
 80033b6:	68fb      	ldr	r3, [r7, #12]
 80033b8:	6a3a      	ldr	r2, [r7, #32]
 80033ba:	625a      	str	r2, [r3, #36]	@ 0x24
    hi2c->XferCount   = Size;
 80033bc:	68fb      	ldr	r3, [r7, #12]
 80033be:	8cba      	ldrh	r2, [r7, #36]	@ 0x24
 80033c0:	855a      	strh	r2, [r3, #42]	@ 0x2a
    hi2c->XferSize    = hi2c->XferCount;
 80033c2:	68fb      	ldr	r3, [r7, #12]
 80033c4:	8d5b      	ldrh	r3, [r3, #42]	@ 0x2a
 80033c6:	b29a      	uxth	r2, r3
 80033c8:	68fb      	ldr	r3, [r7, #12]
 80033ca:	851a      	strh	r2, [r3, #40]	@ 0x28
    hi2c->XferOptions = I2C_NO_OPTION_FRAME;
 80033cc:	68fb      	ldr	r3, [r7, #12]
 80033ce:	4a4d      	ldr	r2, [pc, #308]	@ (8003504 <HAL_I2C_Mem_Write+0x1f0>)
 80033d0:	62da      	str	r2, [r3, #44]	@ 0x2c

    /* Send Slave Address and Memory Address */
    if (I2C_RequestMemoryWrite(hi2c, DevAddress, MemAddress, MemAddSize, Timeout, tickstart) != HAL_OK)
 80033d2:	88f8      	ldrh	r0, [r7, #6]
 80033d4:	893a      	ldrh	r2, [r7, #8]
 80033d6:	8979      	ldrh	r1, [r7, #10]
 80033d8:	697b      	ldr	r3, [r7, #20]
 80033da:	9301      	str	r3, [sp, #4]
 80033dc:	6abb      	ldr	r3, [r7, #40]	@ 0x28
 80033de:	9300      	str	r3, [sp, #0]
 80033e0:	4603      	mov	r3, r0
 80033e2:	68f8      	ldr	r0, [r7, #12]
 80033e4:	f000 fbf0 	bl	8003bc8 <I2C_RequestMemoryWrite>
 80033e8:	4603      	mov	r3, r0
 80033ea:	2b00      	cmp	r3, #0
 80033ec:	d052      	beq.n	8003494 <HAL_I2C_Mem_Write+0x180>
    {
      return HAL_ERROR;
 80033ee:	2301      	movs	r3, #1
 80033f0:	e081      	b.n	80034f6 <HAL_I2C_Mem_Write+0x1e2>
    }

    while (hi2c->XferSize > 0U)
    {
      /* Wait until TXE flag is set */
      if (I2C_WaitOnTXEFlagUntilTimeout(hi2c, Timeout, tickstart) != HAL_OK)
 80033f2:	697a      	ldr	r2, [r7, #20]
 80033f4:	6ab9      	ldr	r1, [r7, #40]	@ 0x28
 80033f6:	68f8      	ldr	r0, [r7, #12]
 80033f8:	f000 fe7e 	bl	80040f8 <I2C_WaitOnTXEFlagUntilTimeout>
 80033fc:	4603      	mov	r3, r0
 80033fe:	2b00      	cmp	r3, #0
 8003400:	d00d      	beq.n	800341e <HAL_I2C_Mem_Write+0x10a>
      {
        if (hi2c->ErrorCode == HAL_I2C_ERROR_AF)
 8003402:	68fb      	ldr	r3, [r7, #12]
 8003404:	6c1b      	ldr	r3, [r3, #64]	@ 0x40
 8003406:	2b04      	cmp	r3, #4
 8003408:	d107      	bne.n	800341a <HAL_I2C_Mem_Write+0x106>
        {
          /* Generate Stop */
          SET_BIT(hi2c->Instance->CR1, I2C_CR1_STOP);
 800340a:	68fb      	ldr	r3, [r7, #12]
 800340c:	681b      	ldr	r3, [r3, #0]
 800340e:	681a      	ldr	r2, [r3, #0]
 8003410:	68fb      	ldr	r3, [r7, #12]
 8003412:	681b      	ldr	r3, [r3, #0]
 8003414:	f442 7200 	orr.w	r2, r2, #512	@ 0x200
 8003418:	601a      	str	r2, [r3, #0]
        }
        return HAL_ERROR;
 800341a:	2301      	movs	r3, #1
 800341c:	e06b      	b.n	80034f6 <HAL_I2C_Mem_Write+0x1e2>
      }

      /* Write data to DR */
      hi2c->Instance->DR = *hi2c->pBuffPtr;
 800341e:	68fb      	ldr	r3, [r7, #12]
 8003420:	6a5b      	ldr	r3, [r3, #36]	@ 0x24
 8003422:	781a      	ldrb	r2, [r3, #0]
 8003424:	68fb      	ldr	r3, [r7, #12]
 8003426:	681b      	ldr	r3, [r3, #0]
 8003428:	611a      	str	r2, [r3, #16]

      /* Increment Buffer pointer */
      hi2c->pBuffPtr++;
 800342a:	68fb      	ldr	r3, [r7, #12]
 800342c:	6a5b      	ldr	r3, [r3, #36]	@ 0x24
 800342e:	1c5a      	adds	r2, r3, #1
 8003430:	68fb      	ldr	r3, [r7, #12]
 8003432:	625a      	str	r2, [r3, #36]	@ 0x24

      /* Update counter */
      hi2c->XferSize--;
 8003434:	68fb      	ldr	r3, [r7, #12]
 8003436:	8d1b      	ldrh	r3, [r3, #40]	@ 0x28
 8003438:	3b01      	subs	r3, #1
 800343a:	b29a      	uxth	r2, r3
 800343c:	68fb      	ldr	r3, [r7, #12]
 800343e:	851a      	strh	r2, [r3, #40]	@ 0x28
      hi2c->XferCount--;
 8003440:	68fb      	ldr	r3, [r7, #12]
 8003442:	8d5b      	ldrh	r3, [r3, #42]	@ 0x2a
 8003444:	b29b      	uxth	r3, r3
 8003446:	3b01      	subs	r3, #1
 8003448:	b29a      	uxth	r2, r3
 800344a:	68fb      	ldr	r3, [r7, #12]
 800344c:	855a      	strh	r2, [r3, #42]	@ 0x2a

      if ((__HAL_I2C_GET_FLAG(hi2c, I2C_FLAG_BTF) == SET) && (hi2c->XferSize != 0U))
 800344e:	68fb      	ldr	r3, [r7, #12]
 8003450:	681b      	ldr	r3, [r3, #0]
 8003452:	695b      	ldr	r3, [r3, #20]
 8003454:	f003 0304 	and.w	r3, r3, #4
 8003458:	2b04      	cmp	r3, #4
 800345a:	d11b      	bne.n	8003494 <HAL_I2C_Mem_Write+0x180>
 800345c:	68fb      	ldr	r3, [r7, #12]
 800345e:	8d1b      	ldrh	r3, [r3, #40]	@ 0x28
 8003460:	2b00      	cmp	r3, #0
 8003462:	d017      	beq.n	8003494 <HAL_I2C_Mem_Write+0x180>
      {
        /* Write data to DR */
        hi2c->Instance->DR = *hi2c->pBuffPtr;
 8003464:	68fb      	ldr	r3, [r7, #12]
 8003466:	6a5b      	ldr	r3, [r3, #36]	@ 0x24
 8003468:	781a      	ldrb	r2, [r3, #0]
 800346a:	68fb      	ldr	r3, [r7, #12]
 800346c:	681b      	ldr	r3, [r3, #0]
 800346e:	611a      	str	r2, [r3, #16]

        /* Increment Buffer pointer */
        hi2c->pBuffPtr++;
 8003470:	68fb      	ldr	r3, [r7, #12]
 8003472:	6a5b      	ldr	r3, [r3, #36]	@ 0x24
 8003474:	1c5a      	adds	r2, r3, #1
 8003476:	68fb      	ldr	r3, [r7, #12]
 8003478:	625a      	str	r2, [r3, #36]	@ 0x24

        /* Update counter */
        hi2c->XferSize--;
 800347a:	68fb      	ldr	r3, [r7, #12]
 800347c:	8d1b      	ldrh	r3, [r3, #40]	@ 0x28
 800347e:	3b01      	subs	r3, #1
 8003480:	b29a      	uxth	r2, r3
 8003482:	68fb      	ldr	r3, [r7, #12]
 8003484:	851a      	strh	r2, [r3, #40]	@ 0x28
        hi2c->XferCount--;
 8003486:	68fb      	ldr	r3, [r7, #12]
 8003488:	8d5b      	ldrh	r3, [r3, #42]	@ 0x2a
 800348a:	b29b      	uxth	r3, r3
 800348c:	3b01      	subs	r3, #1
 800348e:	b29a      	uxth	r2, r3
 8003490:	68fb      	ldr	r3, [r7, #12]
 8003492:	855a      	strh	r2, [r3, #42]	@ 0x2a
    while (hi2c->XferSize > 0U)
 8003494:	68fb      	ldr	r3, [r7, #12]
 8003496:	8d1b      	ldrh	r3, [r3, #40]	@ 0x28
 8003498:	2b00      	cmp	r3, #0
 800349a:	d1aa      	bne.n	80033f2 <HAL_I2C_Mem_Write+0xde>
      }
    }

    /* Wait until BTF flag is set */
    if (I2C_WaitOnBTFFlagUntilTimeout(hi2c, Timeout, tickstart) != HAL_OK)
 800349c:	697a      	ldr	r2, [r7, #20]
 800349e:	6ab9      	ldr	r1, [r7, #40]	@ 0x28
 80034a0:	68f8      	ldr	r0, [r7, #12]
 80034a2:	f000 fe71 	bl	8004188 <I2C_WaitOnBTFFlagUntilTimeout>
 80034a6:	4603      	mov	r3, r0
 80034a8:	2b00      	cmp	r3, #0
 80034aa:	d00d      	beq.n	80034c8 <HAL_I2C_Mem_Write+0x1b4>
    {
      if (hi2c->ErrorCode == HAL_I2C_ERROR_AF)
 80034ac:	68fb      	ldr	r3, [r7, #12]
 80034ae:	6c1b      	ldr	r3, [r3, #64]	@ 0x40
 80034b0:	2b04      	cmp	r3, #4
 80034b2:	d107      	bne.n	80034c4 <HAL_I2C_Mem_Write+0x1b0>
      {
        /* Generate Stop */
        SET_BIT(hi2c->Instance->CR1, I2C_CR1_STOP);
 80034b4:	68fb      	ldr	r3, [r7, #12]
 80034b6:	681b      	ldr	r3, [r3, #0]
 80034b8:	681a      	ldr	r2, [r3, #0]
 80034ba:	68fb      	ldr	r3, [r7, #12]
 80034bc:	681b      	ldr	r3, [r3, #0]
 80034be:	f442 7200 	orr.w	r2, r2, #512	@ 0x200
 80034c2:	601a      	str	r2, [r3, #0]
      }
      return HAL_ERROR;
 80034c4:	2301      	movs	r3, #1
 80034c6:	e016      	b.n	80034f6 <HAL_I2C_Mem_Write+0x1e2>
    }

    /* Generate Stop */
    SET_BIT(hi2c->Instance->CR1, I2C_CR1_STOP);
 80034c8:	68fb      	ldr	r3, [r7, #12]
 80034ca:	681b      	ldr	r3, [r3, #0]
 80034cc:	681a      	ldr	r2, [r3, #0]
 80034ce:	68fb      	ldr	r3, [r7, #12]
 80034d0:	681b      	ldr	r3, [r3, #0]
 80034d2:	f442 7200 	orr.w	r2, r2, #512	@ 0x200
 80034d6:	601a      	str	r2, [r3, #0]

    hi2c->State = HAL_I2C_STATE_READY;
 80034d8:	68fb      	ldr	r3, [r7, #12]
 80034da:	2220      	movs	r2, #32
 80034dc:	f883 203d 	strb.w	r2, [r3, #61]	@ 0x3d
    hi2c->Mode = HAL_I2C_MODE_NONE;
 80034e0:	68fb      	ldr	r3, [r7, #12]
 80034e2:	2200      	movs	r2, #0
 80034e4:	f883 203e 	strb.w	r2, [r3, #62]	@ 0x3e

    /* Process Unlocked */
    __HAL_UNLOCK(hi2c);
 80034e8:	68fb      	ldr	r3, [r7, #12]
 80034ea:	2200      	movs	r2, #0
 80034ec:	f883 203c 	strb.w	r2, [r3, #60]	@ 0x3c

    return HAL_OK;
 80034f0:	2300      	movs	r3, #0
 80034f2:	e000      	b.n	80034f6 <HAL_I2C_Mem_Write+0x1e2>
  }
  else
  {
    return HAL_BUSY;
 80034f4:	2302      	movs	r3, #2
  }
}
 80034f6:	4618      	mov	r0, r3
 80034f8:	3718      	adds	r7, #24
 80034fa:	46bd      	mov	sp, r7
 80034fc:	bd80      	pop	{r7, pc}
 80034fe:	bf00      	nop
 8003500:	00100002 	.word	0x00100002
 8003504:	ffff0000 	.word	0xffff0000

08003508 <HAL_I2C_Mem_Read>:
  * @param  Size Amount of data to be sent
  * @param  Timeout Timeout duration
  * @retval HAL status
  */
HAL_StatusTypeDef HAL_I2C_Mem_Read(I2C_HandleTypeDef *hi2c, uint16_t DevAddress, uint16_t MemAddress, uint16_t MemAddSize, uint8_t *pData, uint16_t Size, uint32_t Timeout)
{
 8003508:	b580      	push	{r7, lr}
 800350a:	b08c      	sub	sp, #48	@ 0x30
 800350c:	af02      	add	r7, sp, #8
 800350e:	60f8      	str	r0, [r7, #12]
 8003510:	4608      	mov	r0, r1
 8003512:	4611      	mov	r1, r2
 8003514:	461a      	mov	r2, r3
 8003516:	4603      	mov	r3, r0
 8003518:	817b      	strh	r3, [r7, #10]
 800351a:	460b      	mov	r3, r1
 800351c:	813b      	strh	r3, [r7, #8]
 800351e:	4613      	mov	r3, r2
 8003520:	80fb      	strh	r3, [r7, #6]
  /* Init tickstart for timeout management*/
  uint32_t tickstart = HAL_GetTick();
 8003522:	f7ff fa3f 	bl	80029a4 <HAL_GetTick>
 8003526:	6278      	str	r0, [r7, #36]	@ 0x24

  /* Check the parameters */
  assert_param(IS_I2C_MEMADD_SIZE(MemAddSize));

  if (hi2c->State == HAL_I2C_STATE_READY)
 8003528:	68fb      	ldr	r3, [r7, #12]
 800352a:	f893 303d 	ldrb.w	r3, [r3, #61]	@ 0x3d
 800352e:	b2db      	uxtb	r3, r3
 8003530:	2b20      	cmp	r3, #32
 8003532:	f040 8214 	bne.w	800395e <HAL_I2C_Mem_Read+0x456>
  {
    /* Wait until BUSY flag is reset */
    if (I2C_WaitOnFlagUntilTimeout(hi2c, I2C_FLAG_BUSY, SET, I2C_TIMEOUT_BUSY_FLAG, tickstart) != HAL_OK)
 8003536:	6a7b      	ldr	r3, [r7, #36]	@ 0x24
 8003538:	9300      	str	r3, [sp, #0]
 800353a:	2319      	movs	r3, #25
 800353c:	2201      	movs	r2, #1
 800353e:	497b      	ldr	r1, [pc, #492]	@ (800372c <HAL_I2C_Mem_Read+0x224>)
 8003540:	68f8      	ldr	r0, [r7, #12]
 8003542:	f000 fcbf 	bl	8003ec4 <I2C_WaitOnFlagUntilTimeout>
 8003546:	4603      	mov	r3, r0
 8003548:	2b00      	cmp	r3, #0
 800354a:	d001      	beq.n	8003550 <HAL_I2C_Mem_Read+0x48>
    {
      return HAL_BUSY;
 800354c:	2302      	movs	r3, #2
 800354e:	e207      	b.n	8003960 <HAL_I2C_Mem_Read+0x458>
    }

    /* Process Locked */
    __HAL_LOCK(hi2c);
 8003550:	68fb      	ldr	r3, [r7, #12]
 8003552:	f893 303c 	ldrb.w	r3, [r3, #60]	@ 0x3c
 8003556:	2b01      	cmp	r3, #1
 8003558:	d101      	bne.n	800355e <HAL_I2C_Mem_Read+0x56>
 800355a:	2302      	movs	r3, #2
 800355c:	e200      	b.n	8003960 <HAL_I2C_Mem_Read+0x458>
 800355e:	68fb      	ldr	r3, [r7, #12]
 8003560:	2201      	movs	r2, #1
 8003562:	f883 203c 	strb.w	r2, [r3, #60]	@ 0x3c

    /* Check if the I2C is already enabled */
    if ((hi2c->Instance->CR1 & I2C_CR1_PE) != I2C_CR1_PE)
 8003566:	68fb      	ldr	r3, [r7, #12]
 8003568:	681b      	ldr	r3, [r3, #0]
 800356a:	681b      	ldr	r3, [r3, #0]
 800356c:	f003 0301 	and.w	r3, r3, #1
 8003570:	2b01      	cmp	r3, #1
 8003572:	d007      	beq.n	8003584 <HAL_I2C_Mem_Read+0x7c>
    {
      /* Enable I2C peripheral */
      __HAL_I2C_ENABLE(hi2c);
 8003574:	68fb      	ldr	r3, [r7, #12]
 8003576:	681b      	ldr	r3, [r3, #0]
 8003578:	681a      	ldr	r2, [r3, #0]
 800357a:	68fb      	ldr	r3, [r7, #12]
 800357c:	681b      	ldr	r3, [r3, #0]
 800357e:	f042 0201 	orr.w	r2, r2, #1
 8003582:	601a      	str	r2, [r3, #0]
    }

    /* Disable Pos */
    CLEAR_BIT(hi2c->Instance->CR1, I2C_CR1_POS);
 8003584:	68fb      	ldr	r3, [r7, #12]
 8003586:	681b      	ldr	r3, [r3, #0]
 8003588:	681a      	ldr	r2, [r3, #0]
 800358a:	68fb      	ldr	r3, [r7, #12]
 800358c:	681b      	ldr	r3, [r3, #0]
 800358e:	f422 6200 	bic.w	r2, r2, #2048	@ 0x800
 8003592:	601a      	str	r2, [r3, #0]

    hi2c->State     = HAL_I2C_STATE_BUSY_RX;
 8003594:	68fb      	ldr	r3, [r7, #12]
 8003596:	2222      	movs	r2, #34	@ 0x22
 8003598:	f883 203d 	strb.w	r2, [r3, #61]	@ 0x3d
    hi2c->Mode      = HAL_I2C_MODE_MEM;
 800359c:	68fb      	ldr	r3, [r7, #12]
 800359e:	2240      	movs	r2, #64	@ 0x40
 80035a0:	f883 203e 	strb.w	r2, [r3, #62]	@ 0x3e
    hi2c->ErrorCode = HAL_I2C_ERROR_NONE;
 80035a4:	68fb      	ldr	r3, [r7, #12]
 80035a6:	2200      	movs	r2, #0
 80035a8:	641a      	str	r2, [r3, #64]	@ 0x40

    /* Prepare transfer parameters */
    hi2c->pBuffPtr    = pData;
 80035aa:	68fb      	ldr	r3, [r7, #12]
 80035ac:	6b3a      	ldr	r2, [r7, #48]	@ 0x30
 80035ae:	625a      	str	r2, [r3, #36]	@ 0x24
    hi2c->XferCount   = Size;
 80035b0:	68fb      	ldr	r3, [r7, #12]
 80035b2:	8eba      	ldrh	r2, [r7, #52]	@ 0x34
 80035b4:	855a      	strh	r2, [r3, #42]	@ 0x2a
    hi2c->XferSize    = hi2c->XferCount;
 80035b6:	68fb      	ldr	r3, [r7, #12]
 80035b8:	8d5b      	ldrh	r3, [r3, #42]	@ 0x2a
 80035ba:	b29a      	uxth	r2, r3
 80035bc:	68fb      	ldr	r3, [r7, #12]
 80035be:	851a      	strh	r2, [r3, #40]	@ 0x28
    hi2c->XferOptions = I2C_NO_OPTION_FRAME;
 80035c0:	68fb      	ldr	r3, [r7, #12]
 80035c2:	4a5b      	ldr	r2, [pc, #364]	@ (8003730 <HAL_I2C_Mem_Read+0x228>)
 80035c4:	62da      	str	r2, [r3, #44]	@ 0x2c

    /* Send Slave Address and Memory Address */
    if (I2C_RequestMemoryRead(hi2c, DevAddress, MemAddress, MemAddSize, Timeout, tickstart) != HAL_OK)
 80035c6:	88f8      	ldrh	r0, [r7, #6]
 80035c8:	893a      	ldrh	r2, [r7, #8]
 80035ca:	8979      	ldrh	r1, [r7, #10]
 80035cc:	6a7b      	ldr	r3, [r7, #36]	@ 0x24
 80035ce:	9301      	str	r3, [sp, #4]
 80035d0:	6bbb      	ldr	r3, [r7, #56]	@ 0x38
 80035d2:	9300      	str	r3, [sp, #0]
 80035d4:	4603      	mov	r3, r0
 80035d6:	68f8      	ldr	r0, [r7, #12]
 80035d8:	f000 fb8c 	bl	8003cf4 <I2C_RequestMemoryRead>
 80035dc:	4603      	mov	r3, r0
 80035de:	2b00      	cmp	r3, #0
 80035e0:	d001      	beq.n	80035e6 <HAL_I2C_Mem_Read+0xde>
    {
      return HAL_ERROR;
 80035e2:	2301      	movs	r3, #1
 80035e4:	e1bc      	b.n	8003960 <HAL_I2C_Mem_Read+0x458>
    }

    if (hi2c->XferSize == 0U)
 80035e6:	68fb      	ldr	r3, [r7, #12]
 80035e8:	8d1b      	ldrh	r3, [r3, #40]	@ 0x28
 80035ea:	2b00      	cmp	r3, #0
 80035ec:	d113      	bne.n	8003616 <HAL_I2C_Mem_Read+0x10e>
    {
      /* Clear ADDR flag */
      __HAL_I2C_CLEAR_ADDRFLAG(hi2c);
 80035ee:	2300      	movs	r3, #0
 80035f0:	623b      	str	r3, [r7, #32]
 80035f2:	68fb      	ldr	r3, [r7, #12]
 80035f4:	681b      	ldr	r3, [r3, #0]
 80035f6:	695b      	ldr	r3, [r3, #20]
 80035f8:	623b      	str	r3, [r7, #32]
 80035fa:	68fb      	ldr	r3, [r7, #12]
 80035fc:	681b      	ldr	r3, [r3, #0]
 80035fe:	699b      	ldr	r3, [r3, #24]
 8003600:	623b      	str	r3, [r7, #32]
 8003602:	6a3b      	ldr	r3, [r7, #32]

      /* Generate Stop */
      SET_BIT(hi2c->Instance->CR1, I2C_CR1_STOP);
 8003604:	68fb      	ldr	r3, [r7, #12]
 8003606:	681b      	ldr	r3, [r3, #0]
 8003608:	681a      	ldr	r2, [r3, #0]
 800360a:	68fb      	ldr	r3, [r7, #12]
 800360c:	681b      	ldr	r3, [r3, #0]
 800360e:	f442 7200 	orr.w	r2, r2, #512	@ 0x200
 8003612:	601a      	str	r2, [r3, #0]
 8003614:	e190      	b.n	8003938 <HAL_I2C_Mem_Read+0x430>
    }
    else if (hi2c->XferSize == 1U)
 8003616:	68fb      	ldr	r3, [r7, #12]
 8003618:	8d1b      	ldrh	r3, [r3, #40]	@ 0x28
 800361a:	2b01      	cmp	r3, #1
 800361c:	d11b      	bne.n	8003656 <HAL_I2C_Mem_Read+0x14e>
    {
      /* Disable Acknowledge */
      CLEAR_BIT(hi2c->Instance->CR1, I2C_CR1_ACK);
 800361e:	68fb      	ldr	r3, [r7, #12]
 8003620:	681b      	ldr	r3, [r3, #0]
 8003622:	681a      	ldr	r2, [r3, #0]
 8003624:	68fb      	ldr	r3, [r7, #12]
 8003626:	681b      	ldr	r3, [r3, #0]
 8003628:	f422 6280 	bic.w	r2, r2, #1024	@ 0x400
 800362c:	601a      	str	r2, [r3, #0]

      /* Clear ADDR flag */
      __HAL_I2C_CLEAR_ADDRFLAG(hi2c);
 800362e:	2300      	movs	r3, #0
 8003630:	61fb      	str	r3, [r7, #28]
 8003632:	68fb      	ldr	r3, [r7, #12]
 8003634:	681b      	ldr	r3, [r3, #0]
 8003636:	695b      	ldr	r3, [r3, #20]
 8003638:	61fb      	str	r3, [r7, #28]
 800363a:	68fb      	ldr	r3, [r7, #12]
 800363c:	681b      	ldr	r3, [r3, #0]
 800363e:	699b      	ldr	r3, [r3, #24]
 8003640:	61fb      	str	r3, [r7, #28]
 8003642:	69fb      	ldr	r3, [r7, #28]

      /* Generate Stop */
      SET_BIT(hi2c->Instance->CR1, I2C_CR1_STOP);
 8003644:	68fb      	ldr	r3, [r7, #12]
 8003646:	681b      	ldr	r3, [r3, #0]
 8003648:	681a      	ldr	r2, [r3, #0]
 800364a:	68fb      	ldr	r3, [r7, #12]
 800364c:	681b      	ldr	r3, [r3, #0]
 800364e:	f442 7200 	orr.w	r2, r2, #512	@ 0x200
 8003652:	601a      	str	r2, [r3, #0]
 8003654:	e170      	b.n	8003938 <HAL_I2C_Mem_Read+0x430>
    }
    else if (hi2c->XferSize == 2U)
 8003656:	68fb      	ldr	r3, [r7, #12]
 8003658:	8d1b      	ldrh	r3, [r3, #40]	@ 0x28
 800365a:	2b02      	cmp	r3, #2
 800365c:	d11b      	bne.n	8003696 <HAL_I2C_Mem_Read+0x18e>
    {
      /* Disable Acknowledge */
      CLEAR_BIT(hi2c->Instance->CR1, I2C_CR1_ACK);
 800365e:	68fb      	ldr	r3, [r7, #12]
 8003660:	681b      	ldr	r3, [r3, #0]
 8003662:	681a      	ldr	r2, [r3, #0]
 8003664:	68fb      	ldr	r3, [r7, #12]
 8003666:	681b      	ldr	r3, [r3, #0]
 8003668:	f422 6280 	bic.w	r2, r2, #1024	@ 0x400
 800366c:	601a      	str	r2, [r3, #0]

      /* Enable Pos */
      SET_BIT(hi2c->Instance->CR1, I2C_CR1_POS);
 800366e:	68fb      	ldr	r3, [r7, #12]
 8003670:	681b      	ldr	r3, [r3, #0]
 8003672:	681a      	ldr	r2, [r3, #0]
 8003674:	68fb      	ldr	r3, [r7, #12]
 8003676:	681b      	ldr	r3, [r3, #0]
 8003678:	f442 6200 	orr.w	r2, r2, #2048	@ 0x800
 800367c:	601a      	str	r2, [r3, #0]

      /* Clear ADDR flag */
      __HAL_I2C_CLEAR_ADDRFLAG(hi2c);
 800367e:	2300      	movs	r3, #0
 8003680:	61bb      	str	r3, [r7, #24]
 8003682:	68fb      	ldr	r3, [r7, #12]
 8003684:	681b      	ldr	r3, [r3, #0]
 8003686:	695b      	ldr	r3, [r3, #20]
 8003688:	61bb      	str	r3, [r7, #24]
 800368a:	68fb      	ldr	r3, [r7, #12]
 800368c:	681b      	ldr	r3, [r3, #0]
 800368e:	699b      	ldr	r3, [r3, #24]
 8003690:	61bb      	str	r3, [r7, #24]
 8003692:	69bb      	ldr	r3, [r7, #24]
 8003694:	e150      	b.n	8003938 <HAL_I2C_Mem_Read+0x430>
    }
    else
    {
      /* Clear ADDR flag */
      __HAL_I2C_CLEAR_ADDRFLAG(hi2c);
 8003696:	2300      	movs	r3, #0
 8003698:	617b      	str	r3, [r7, #20]
 800369a:	68fb      	ldr	r3, [r7, #12]
 800369c:	681b      	ldr	r3, [r3, #0]
 800369e:	695b      	ldr	r3, [r3, #20]
 80036a0:	617b      	str	r3, [r7, #20]
 80036a2:	68fb      	ldr	r3, [r7, #12]
 80036a4:	681b      	ldr	r3, [r3, #0]
 80036a6:	699b      	ldr	r3, [r3, #24]
 80036a8:	617b      	str	r3, [r7, #20]
 80036aa:	697b      	ldr	r3, [r7, #20]
    }

    while (hi2c->XferSize > 0U)
 80036ac:	e144      	b.n	8003938 <HAL_I2C_Mem_Read+0x430>
    {
      if (hi2c->XferSize <= 3U)
 80036ae:	68fb      	ldr	r3, [r7, #12]
 80036b0:	8d1b      	ldrh	r3, [r3, #40]	@ 0x28
 80036b2:	2b03      	cmp	r3, #3
 80036b4:	f200 80f1 	bhi.w	800389a <HAL_I2C_Mem_Read+0x392>
      {
        /* One byte */
        if (hi2c->XferSize == 1U)
 80036b8:	68fb      	ldr	r3, [r7, #12]
 80036ba:	8d1b      	ldrh	r3, [r3, #40]	@ 0x28
 80036bc:	2b01      	cmp	r3, #1
 80036be:	d123      	bne.n	8003708 <HAL_I2C_Mem_Read+0x200>
        {
          /* Wait until RXNE flag is set */
          if (I2C_WaitOnRXNEFlagUntilTimeout(hi2c, Timeout, tickstart) != HAL_OK)
 80036c0:	6a7a      	ldr	r2, [r7, #36]	@ 0x24
 80036c2:	6bb9      	ldr	r1, [r7, #56]	@ 0x38
 80036c4:	68f8      	ldr	r0, [r7, #12]
 80036c6:	f000 fda7 	bl	8004218 <I2C_WaitOnRXNEFlagUntilTimeout>
 80036ca:	4603      	mov	r3, r0
 80036cc:	2b00      	cmp	r3, #0
 80036ce:	d001      	beq.n	80036d4 <HAL_I2C_Mem_Read+0x1cc>
          {
            return HAL_ERROR;
 80036d0:	2301      	movs	r3, #1
 80036d2:	e145      	b.n	8003960 <HAL_I2C_Mem_Read+0x458>
          }

          /* Read data from DR */
          *hi2c->pBuffPtr = (uint8_t)hi2c->Instance->DR;
 80036d4:	68fb      	ldr	r3, [r7, #12]
 80036d6:	681b      	ldr	r3, [r3, #0]
 80036d8:	691a      	ldr	r2, [r3, #16]
 80036da:	68fb      	ldr	r3, [r7, #12]
 80036dc:	6a5b      	ldr	r3, [r3, #36]	@ 0x24
 80036de:	b2d2      	uxtb	r2, r2
 80036e0:	701a      	strb	r2, [r3, #0]

          /* Increment Buffer pointer */
          hi2c->pBuffPtr++;
 80036e2:	68fb      	ldr	r3, [r7, #12]
 80036e4:	6a5b      	ldr	r3, [r3, #36]	@ 0x24
 80036e6:	1c5a      	adds	r2, r3, #1
 80036e8:	68fb      	ldr	r3, [r7, #12]
 80036ea:	625a      	str	r2, [r3, #36]	@ 0x24

          /* Update counter */
          hi2c->XferSize--;
 80036ec:	68fb      	ldr	r3, [r7, #12]
 80036ee:	8d1b      	ldrh	r3, [r3, #40]	@ 0x28
 80036f0:	3b01      	subs	r3, #1
 80036f2:	b29a      	uxth	r2, r3
 80036f4:	68fb      	ldr	r3, [r7, #12]
 80036f6:	851a      	strh	r2, [r3, #40]	@ 0x28
          hi2c->XferCount--;
 80036f8:	68fb      	ldr	r3, [r7, #12]
 80036fa:	8d5b      	ldrh	r3, [r3, #42]	@ 0x2a
 80036fc:	b29b      	uxth	r3, r3
 80036fe:	3b01      	subs	r3, #1
 8003700:	b29a      	uxth	r2, r3
 8003702:	68fb      	ldr	r3, [r7, #12]
 8003704:	855a      	strh	r2, [r3, #42]	@ 0x2a
 8003706:	e117      	b.n	8003938 <HAL_I2C_Mem_Read+0x430>
        }
        /* Two bytes */
        else if (hi2c->XferSize == 2U)
 8003708:	68fb      	ldr	r3, [r7, #12]
 800370a:	8d1b      	ldrh	r3, [r3, #40]	@ 0x28
 800370c:	2b02      	cmp	r3, #2
 800370e:	d14e      	bne.n	80037ae <HAL_I2C_Mem_Read+0x2a6>
        {
          /* Wait until BTF flag is set */
          if (I2C_WaitOnFlagUntilTimeout(hi2c, I2C_FLAG_BTF, RESET, Timeout, tickstart) != HAL_OK)
 8003710:	6a7b      	ldr	r3, [r7, #36]	@ 0x24
 8003712:	9300      	str	r3, [sp, #0]
 8003714:	6bbb      	ldr	r3, [r7, #56]	@ 0x38
 8003716:	2200      	movs	r2, #0
 8003718:	4906      	ldr	r1, [pc, #24]	@ (8003734 <HAL_I2C_Mem_Read+0x22c>)
 800371a:	68f8      	ldr	r0, [r7, #12]
 800371c:	f000 fbd2 	bl	8003ec4 <I2C_WaitOnFlagUntilTimeout>
 8003720:	4603      	mov	r3, r0
 8003722:	2b00      	cmp	r3, #0
 8003724:	d008      	beq.n	8003738 <HAL_I2C_Mem_Read+0x230>
          {
            return HAL_ERROR;
 8003726:	2301      	movs	r3, #1
 8003728:	e11a      	b.n	8003960 <HAL_I2C_Mem_Read+0x458>
 800372a:	bf00      	nop
 800372c:	00100002 	.word	0x00100002
 8003730:	ffff0000 	.word	0xffff0000
 8003734:	00010004 	.word	0x00010004
          }

          /* Generate Stop */
          SET_BIT(hi2c->Instance->CR1, I2C_CR1_STOP);
 8003738:	68fb      	ldr	r3, [r7, #12]
 800373a:	681b      	ldr	r3, [r3, #0]
 800373c:	681a      	ldr	r2, [r3, #0]
 800373e:	68fb      	ldr	r3, [r7, #12]
 8003740:	681b      	ldr	r3, [r3, #0]
 8003742:	f442 7200 	orr.w	r2, r2, #512	@ 0x200
 8003746:	601a      	str	r2, [r3, #0]

          /* Read data from DR */
          *hi2c->pBuffPtr = (uint8_t)hi2c->Instance->DR;
 8003748:	68fb      	ldr	r3, [r7, #12]
 800374a:	681b      	ldr	r3, [r3, #0]
 800374c:	691a      	ldr	r2, [r3, #16]
 800374e:	68fb      	ldr	r3, [r7, #12]
 8003750:	6a5b      	ldr	r3, [r3, #36]	@ 0x24
 8003752:	b2d2      	uxtb	r2, r2
 8003754:	701a      	strb	r2, [r3, #0]

          /* Increment Buffer pointer */
          hi2c->pBuffPtr++;
 8003756:	68fb      	ldr	r3, [r7, #12]
 8003758:	6a5b      	ldr	r3, [r3, #36]	@ 0x24
 800375a:	1c5a      	adds	r2, r3, #1
 800375c:	68fb      	ldr	r3, [r7, #12]
 800375e:	625a      	str	r2, [r3, #36]	@ 0x24

          /* Update counter */
          hi2c->XferSize--;
 8003760:	68fb      	ldr	r3, [r7, #12]
 8003762:	8d1b      	ldrh	r3, [r3, #40]	@ 0x28
 8003764:	3b01      	subs	r3, #1
 8003766:	b29a      	uxth	r2, r3
 8003768:	68fb      	ldr	r3, [r7, #12]
 800376a:	851a      	strh	r2, [r3, #40]	@ 0x28
          hi2c->XferCount--;
 800376c:	68fb      	ldr	r3, [r7, #12]
 800376e:	8d5b      	ldrh	r3, [r3, #42]	@ 0x2a
 8003770:	b29b      	uxth	r3, r3
 8003772:	3b01      	subs	r3, #1
 8003774:	b29a      	uxth	r2, r3
 8003776:	68fb      	ldr	r3, [r7, #12]
 8003778:	855a      	strh	r2, [r3, #42]	@ 0x2a

          /* Read data from DR */
          *hi2c->pBuffPtr = (uint8_t)hi2c->Instance->DR;
 800377a:	68fb      	ldr	r3, [r7, #12]
 800377c:	681b      	ldr	r3, [r3, #0]
 800377e:	691a      	ldr	r2, [r3, #16]
 8003780:	68fb      	ldr	r3, [r7, #12]
 8003782:	6a5b      	ldr	r3, [r3, #36]	@ 0x24
 8003784:	b2d2      	uxtb	r2, r2
 8003786:	701a      	strb	r2, [r3, #0]

          /* Increment Buffer pointer */
          hi2c->pBuffPtr++;
 8003788:	68fb      	ldr	r3, [r7, #12]
 800378a:	6a5b      	ldr	r3, [r3, #36]	@ 0x24
 800378c:	1c5a      	adds	r2, r3, #1
 800378e:	68fb      	ldr	r3, [r7, #12]
 8003790:	625a      	str	r2, [r3, #36]	@ 0x24

          /* Update counter */
          hi2c->XferSize--;
 8003792:	68fb      	ldr	r3, [r7, #12]
 8003794:	8d1b      	ldrh	r3, [r3, #40]	@ 0x28
 8003796:	3b01      	subs	r3, #1
 8003798:	b29a      	uxth	r2, r3
 800379a:	68fb      	ldr	r3, [r7, #12]
 800379c:	851a      	strh	r2, [r3, #40]	@ 0x28
          hi2c->XferCount--;
 800379e:	68fb      	ldr	r3, [r7, #12]
 80037a0:	8d5b      	ldrh	r3, [r3, #42]	@ 0x2a
 80037a2:	b29b      	uxth	r3, r3
 80037a4:	3b01      	subs	r3, #1
 80037a6:	b29a      	uxth	r2, r3
 80037a8:	68fb      	ldr	r3, [r7, #12]
 80037aa:	855a      	strh	r2, [r3, #42]	@ 0x2a
 80037ac:	e0c4      	b.n	8003938 <HAL_I2C_Mem_Read+0x430>
        }
        /* 3 Last bytes */
        else
        {
          /* Wait until BTF flag is set */
          if (I2C_WaitOnFlagUntilTimeout(hi2c, I2C_FLAG_BTF, RESET, Timeout, tickstart) != HAL_OK)
 80037ae:	6a7b      	ldr	r3, [r7, #36]	@ 0x24
 80037b0:	9300      	str	r3, [sp, #0]
 80037b2:	6bbb      	ldr	r3, [r7, #56]	@ 0x38
 80037b4:	2200      	movs	r2, #0
 80037b6:	496c      	ldr	r1, [pc, #432]	@ (8003968 <HAL_I2C_Mem_Read+0x460>)
 80037b8:	68f8      	ldr	r0, [r7, #12]
 80037ba:	f000 fb83 	bl	8003ec4 <I2C_WaitOnFlagUntilTimeout>
 80037be:	4603      	mov	r3, r0
 80037c0:	2b00      	cmp	r3, #0
 80037c2:	d001      	beq.n	80037c8 <HAL_I2C_Mem_Read+0x2c0>
          {
            return HAL_ERROR;
 80037c4:	2301      	movs	r3, #1
 80037c6:	e0cb      	b.n	8003960 <HAL_I2C_Mem_Read+0x458>
          }

          /* Disable Acknowledge */
          CLEAR_BIT(hi2c->Instance->CR1, I2C_CR1_ACK);
 80037c8:	68fb      	ldr	r3, [r7, #12]
 80037ca:	681b      	ldr	r3, [r3, #0]
 80037cc:	681a      	ldr	r2, [r3, #0]
 80037ce:	68fb      	ldr	r3, [r7, #12]
 80037d0:	681b      	ldr	r3, [r3, #0]
 80037d2:	f422 6280 	bic.w	r2, r2, #1024	@ 0x400
 80037d6:	601a      	str	r2, [r3, #0]

          /* Read data from DR */
          *hi2c->pBuffPtr = (uint8_t)hi2c->Instance->DR;
 80037d8:	68fb      	ldr	r3, [r7, #12]
 80037da:	681b      	ldr	r3, [r3, #0]
 80037dc:	691a      	ldr	r2, [r3, #16]
 80037de:	68fb      	ldr	r3, [r7, #12]
 80037e0:	6a5b      	ldr	r3, [r3, #36]	@ 0x24
 80037e2:	b2d2      	uxtb	r2, r2
 80037e4:	701a      	strb	r2, [r3, #0]

          /* Increment Buffer pointer */
          hi2c->pBuffPtr++;
 80037e6:	68fb      	ldr	r3, [r7, #12]
 80037e8:	6a5b      	ldr	r3, [r3, #36]	@ 0x24
 80037ea:	1c5a      	adds	r2, r3, #1
 80037ec:	68fb      	ldr	r3, [r7, #12]
 80037ee:	625a      	str	r2, [r3, #36]	@ 0x24

          /* Update counter */
          hi2c->XferSize--;
 80037f0:	68fb      	ldr	r3, [r7, #12]
 80037f2:	8d1b      	ldrh	r3, [r3, #40]	@ 0x28
 80037f4:	3b01      	subs	r3, #1
 80037f6:	b29a      	uxth	r2, r3
 80037f8:	68fb      	ldr	r3, [r7, #12]
 80037fa:	851a      	strh	r2, [r3, #40]	@ 0x28
          hi2c->XferCount--;
 80037fc:	68fb      	ldr	r3, [r7, #12]
 80037fe:	8d5b      	ldrh	r3, [r3, #42]	@ 0x2a
 8003800:	b29b      	uxth	r3, r3
 8003802:	3b01      	subs	r3, #1
 8003804:	b29a      	uxth	r2, r3
 8003806:	68fb      	ldr	r3, [r7, #12]
 8003808:	855a      	strh	r2, [r3, #42]	@ 0x2a

          /* Wait until BTF flag is set */
          if (I2C_WaitOnFlagUntilTimeout(hi2c, I2C_FLAG_BTF, RESET, Timeout, tickstart) != HAL_OK)
 800380a:	6a7b      	ldr	r3, [r7, #36]	@ 0x24
 800380c:	9300      	str	r3, [sp, #0]
 800380e:	6bbb      	ldr	r3, [r7, #56]	@ 0x38
 8003810:	2200      	movs	r2, #0
 8003812:	4955      	ldr	r1, [pc, #340]	@ (8003968 <HAL_I2C_Mem_Read+0x460>)
 8003814:	68f8      	ldr	r0, [r7, #12]
 8003816:	f000 fb55 	bl	8003ec4 <I2C_WaitOnFlagUntilTimeout>
 800381a:	4603      	mov	r3, r0
 800381c:	2b00      	cmp	r3, #0
 800381e:	d001      	beq.n	8003824 <HAL_I2C_Mem_Read+0x31c>
          {
            return HAL_ERROR;
 8003820:	2301      	movs	r3, #1
 8003822:	e09d      	b.n	8003960 <HAL_I2C_Mem_Read+0x458>
          }

          /* Generate Stop */
          SET_BIT(hi2c->Instance->CR1, I2C_CR1_STOP);
 8003824:	68fb      	ldr	r3, [r7, #12]
 8003826:	681b      	ldr	r3, [r3, #0]
 8003828:	681a      	ldr	r2, [r3, #0]
 800382a:	68fb      	ldr	r3, [r7, #12]
 800382c:	681b      	ldr	r3, [r3, #0]
 800382e:	f442 7200 	orr.w	r2, r2, #512	@ 0x200
 8003832:	601a      	str	r2, [r3, #0]

          /* Read data from DR */
          *hi2c->pBuffPtr = (uint8_t)hi2c->Instance->DR;
 8003834:	68fb      	ldr	r3, [r7, #12]
 8003836:	681b      	ldr	r3, [r3, #0]
 8003838:	691a      	ldr	r2, [r3, #16]
 800383a:	68fb      	ldr	r3, [r7, #12]
 800383c:	6a5b      	ldr	r3, [r3, #36]	@ 0x24
 800383e:	b2d2      	uxtb	r2, r2
 8003840:	701a      	strb	r2, [r3, #0]

          /* Increment Buffer pointer */
          hi2c->pBuffPtr++;
 8003842:	68fb      	ldr	r3, [r7, #12]
 8003844:	6a5b      	ldr	r3, [r3, #36]	@ 0x24
 8003846:	1c5a      	adds	r2, r3, #1
 8003848:	68fb      	ldr	r3, [r7, #12]
 800384a:	625a      	str	r2, [r3, #36]	@ 0x24

          /* Update counter */
          hi2c->XferSize--;
 800384c:	68fb      	ldr	r3, [r7, #12]
 800384e:	8d1b      	ldrh	r3, [r3, #40]	@ 0x28
 8003850:	3b01      	subs	r3, #1
 8003852:	b29a      	uxth	r2, r3
 8003854:	68fb      	ldr	r3, [r7, #12]
 8003856:	851a      	strh	r2, [r3, #40]	@ 0x28
          hi2c->XferCount--;
 8003858:	68fb      	ldr	r3, [r7, #12]
 800385a:	8d5b      	ldrh	r3, [r3, #42]	@ 0x2a
 800385c:	b29b      	uxth	r3, r3
 800385e:	3b01      	subs	r3, #1
 8003860:	b29a      	uxth	r2, r3
 8003862:	68fb      	ldr	r3, [r7, #12]
 8003864:	855a      	strh	r2, [r3, #42]	@ 0x2a

          /* Read data from DR */
          *hi2c->pBuffPtr = (uint8_t)hi2c->Instance->DR;
 8003866:	68fb      	ldr	r3, [r7, #12]
 8003868:	681b      	ldr	r3, [r3, #0]
 800386a:	691a      	ldr	r2, [r3, #16]
 800386c:	68fb      	ldr	r3, [r7, #12]
 800386e:	6a5b      	ldr	r3, [r3, #36]	@ 0x24
 8003870:	b2d2      	uxtb	r2, r2
 8003872:	701a      	strb	r2, [r3, #0]

          /* Increment Buffer pointer */
          hi2c->pBuffPtr++;
 8003874:	68fb      	ldr	r3, [r7, #12]
 8003876:	6a5b      	ldr	r3, [r3, #36]	@ 0x24
 8003878:	1c5a      	adds	r2, r3, #1
 800387a:	68fb      	ldr	r3, [r7, #12]
 800387c:	625a      	str	r2, [r3, #36]	@ 0x24

          /* Update counter */
          hi2c->XferSize--;
 800387e:	68fb      	ldr	r3, [r7, #12]
 8003880:	8d1b      	ldrh	r3, [r3, #40]	@ 0x28
 8003882:	3b01      	subs	r3, #1
 8003884:	b29a      	uxth	r2, r3
 8003886:	68fb      	ldr	r3, [r7, #12]
 8003888:	851a      	strh	r2, [r3, #40]	@ 0x28
          hi2c->XferCount--;
 800388a:	68fb      	ldr	r3, [r7, #12]
 800388c:	8d5b      	ldrh	r3, [r3, #42]	@ 0x2a
 800388e:	b29b      	uxth	r3, r3
 8003890:	3b01      	subs	r3, #1
 8003892:	b29a      	uxth	r2, r3
 8003894:	68fb      	ldr	r3, [r7, #12]
 8003896:	855a      	strh	r2, [r3, #42]	@ 0x2a
 8003898:	e04e      	b.n	8003938 <HAL_I2C_Mem_Read+0x430>
        }
      }
      else
      {
        /* Wait until RXNE flag is set */
        if (I2C_WaitOnRXNEFlagUntilTimeout(hi2c, Timeout, tickstart) != HAL_OK)
 800389a:	6a7a      	ldr	r2, [r7, #36]	@ 0x24
 800389c:	6bb9      	ldr	r1, [r7, #56]	@ 0x38
 800389e:	68f8      	ldr	r0, [r7, #12]
 80038a0:	f000 fcba 	bl	8004218 <I2C_WaitOnRXNEFlagUntilTimeout>
 80038a4:	4603      	mov	r3, r0
 80038a6:	2b00      	cmp	r3, #0
 80038a8:	d001      	beq.n	80038ae <HAL_I2C_Mem_Read+0x3a6>
        {
          return HAL_ERROR;
 80038aa:	2301      	movs	r3, #1
 80038ac:	e058      	b.n	8003960 <HAL_I2C_Mem_Read+0x458>
        }

        /* Read data from DR */
        *hi2c->pBuffPtr = (uint8_t)hi2c->Instance->DR;
 80038ae:	68fb      	ldr	r3, [r7, #12]
 80038b0:	681b      	ldr	r3, [r3, #0]
 80038b2:	691a      	ldr	r2, [r3, #16]
 80038b4:	68fb      	ldr	r3, [r7, #12]
 80038b6:	6a5b      	ldr	r3, [r3, #36]	@ 0x24
 80038b8:	b2d2      	uxtb	r2, r2
 80038ba:	701a      	strb	r2, [r3, #0]

        /* Increment Buffer pointer */
        hi2c->pBuffPtr++;
 80038bc:	68fb      	ldr	r3, [r7, #12]
 80038be:	6a5b      	ldr	r3, [r3, #36]	@ 0x24
 80038c0:	1c5a      	adds	r2, r3, #1
 80038c2:	68fb      	ldr	r3, [r7, #12]
 80038c4:	625a      	str	r2, [r3, #36]	@ 0x24

        /* Update counter */
        hi2c->XferSize--;
 80038c6:	68fb      	ldr	r3, [r7, #12]
 80038c8:	8d1b      	ldrh	r3, [r3, #40]	@ 0x28
 80038ca:	3b01      	subs	r3, #1
 80038cc:	b29a      	uxth	r2, r3
 80038ce:	68fb      	ldr	r3, [r7, #12]
 80038d0:	851a      	strh	r2, [r3, #40]	@ 0x28
        hi2c->XferCount--;
 80038d2:	68fb      	ldr	r3, [r7, #12]
 80038d4:	8d5b      	ldrh	r3, [r3, #42]	@ 0x2a
 80038d6:	b29b      	uxth	r3, r3
 80038d8:	3b01      	subs	r3, #1
 80038da:	b29a      	uxth	r2, r3
 80038dc:	68fb      	ldr	r3, [r7, #12]
 80038de:	855a      	strh	r2, [r3, #42]	@ 0x2a

        if (__HAL_I2C_GET_FLAG(hi2c, I2C_FLAG_BTF) == SET)
 80038e0:	68fb      	ldr	r3, [r7, #12]
 80038e2:	681b      	ldr	r3, [r3, #0]
 80038e4:	695b      	ldr	r3, [r3, #20]
 80038e6:	f003 0304 	and.w	r3, r3, #4
 80038ea:	2b04      	cmp	r3, #4
 80038ec:	d124      	bne.n	8003938 <HAL_I2C_Mem_Read+0x430>
        {
          if (hi2c->XferSize == 3U)
 80038ee:	68fb      	ldr	r3, [r7, #12]
 80038f0:	8d1b      	ldrh	r3, [r3, #40]	@ 0x28
 80038f2:	2b03      	cmp	r3, #3
 80038f4:	d107      	bne.n	8003906 <HAL_I2C_Mem_Read+0x3fe>
          {
            /* Disable Acknowledge */
            CLEAR_BIT(hi2c->Instance->CR1, I2C_CR1_ACK);
 80038f6:	68fb      	ldr	r3, [r7, #12]
 80038f8:	681b      	ldr	r3, [r3, #0]
 80038fa:	681a      	ldr	r2, [r3, #0]
 80038fc:	68fb      	ldr	r3, [r7, #12]
 80038fe:	681b      	ldr	r3, [r3, #0]
 8003900:	f422 6280 	bic.w	r2, r2, #1024	@ 0x400
 8003904:	601a      	str	r2, [r3, #0]
          }
          /* Read data from DR */
          *hi2c->pBuffPtr = (uint8_t)hi2c->Instance->DR;
 8003906:	68fb      	ldr	r3, [r7, #12]
 8003908:	681b      	ldr	r3, [r3, #0]
 800390a:	691a      	ldr	r2, [r3, #16]
 800390c:	68fb      	ldr	r3, [r7, #12]
 800390e:	6a5b      	ldr	r3, [r3, #36]	@ 0x24
 8003910:	b2d2      	uxtb	r2, r2
 8003912:	701a      	strb	r2, [r3, #0]

          /* Increment Buffer pointer */
          hi2c->pBuffPtr++;
 8003914:	68fb      	ldr	r3, [r7, #12]
 8003916:	6a5b      	ldr	r3, [r3, #36]	@ 0x24
 8003918:	1c5a      	adds	r2, r3, #1
 800391a:	68fb      	ldr	r3, [r7, #12]
 800391c:	625a      	str	r2, [r3, #36]	@ 0x24

          /* Update counter */
          hi2c->XferSize--;
 800391e:	68fb      	ldr	r3, [r7, #12]
 8003920:	8d1b      	ldrh	r3, [r3, #40]	@ 0x28
 8003922:	3b01      	subs	r3, #1
 8003924:	b29a      	uxth	r2, r3
 8003926:	68fb      	ldr	r3, [r7, #12]
 8003928:	851a      	strh	r2, [r3, #40]	@ 0x28
          hi2c->XferCount--;
 800392a:	68fb      	ldr	r3, [r7, #12]
 800392c:	8d5b      	ldrh	r3, [r3, #42]	@ 0x2a
 800392e:	b29b      	uxth	r3, r3
 8003930:	3b01      	subs	r3, #1
 8003932:	b29a      	uxth	r2, r3
 8003934:	68fb      	ldr	r3, [r7, #12]
 8003936:	855a      	strh	r2, [r3, #42]	@ 0x2a
    while (hi2c->XferSize > 0U)
 8003938:	68fb      	ldr	r3, [r7, #12]
 800393a:	8d1b      	ldrh	r3, [r3, #40]	@ 0x28
 800393c:	2b00      	cmp	r3, #0
 800393e:	f47f aeb6 	bne.w	80036ae <HAL_I2C_Mem_Read+0x1a6>
        }
      }
    }

    hi2c->State = HAL_I2C_STATE_READY;
 8003942:	68fb      	ldr	r3, [r7, #12]
 8003944:	2220      	movs	r2, #32
 8003946:	f883 203d 	strb.w	r2, [r3, #61]	@ 0x3d
    hi2c->Mode = HAL_I2C_MODE_NONE;
 800394a:	68fb      	ldr	r3, [r7, #12]
 800394c:	2200      	movs	r2, #0
 800394e:	f883 203e 	strb.w	r2, [r3, #62]	@ 0x3e

    /* Process Unlocked */
    __HAL_UNLOCK(hi2c);
 8003952:	68fb      	ldr	r3, [r7, #12]
 8003954:	2200      	movs	r2, #0
 8003956:	f883 203c 	strb.w	r2, [r3, #60]	@ 0x3c

    return HAL_OK;
 800395a:	2300      	movs	r3, #0
 800395c:	e000      	b.n	8003960 <HAL_I2C_Mem_Read+0x458>
  }
  else
  {
    return HAL_BUSY;
 800395e:	2302      	movs	r3, #2
  }
}
 8003960:	4618      	mov	r0, r3
 8003962:	3728      	adds	r7, #40	@ 0x28
 8003964:	46bd      	mov	sp, r7
 8003966:	bd80      	pop	{r7, pc}
 8003968:	00010004 	.word	0x00010004

0800396c <HAL_I2C_IsDeviceReady>:
  * @param  Trials Number of trials
  * @param  Timeout Timeout duration
  * @retval HAL status
  */
HAL_StatusTypeDef HAL_I2C_IsDeviceReady(I2C_HandleTypeDef *hi2c, uint16_t DevAddress, uint32_t Trials, uint32_t Timeout)
{
 800396c:	b580      	push	{r7, lr}
 800396e:	b08a      	sub	sp, #40	@ 0x28
 8003970:	af02      	add	r7, sp, #8
 8003972:	60f8      	str	r0, [r7, #12]
 8003974:	607a      	str	r2, [r7, #4]
 8003976:	603b      	str	r3, [r7, #0]
 8003978:	460b      	mov	r3, r1
 800397a:	817b      	strh	r3, [r7, #10]
  /* Get tick */
  uint32_t tickstart = HAL_GetTick();
 800397c:	f7ff f812 	bl	80029a4 <HAL_GetTick>
 8003980:	61f8      	str	r0, [r7, #28]
  uint32_t I2C_Trials = 0U;
 8003982:	2300      	movs	r3, #0
 8003984:	61bb      	str	r3, [r7, #24]
  FlagStatus tmp1;
  FlagStatus tmp2;

  if (hi2c->State == HAL_I2C_STATE_READY)
 8003986:	68fb      	ldr	r3, [r7, #12]
 8003988:	f893 303d 	ldrb.w	r3, [r3, #61]	@ 0x3d
 800398c:	b2db      	uxtb	r3, r3
 800398e:	2b20      	cmp	r3, #32
 8003990:	f040 8111 	bne.w	8003bb6 <HAL_I2C_IsDeviceReady+0x24a>
  {
    /* Wait until BUSY flag is reset */
    if (I2C_WaitOnFlagUntilTimeout(hi2c, I2C_FLAG_BUSY, SET, I2C_TIMEOUT_BUSY_FLAG, tickstart) != HAL_OK)
 8003994:	69fb      	ldr	r3, [r7, #28]
 8003996:	9300      	str	r3, [sp, #0]
 8003998:	2319      	movs	r3, #25
 800399a:	2201      	movs	r2, #1
 800399c:	4988      	ldr	r1, [pc, #544]	@ (8003bc0 <HAL_I2C_IsDeviceReady+0x254>)
 800399e:	68f8      	ldr	r0, [r7, #12]
 80039a0:	f000 fa90 	bl	8003ec4 <I2C_WaitOnFlagUntilTimeout>
 80039a4:	4603      	mov	r3, r0
 80039a6:	2b00      	cmp	r3, #0
 80039a8:	d001      	beq.n	80039ae <HAL_I2C_IsDeviceReady+0x42>
    {
      return HAL_BUSY;
 80039aa:	2302      	movs	r3, #2
 80039ac:	e104      	b.n	8003bb8 <HAL_I2C_IsDeviceReady+0x24c>
    }

    /* Process Locked */
    __HAL_LOCK(hi2c);
 80039ae:	68fb      	ldr	r3, [r7, #12]
 80039b0:	f893 303c 	ldrb.w	r3, [r3, #60]	@ 0x3c
 80039b4:	2b01      	cmp	r3, #1
 80039b6:	d101      	bne.n	80039bc <HAL_I2C_IsDeviceReady+0x50>
 80039b8:	2302      	movs	r3, #2
 80039ba:	e0fd      	b.n	8003bb8 <HAL_I2C_IsDeviceReady+0x24c>
 80039bc:	68fb      	ldr	r3, [r7, #12]
 80039be:	2201      	movs	r2, #1
 80039c0:	f883 203c 	strb.w	r2, [r3, #60]	@ 0x3c

    /* Check if the I2C is already enabled */
    if ((hi2c->Instance->CR1 & I2C_CR1_PE) != I2C_CR1_PE)
 80039c4:	68fb      	ldr	r3, [r7, #12]
 80039c6:	681b      	ldr	r3, [r3, #0]
 80039c8:	681b      	ldr	r3, [r3, #0]
 80039ca:	f003 0301 	and.w	r3, r3, #1
 80039ce:	2b01      	cmp	r3, #1
 80039d0:	d007      	beq.n	80039e2 <HAL_I2C_IsDeviceReady+0x76>
    {
      /* Enable I2C peripheral */
      __HAL_I2C_ENABLE(hi2c);
 80039d2:	68fb      	ldr	r3, [r7, #12]
 80039d4:	681b      	ldr	r3, [r3, #0]
 80039d6:	681a      	ldr	r2, [r3, #0]
 80039d8:	68fb      	ldr	r3, [r7, #12]
 80039da:	681b      	ldr	r3, [r3, #0]
 80039dc:	f042 0201 	orr.w	r2, r2, #1
 80039e0:	601a      	str	r2, [r3, #0]
    }

    /* Disable Pos */
    CLEAR_BIT(hi2c->Instance->CR1, I2C_CR1_POS);
 80039e2:	68fb      	ldr	r3, [r7, #12]
 80039e4:	681b      	ldr	r3, [r3, #0]
 80039e6:	681a      	ldr	r2, [r3, #0]
 80039e8:	68fb      	ldr	r3, [r7, #12]
 80039ea:	681b      	ldr	r3, [r3, #0]
 80039ec:	f422 6200 	bic.w	r2, r2, #2048	@ 0x800
 80039f0:	601a      	str	r2, [r3, #0]

    hi2c->State = HAL_I2C_STATE_BUSY;
 80039f2:	68fb      	ldr	r3, [r7, #12]
 80039f4:	2224      	movs	r2, #36	@ 0x24
 80039f6:	f883 203d 	strb.w	r2, [r3, #61]	@ 0x3d
    hi2c->ErrorCode = HAL_I2C_ERROR_NONE;
 80039fa:	68fb      	ldr	r3, [r7, #12]
 80039fc:	2200      	movs	r2, #0
 80039fe:	641a      	str	r2, [r3, #64]	@ 0x40
    hi2c->XferOptions = I2C_NO_OPTION_FRAME;
 8003a00:	68fb      	ldr	r3, [r7, #12]
 8003a02:	4a70      	ldr	r2, [pc, #448]	@ (8003bc4 <HAL_I2C_IsDeviceReady+0x258>)
 8003a04:	62da      	str	r2, [r3, #44]	@ 0x2c

    do
    {
      /* Generate Start */
      SET_BIT(hi2c->Instance->CR1, I2C_CR1_START);
 8003a06:	68fb      	ldr	r3, [r7, #12]
 8003a08:	681b      	ldr	r3, [r3, #0]
 8003a0a:	681a      	ldr	r2, [r3, #0]
 8003a0c:	68fb      	ldr	r3, [r7, #12]
 8003a0e:	681b      	ldr	r3, [r3, #0]
 8003a10:	f442 7280 	orr.w	r2, r2, #256	@ 0x100
 8003a14:	601a      	str	r2, [r3, #0]

      /* Wait until SB flag is set */
      if (I2C_WaitOnFlagUntilTimeout(hi2c, I2C_FLAG_SB, RESET, Timeout, tickstart) != HAL_OK)
 8003a16:	69fb      	ldr	r3, [r7, #28]
 8003a18:	9300      	str	r3, [sp, #0]
 8003a1a:	683b      	ldr	r3, [r7, #0]
 8003a1c:	2200      	movs	r2, #0
 8003a1e:	f04f 1101 	mov.w	r1, #65537	@ 0x10001
 8003a22:	68f8      	ldr	r0, [r7, #12]
 8003a24:	f000 fa4e 	bl	8003ec4 <I2C_WaitOnFlagUntilTimeout>
 8003a28:	4603      	mov	r3, r0
 8003a2a:	2b00      	cmp	r3, #0
 8003a2c:	d00d      	beq.n	8003a4a <HAL_I2C_IsDeviceReady+0xde>
      {
        if (READ_BIT(hi2c->Instance->CR1, I2C_CR1_START) == I2C_CR1_START)
 8003a2e:	68fb      	ldr	r3, [r7, #12]
 8003a30:	681b      	ldr	r3, [r3, #0]
 8003a32:	681b      	ldr	r3, [r3, #0]
 8003a34:	f403 7380 	and.w	r3, r3, #256	@ 0x100
 8003a38:	f5b3 7f80 	cmp.w	r3, #256	@ 0x100
 8003a3c:	d103      	bne.n	8003a46 <HAL_I2C_IsDeviceReady+0xda>
        {
          hi2c->ErrorCode = HAL_I2C_WRONG_START;
 8003a3e:	68fb      	ldr	r3, [r7, #12]
 8003a40:	f44f 7200 	mov.w	r2, #512	@ 0x200
 8003a44:	641a      	str	r2, [r3, #64]	@ 0x40
        }
        return HAL_TIMEOUT;
 8003a46:	2303      	movs	r3, #3
 8003a48:	e0b6      	b.n	8003bb8 <HAL_I2C_IsDeviceReady+0x24c>
      }

      /* Send slave address */
      hi2c->Instance->DR = I2C_7BIT_ADD_WRITE(DevAddress);
 8003a4a:	897b      	ldrh	r3, [r7, #10]
 8003a4c:	b2db      	uxtb	r3, r3
 8003a4e:	461a      	mov	r2, r3
 8003a50:	68fb      	ldr	r3, [r7, #12]
 8003a52:	681b      	ldr	r3, [r3, #0]
 8003a54:	f002 02fe 	and.w	r2, r2, #254	@ 0xfe
 8003a58:	611a      	str	r2, [r3, #16]

      /* Wait until ADDR or AF flag are set */
      /* Get tick */
      tickstart = HAL_GetTick();
 8003a5a:	f7fe ffa3 	bl	80029a4 <HAL_GetTick>
 8003a5e:	61f8      	str	r0, [r7, #28]

      tmp1 = __HAL_I2C_GET_FLAG(hi2c, I2C_FLAG_ADDR);
 8003a60:	68fb      	ldr	r3, [r7, #12]
 8003a62:	681b      	ldr	r3, [r3, #0]
 8003a64:	695b      	ldr	r3, [r3, #20]
 8003a66:	f003 0302 	and.w	r3, r3, #2
 8003a6a:	2b02      	cmp	r3, #2
 8003a6c:	bf0c      	ite	eq
 8003a6e:	2301      	moveq	r3, #1
 8003a70:	2300      	movne	r3, #0
 8003a72:	b2db      	uxtb	r3, r3
 8003a74:	75fb      	strb	r3, [r7, #23]
      tmp2 = __HAL_I2C_GET_FLAG(hi2c, I2C_FLAG_AF);
 8003a76:	68fb      	ldr	r3, [r7, #12]
 8003a78:	681b      	ldr	r3, [r3, #0]
 8003a7a:	695b      	ldr	r3, [r3, #20]
 8003a7c:	f403 6380 	and.w	r3, r3, #1024	@ 0x400
 8003a80:	f5b3 6f80 	cmp.w	r3, #1024	@ 0x400
 8003a84:	bf0c      	ite	eq
 8003a86:	2301      	moveq	r3, #1
 8003a88:	2300      	movne	r3, #0
 8003a8a:	b2db      	uxtb	r3, r3
 8003a8c:	75bb      	strb	r3, [r7, #22]
      while ((hi2c->State != HAL_I2C_STATE_TIMEOUT) && (tmp1 == RESET) && (tmp2 == RESET))
 8003a8e:	e025      	b.n	8003adc <HAL_I2C_IsDeviceReady+0x170>
      {
        if (((HAL_GetTick() - tickstart) > Timeout) || (Timeout == 0U))
 8003a90:	f7fe ff88 	bl	80029a4 <HAL_GetTick>
 8003a94:	4602      	mov	r2, r0
 8003a96:	69fb      	ldr	r3, [r7, #28]
 8003a98:	1ad3      	subs	r3, r2, r3
 8003a9a:	683a      	ldr	r2, [r7, #0]
 8003a9c:	429a      	cmp	r2, r3
 8003a9e:	d302      	bcc.n	8003aa6 <HAL_I2C_IsDeviceReady+0x13a>
 8003aa0:	683b      	ldr	r3, [r7, #0]
 8003aa2:	2b00      	cmp	r3, #0
 8003aa4:	d103      	bne.n	8003aae <HAL_I2C_IsDeviceReady+0x142>
        {
          hi2c->State = HAL_I2C_STATE_TIMEOUT;
 8003aa6:	68fb      	ldr	r3, [r7, #12]
 8003aa8:	22a0      	movs	r2, #160	@ 0xa0
 8003aaa:	f883 203d 	strb.w	r2, [r3, #61]	@ 0x3d
        }
        tmp1 = __HAL_I2C_GET_FLAG(hi2c, I2C_FLAG_ADDR);
 8003aae:	68fb      	ldr	r3, [r7, #12]
 8003ab0:	681b      	ldr	r3, [r3, #0]
 8003ab2:	695b      	ldr	r3, [r3, #20]
 8003ab4:	f003 0302 	and.w	r3, r3, #2
 8003ab8:	2b02      	cmp	r3, #2
 8003aba:	bf0c      	ite	eq
 8003abc:	2301      	moveq	r3, #1
 8003abe:	2300      	movne	r3, #0
 8003ac0:	b2db      	uxtb	r3, r3
 8003ac2:	75fb      	strb	r3, [r7, #23]
        tmp2 = __HAL_I2C_GET_FLAG(hi2c, I2C_FLAG_AF);
 8003ac4:	68fb      	ldr	r3, [r7, #12]
 8003ac6:	681b      	ldr	r3, [r3, #0]
 8003ac8:	695b      	ldr	r3, [r3, #20]
 8003aca:	f403 6380 	and.w	r3, r3, #1024	@ 0x400
 8003ace:	f5b3 6f80 	cmp.w	r3, #1024	@ 0x400
 8003ad2:	bf0c      	ite	eq
 8003ad4:	2301      	moveq	r3, #1
 8003ad6:	2300      	movne	r3, #0
 8003ad8:	b2db      	uxtb	r3, r3
 8003ada:	75bb      	strb	r3, [r7, #22]
      while ((hi2c->State != HAL_I2C_STATE_TIMEOUT) && (tmp1 == RESET) && (tmp2 == RESET))
 8003adc:	68fb      	ldr	r3, [r7, #12]
 8003ade:	f893 303d 	ldrb.w	r3, [r3, #61]	@ 0x3d
 8003ae2:	b2db      	uxtb	r3, r3
 8003ae4:	2ba0      	cmp	r3, #160	@ 0xa0
 8003ae6:	d005      	beq.n	8003af4 <HAL_I2C_IsDeviceReady+0x188>
 8003ae8:	7dfb      	ldrb	r3, [r7, #23]
 8003aea:	2b00      	cmp	r3, #0
 8003aec:	d102      	bne.n	8003af4 <HAL_I2C_IsDeviceReady+0x188>
 8003aee:	7dbb      	ldrb	r3, [r7, #22]
 8003af0:	2b00      	cmp	r3, #0
 8003af2:	d0cd      	beq.n	8003a90 <HAL_I2C_IsDeviceReady+0x124>
      }

      hi2c->State = HAL_I2C_STATE_READY;
 8003af4:	68fb      	ldr	r3, [r7, #12]
 8003af6:	2220      	movs	r2, #32
 8003af8:	f883 203d 	strb.w	r2, [r3, #61]	@ 0x3d

      /* Check if the ADDR flag has been set */
      if (__HAL_I2C_GET_FLAG(hi2c, I2C_FLAG_ADDR) == SET)
 8003afc:	68fb      	ldr	r3, [r7, #12]
 8003afe:	681b      	ldr	r3, [r3, #0]
 8003b00:	695b      	ldr	r3, [r3, #20]
 8003b02:	f003 0302 	and.w	r3, r3, #2
 8003b06:	2b02      	cmp	r3, #2
 8003b08:	d129      	bne.n	8003b5e <HAL_I2C_IsDeviceReady+0x1f2>
      {
        /* Generate Stop */
        SET_BIT(hi2c->Instance->CR1, I2C_CR1_STOP);
 8003b0a:	68fb      	ldr	r3, [r7, #12]
 8003b0c:	681b      	ldr	r3, [r3, #0]
 8003b0e:	681a      	ldr	r2, [r3, #0]
 8003b10:	68fb      	ldr	r3, [r7, #12]
 8003b12:	681b      	ldr	r3, [r3, #0]
 8003b14:	f442 7200 	orr.w	r2, r2, #512	@ 0x200
 8003b18:	601a      	str	r2, [r3, #0]

        /* Clear ADDR Flag */
        __HAL_I2C_CLEAR_ADDRFLAG(hi2c);
 8003b1a:	2300      	movs	r3, #0
 8003b1c:	613b      	str	r3, [r7, #16]
 8003b1e:	68fb      	ldr	r3, [r7, #12]
 8003b20:	681b      	ldr	r3, [r3, #0]
 8003b22:	695b      	ldr	r3, [r3, #20]
 8003b24:	613b      	str	r3, [r7, #16]
 8003b26:	68fb      	ldr	r3, [r7, #12]
 8003b28:	681b      	ldr	r3, [r3, #0]
 8003b2a:	699b      	ldr	r3, [r3, #24]
 8003b2c:	613b      	str	r3, [r7, #16]
 8003b2e:	693b      	ldr	r3, [r7, #16]

        /* Wait until BUSY flag is reset */
        if (I2C_WaitOnFlagUntilTimeout(hi2c, I2C_FLAG_BUSY, SET, I2C_TIMEOUT_BUSY_FLAG, tickstart) != HAL_OK)
 8003b30:	69fb      	ldr	r3, [r7, #28]
 8003b32:	9300      	str	r3, [sp, #0]
 8003b34:	2319      	movs	r3, #25
 8003b36:	2201      	movs	r2, #1
 8003b38:	4921      	ldr	r1, [pc, #132]	@ (8003bc0 <HAL_I2C_IsDeviceReady+0x254>)
 8003b3a:	68f8      	ldr	r0, [r7, #12]
 8003b3c:	f000 f9c2 	bl	8003ec4 <I2C_WaitOnFlagUntilTimeout>
 8003b40:	4603      	mov	r3, r0
 8003b42:	2b00      	cmp	r3, #0
 8003b44:	d001      	beq.n	8003b4a <HAL_I2C_IsDeviceReady+0x1de>
        {
          return HAL_ERROR;
 8003b46:	2301      	movs	r3, #1
 8003b48:	e036      	b.n	8003bb8 <HAL_I2C_IsDeviceReady+0x24c>
        }

        hi2c->State = HAL_I2C_STATE_READY;
 8003b4a:	68fb      	ldr	r3, [r7, #12]
 8003b4c:	2220      	movs	r2, #32
 8003b4e:	f883 203d 	strb.w	r2, [r3, #61]	@ 0x3d

        /* Process Unlocked */
        __HAL_UNLOCK(hi2c);
 8003b52:	68fb      	ldr	r3, [r7, #12]
 8003b54:	2200      	movs	r2, #0
 8003b56:	f883 203c 	strb.w	r2, [r3, #60]	@ 0x3c

        return HAL_OK;
 8003b5a:	2300      	movs	r3, #0
 8003b5c:	e02c      	b.n	8003bb8 <HAL_I2C_IsDeviceReady+0x24c>
      }
      else
      {
        /* Generate Stop */
        SET_BIT(hi2c->Instance->CR1, I2C_CR1_STOP);
 8003b5e:	68fb      	ldr	r3, [r7, #12]
 8003b60:	681b      	ldr	r3, [r3, #0]
 8003b62:	681a      	ldr	r2, [r3, #0]
 8003b64:	68fb      	ldr	r3, [r7, #12]
 8003b66:	681b      	ldr	r3, [r3, #0]
 8003b68:	f442 7200 	orr.w	r2, r2, #512	@ 0x200
 8003b6c:	601a      	str	r2, [r3, #0]

        /* Clear AF Flag */
        __HAL_I2C_CLEAR_FLAG(hi2c, I2C_FLAG_AF);
 8003b6e:	68fb      	ldr	r3, [r7, #12]
 8003b70:	681b      	ldr	r3, [r3, #0]
 8003b72:	f46f 6280 	mvn.w	r2, #1024	@ 0x400
 8003b76:	615a      	str	r2, [r3, #20]

        /* Wait until BUSY flag is reset */
        if (I2C_WaitOnFlagUntilTimeout(hi2c, I2C_FLAG_BUSY, SET, I2C_TIMEOUT_BUSY_FLAG, tickstart) != HAL_OK)
 8003b78:	69fb      	ldr	r3, [r7, #28]
 8003b7a:	9300      	str	r3, [sp, #0]
 8003b7c:	2319      	movs	r3, #25
 8003b7e:	2201      	movs	r2, #1
 8003b80:	490f      	ldr	r1, [pc, #60]	@ (8003bc0 <HAL_I2C_IsDeviceReady+0x254>)
 8003b82:	68f8      	ldr	r0, [r7, #12]
 8003b84:	f000 f99e 	bl	8003ec4 <I2C_WaitOnFlagUntilTimeout>
 8003b88:	4603      	mov	r3, r0
 8003b8a:	2b00      	cmp	r3, #0
 8003b8c:	d001      	beq.n	8003b92 <HAL_I2C_IsDeviceReady+0x226>
        {
          return HAL_ERROR;
 8003b8e:	2301      	movs	r3, #1
 8003b90:	e012      	b.n	8003bb8 <HAL_I2C_IsDeviceReady+0x24c>
        }
      }

      /* Increment Trials */
      I2C_Trials++;
 8003b92:	69bb      	ldr	r3, [r7, #24]
 8003b94:	3301      	adds	r3, #1
 8003b96:	61bb      	str	r3, [r7, #24]
    }
    while (I2C_Trials < Trials);
 8003b98:	69ba      	ldr	r2, [r7, #24]
 8003b9a:	687b      	ldr	r3, [r7, #4]
 8003b9c:	429a      	cmp	r2, r3
 8003b9e:	f4ff af32 	bcc.w	8003a06 <HAL_I2C_IsDeviceReady+0x9a>

    hi2c->State = HAL_I2C_STATE_READY;
 8003ba2:	68fb      	ldr	r3, [r7, #12]
 8003ba4:	2220      	movs	r2, #32
 8003ba6:	f883 203d 	strb.w	r2, [r3, #61]	@ 0x3d

    /* Process Unlocked */
    __HAL_UNLOCK(hi2c);
 8003baa:	68fb      	ldr	r3, [r7, #12]
 8003bac:	2200      	movs	r2, #0
 8003bae:	f883 203c 	strb.w	r2, [r3, #60]	@ 0x3c

    return HAL_ERROR;
 8003bb2:	2301      	movs	r3, #1
 8003bb4:	e000      	b.n	8003bb8 <HAL_I2C_IsDeviceReady+0x24c>
  }
  else
  {
    return HAL_BUSY;
 8003bb6:	2302      	movs	r3, #2
  }
}
 8003bb8:	4618      	mov	r0, r3
 8003bba:	3720      	adds	r7, #32
 8003bbc:	46bd      	mov	sp, r7
 8003bbe:	bd80      	pop	{r7, pc}
 8003bc0:	00100002 	.word	0x00100002
 8003bc4:	ffff0000 	.word	0xffff0000

08003bc8 <I2C_RequestMemoryWrite>:
  * @param  Timeout Timeout duration
  * @param  Tickstart Tick start value
  * @retval HAL status
  */
static HAL_StatusTypeDef I2C_RequestMemoryWrite(I2C_HandleTypeDef *hi2c, uint16_t DevAddress, uint16_t MemAddress, uint16_t MemAddSize, uint32_t Timeout, uint32_t Tickstart)
{
 8003bc8:	b580      	push	{r7, lr}
 8003bca:	b088      	sub	sp, #32
 8003bcc:	af02      	add	r7, sp, #8
 8003bce:	60f8      	str	r0, [r7, #12]
 8003bd0:	4608      	mov	r0, r1
 8003bd2:	4611      	mov	r1, r2
 8003bd4:	461a      	mov	r2, r3
 8003bd6:	4603      	mov	r3, r0
 8003bd8:	817b      	strh	r3, [r7, #10]
 8003bda:	460b      	mov	r3, r1
 8003bdc:	813b      	strh	r3, [r7, #8]
 8003bde:	4613      	mov	r3, r2
 8003be0:	80fb      	strh	r3, [r7, #6]
  /* Generate Start */
  SET_BIT(hi2c->Instance->CR1, I2C_CR1_START);
 8003be2:	68fb      	ldr	r3, [r7, #12]
 8003be4:	681b      	ldr	r3, [r3, #0]
 8003be6:	681a      	ldr	r2, [r3, #0]
 8003be8:	68fb      	ldr	r3, [r7, #12]
 8003bea:	681b      	ldr	r3, [r3, #0]
 8003bec:	f442 7280 	orr.w	r2, r2, #256	@ 0x100
 8003bf0:	601a      	str	r2, [r3, #0]

  /* Wait until SB flag is set */
  if (I2C_WaitOnFlagUntilTimeout(hi2c, I2C_FLAG_SB, RESET, Timeout, Tickstart) != HAL_OK)
 8003bf2:	6a7b      	ldr	r3, [r7, #36]	@ 0x24
 8003bf4:	9300      	str	r3, [sp, #0]
 8003bf6:	6a3b      	ldr	r3, [r7, #32]
 8003bf8:	2200      	movs	r2, #0
 8003bfa:	f04f 1101 	mov.w	r1, #65537	@ 0x10001
 8003bfe:	68f8      	ldr	r0, [r7, #12]
 8003c00:	f000 f960 	bl	8003ec4 <I2C_WaitOnFlagUntilTimeout>
 8003c04:	4603      	mov	r3, r0
 8003c06:	2b00      	cmp	r3, #0
 8003c08:	d00d      	beq.n	8003c26 <I2C_RequestMemoryWrite+0x5e>
  {
    if (READ_BIT(hi2c->Instance->CR1, I2C_CR1_START) == I2C_CR1_START)
 8003c0a:	68fb      	ldr	r3, [r7, #12]
 8003c0c:	681b      	ldr	r3, [r3, #0]
 8003c0e:	681b      	ldr	r3, [r3, #0]
 8003c10:	f403 7380 	and.w	r3, r3, #256	@ 0x100
 8003c14:	f5b3 7f80 	cmp.w	r3, #256	@ 0x100
 8003c18:	d103      	bne.n	8003c22 <I2C_RequestMemoryWrite+0x5a>
    {
      hi2c->ErrorCode = HAL_I2C_WRONG_START;
 8003c1a:	68fb      	ldr	r3, [r7, #12]
 8003c1c:	f44f 7200 	mov.w	r2, #512	@ 0x200
 8003c20:	641a      	str	r2, [r3, #64]	@ 0x40
    }
    return HAL_TIMEOUT;
 8003c22:	2303      	movs	r3, #3
 8003c24:	e05f      	b.n	8003ce6 <I2C_RequestMemoryWrite+0x11e>
  }

  /* Send slave address */
  hi2c->Instance->DR = I2C_7BIT_ADD_WRITE(DevAddress);
 8003c26:	897b      	ldrh	r3, [r7, #10]
 8003c28:	b2db      	uxtb	r3, r3
 8003c2a:	461a      	mov	r2, r3
 8003c2c:	68fb      	ldr	r3, [r7, #12]
 8003c2e:	681b      	ldr	r3, [r3, #0]
 8003c30:	f002 02fe 	and.w	r2, r2, #254	@ 0xfe
 8003c34:	611a      	str	r2, [r3, #16]

  /* Wait until ADDR flag is set */
  if (I2C_WaitOnMasterAddressFlagUntilTimeout(hi2c, I2C_FLAG_ADDR, Timeout, Tickstart) != HAL_OK)
 8003c36:	6a7b      	ldr	r3, [r7, #36]	@ 0x24
 8003c38:	6a3a      	ldr	r2, [r7, #32]
 8003c3a:	492d      	ldr	r1, [pc, #180]	@ (8003cf0 <I2C_RequestMemoryWrite+0x128>)
 8003c3c:	68f8      	ldr	r0, [r7, #12]
 8003c3e:	f000 f9bb 	bl	8003fb8 <I2C_WaitOnMasterAddressFlagUntilTimeout>
 8003c42:	4603      	mov	r3, r0
 8003c44:	2b00      	cmp	r3, #0
 8003c46:	d001      	beq.n	8003c4c <I2C_RequestMemoryWrite+0x84>
  {
    return HAL_ERROR;
 8003c48:	2301      	movs	r3, #1
 8003c4a:	e04c      	b.n	8003ce6 <I2C_RequestMemoryWrite+0x11e>
  }

  /* Clear ADDR flag */
  __HAL_I2C_CLEAR_ADDRFLAG(hi2c);
 8003c4c:	2300      	movs	r3, #0
 8003c4e:	617b      	str	r3, [r7, #20]
 8003c50:	68fb      	ldr	r3, [r7, #12]
 8003c52:	681b      	ldr	r3, [r3, #0]
 8003c54:	695b      	ldr	r3, [r3, #20]
 8003c56:	617b      	str	r3, [r7, #20]
 8003c58:	68fb      	ldr	r3, [r7, #12]
 8003c5a:	681b      	ldr	r3, [r3, #0]
 8003c5c:	699b      	ldr	r3, [r3, #24]
 8003c5e:	617b      	str	r3, [r7, #20]
 8003c60:	697b      	ldr	r3, [r7, #20]

  /* Wait until TXE flag is set */
  if (I2C_WaitOnTXEFlagUntilTimeout(hi2c, Timeout, Tickstart) != HAL_OK)
 8003c62:	6a7a      	ldr	r2, [r7, #36]	@ 0x24
 8003c64:	6a39      	ldr	r1, [r7, #32]
 8003c66:	68f8      	ldr	r0, [r7, #12]
 8003c68:	f000 fa46 	bl	80040f8 <I2C_WaitOnTXEFlagUntilTimeout>
 8003c6c:	4603      	mov	r3, r0
 8003c6e:	2b00      	cmp	r3, #0
 8003c70:	d00d      	beq.n	8003c8e <I2C_RequestMemoryWrite+0xc6>
  {
    if (hi2c->ErrorCode == HAL_I2C_ERROR_AF)
 8003c72:	68fb      	ldr	r3, [r7, #12]
 8003c74:	6c1b      	ldr	r3, [r3, #64]	@ 0x40
 8003c76:	2b04      	cmp	r3, #4
 8003c78:	d107      	bne.n	8003c8a <I2C_RequestMemoryWrite+0xc2>
    {
      /* Generate Stop */
      SET_BIT(hi2c->Instance->CR1, I2C_CR1_STOP);
 8003c7a:	68fb      	ldr	r3, [r7, #12]
 8003c7c:	681b      	ldr	r3, [r3, #0]
 8003c7e:	681a      	ldr	r2, [r3, #0]
 8003c80:	68fb      	ldr	r3, [r7, #12]
 8003c82:	681b      	ldr	r3, [r3, #0]
 8003c84:	f442 7200 	orr.w	r2, r2, #512	@ 0x200
 8003c88:	601a      	str	r2, [r3, #0]
    }
    return HAL_ERROR;
 8003c8a:	2301      	movs	r3, #1
 8003c8c:	e02b      	b.n	8003ce6 <I2C_RequestMemoryWrite+0x11e>
  }

  /* If Memory address size is 8Bit */
  if (MemAddSize == I2C_MEMADD_SIZE_8BIT)
 8003c8e:	88fb      	ldrh	r3, [r7, #6]
 8003c90:	2b01      	cmp	r3, #1
 8003c92:	d105      	bne.n	8003ca0 <I2C_RequestMemoryWrite+0xd8>
  {
    /* Send Memory Address */
    hi2c->Instance->DR = I2C_MEM_ADD_LSB(MemAddress);
 8003c94:	893b      	ldrh	r3, [r7, #8]
 8003c96:	b2da      	uxtb	r2, r3
 8003c98:	68fb      	ldr	r3, [r7, #12]
 8003c9a:	681b      	ldr	r3, [r3, #0]
 8003c9c:	611a      	str	r2, [r3, #16]
 8003c9e:	e021      	b.n	8003ce4 <I2C_RequestMemoryWrite+0x11c>
  }
  /* If Memory address size is 16Bit */
  else
  {
    /* Send MSB of Memory Address */
    hi2c->Instance->DR = I2C_MEM_ADD_MSB(MemAddress);
 8003ca0:	893b      	ldrh	r3, [r7, #8]
 8003ca2:	0a1b      	lsrs	r3, r3, #8
 8003ca4:	b29b      	uxth	r3, r3
 8003ca6:	b2da      	uxtb	r2, r3
 8003ca8:	68fb      	ldr	r3, [r7, #12]
 8003caa:	681b      	ldr	r3, [r3, #0]
 8003cac:	611a      	str	r2, [r3, #16]

    /* Wait until TXE flag is set */
    if (I2C_WaitOnTXEFlagUntilTimeout(hi2c, Timeout, Tickstart) != HAL_OK)
 8003cae:	6a7a      	ldr	r2, [r7, #36]	@ 0x24
 8003cb0:	6a39      	ldr	r1, [r7, #32]
 8003cb2:	68f8      	ldr	r0, [r7, #12]
 8003cb4:	f000 fa20 	bl	80040f8 <I2C_WaitOnTXEFlagUntilTimeout>
 8003cb8:	4603      	mov	r3, r0
 8003cba:	2b00      	cmp	r3, #0
 8003cbc:	d00d      	beq.n	8003cda <I2C_RequestMemoryWrite+0x112>
    {
      if (hi2c->ErrorCode == HAL_I2C_ERROR_AF)
 8003cbe:	68fb      	ldr	r3, [r7, #12]
 8003cc0:	6c1b      	ldr	r3, [r3, #64]	@ 0x40
 8003cc2:	2b04      	cmp	r3, #4
 8003cc4:	d107      	bne.n	8003cd6 <I2C_RequestMemoryWrite+0x10e>
      {
        /* Generate Stop */
        SET_BIT(hi2c->Instance->CR1, I2C_CR1_STOP);
 8003cc6:	68fb      	ldr	r3, [r7, #12]
 8003cc8:	681b      	ldr	r3, [r3, #0]
 8003cca:	681a      	ldr	r2, [r3, #0]
 8003ccc:	68fb      	ldr	r3, [r7, #12]
 8003cce:	681b      	ldr	r3, [r3, #0]
 8003cd0:	f442 7200 	orr.w	r2, r2, #512	@ 0x200
 8003cd4:	601a      	str	r2, [r3, #0]
      }
      return HAL_ERROR;
 8003cd6:	2301      	movs	r3, #1
 8003cd8:	e005      	b.n	8003ce6 <I2C_RequestMemoryWrite+0x11e>
    }

    /* Send LSB of Memory Address */
    hi2c->Instance->DR = I2C_MEM_ADD_LSB(MemAddress);
 8003cda:	893b      	ldrh	r3, [r7, #8]
 8003cdc:	b2da      	uxtb	r2, r3
 8003cde:	68fb      	ldr	r3, [r7, #12]
 8003ce0:	681b      	ldr	r3, [r3, #0]
 8003ce2:	611a      	str	r2, [r3, #16]
  }

  return HAL_OK;
 8003ce4:	2300      	movs	r3, #0
}
 8003ce6:	4618      	mov	r0, r3
 8003ce8:	3718      	adds	r7, #24
 8003cea:	46bd      	mov	sp, r7
 8003cec:	bd80      	pop	{r7, pc}
 8003cee:	bf00      	nop
 8003cf0:	00010002 	.word	0x00010002

08003cf4 <I2C_RequestMemoryRead>:
  * @param  Timeout Timeout duration
  * @param  Tickstart Tick start value
  * @retval HAL status
  */
static HAL_StatusTypeDef I2C_RequestMemoryRead(I2C_HandleTypeDef *hi2c, uint16_t DevAddress, uint16_t MemAddress, uint16_t MemAddSize, uint32_t Timeout, uint32_t Tickstart)
{
 8003cf4:	b580      	push	{r7, lr}
 8003cf6:	b088      	sub	sp, #32
 8003cf8:	af02      	add	r7, sp, #8
 8003cfa:	60f8      	str	r0, [r7, #12]
 8003cfc:	4608      	mov	r0, r1
 8003cfe:	4611      	mov	r1, r2
 8003d00:	461a      	mov	r2, r3
 8003d02:	4603      	mov	r3, r0
 8003d04:	817b      	strh	r3, [r7, #10]
 8003d06:	460b      	mov	r3, r1
 8003d08:	813b      	strh	r3, [r7, #8]
 8003d0a:	4613      	mov	r3, r2
 8003d0c:	80fb      	strh	r3, [r7, #6]
  /* Enable Acknowledge */
  SET_BIT(hi2c->Instance->CR1, I2C_CR1_ACK);
 8003d0e:	68fb      	ldr	r3, [r7, #12]
 8003d10:	681b      	ldr	r3, [r3, #0]
 8003d12:	681a      	ldr	r2, [r3, #0]
 8003d14:	68fb      	ldr	r3, [r7, #12]
 8003d16:	681b      	ldr	r3, [r3, #0]
 8003d18:	f442 6280 	orr.w	r2, r2, #1024	@ 0x400
 8003d1c:	601a      	str	r2, [r3, #0]

  /* Generate Start */
  SET_BIT(hi2c->Instance->CR1, I2C_CR1_START);
 8003d1e:	68fb      	ldr	r3, [r7, #12]
 8003d20:	681b      	ldr	r3, [r3, #0]
 8003d22:	681a      	ldr	r2, [r3, #0]
 8003d24:	68fb      	ldr	r3, [r7, #12]
 8003d26:	681b      	ldr	r3, [r3, #0]
 8003d28:	f442 7280 	orr.w	r2, r2, #256	@ 0x100
 8003d2c:	601a      	str	r2, [r3, #0]

  /* Wait until SB flag is set */
  if (I2C_WaitOnFlagUntilTimeout(hi2c, I2C_FLAG_SB, RESET, Timeout, Tickstart) != HAL_OK)
 8003d2e:	6a7b      	ldr	r3, [r7, #36]	@ 0x24
 8003d30:	9300      	str	r3, [sp, #0]
 8003d32:	6a3b      	ldr	r3, [r7, #32]
 8003d34:	2200      	movs	r2, #0
 8003d36:	f04f 1101 	mov.w	r1, #65537	@ 0x10001
 8003d3a:	68f8      	ldr	r0, [r7, #12]
 8003d3c:	f000 f8c2 	bl	8003ec4 <I2C_WaitOnFlagUntilTimeout>
 8003d40:	4603      	mov	r3, r0
 8003d42:	2b00      	cmp	r3, #0
 8003d44:	d00d      	beq.n	8003d62 <I2C_RequestMemoryRead+0x6e>
  {
    if (READ_BIT(hi2c->Instance->CR1, I2C_CR1_START) == I2C_CR1_START)
 8003d46:	68fb      	ldr	r3, [r7, #12]
 8003d48:	681b      	ldr	r3, [r3, #0]
 8003d4a:	681b      	ldr	r3, [r3, #0]
 8003d4c:	f403 7380 	and.w	r3, r3, #256	@ 0x100
 8003d50:	f5b3 7f80 	cmp.w	r3, #256	@ 0x100
 8003d54:	d103      	bne.n	8003d5e <I2C_RequestMemoryRead+0x6a>
    {
      hi2c->ErrorCode = HAL_I2C_WRONG_START;
 8003d56:	68fb      	ldr	r3, [r7, #12]
 8003d58:	f44f 7200 	mov.w	r2, #512	@ 0x200
 8003d5c:	641a      	str	r2, [r3, #64]	@ 0x40
    }
    return HAL_TIMEOUT;
 8003d5e:	2303      	movs	r3, #3
 8003d60:	e0aa      	b.n	8003eb8 <I2C_RequestMemoryRead+0x1c4>
  }

  /* Send slave address */
  hi2c->Instance->DR = I2C_7BIT_ADD_WRITE(DevAddress);
 8003d62:	897b      	ldrh	r3, [r7, #10]
 8003d64:	b2db      	uxtb	r3, r3
 8003d66:	461a      	mov	r2, r3
 8003d68:	68fb      	ldr	r3, [r7, #12]
 8003d6a:	681b      	ldr	r3, [r3, #0]
 8003d6c:	f002 02fe 	and.w	r2, r2, #254	@ 0xfe
 8003d70:	611a      	str	r2, [r3, #16]

  /* Wait until ADDR flag is set */
  if (I2C_WaitOnMasterAddressFlagUntilTimeout(hi2c, I2C_FLAG_ADDR, Timeout, Tickstart) != HAL_OK)
 8003d72:	6a7b      	ldr	r3, [r7, #36]	@ 0x24
 8003d74:	6a3a      	ldr	r2, [r7, #32]
 8003d76:	4952      	ldr	r1, [pc, #328]	@ (8003ec0 <I2C_RequestMemoryRead+0x1cc>)
 8003d78:	68f8      	ldr	r0, [r7, #12]
 8003d7a:	f000 f91d 	bl	8003fb8 <I2C_WaitOnMasterAddressFlagUntilTimeout>
 8003d7e:	4603      	mov	r3, r0
 8003d80:	2b00      	cmp	r3, #0
 8003d82:	d001      	beq.n	8003d88 <I2C_RequestMemoryRead+0x94>
  {
    return HAL_ERROR;
 8003d84:	2301      	movs	r3, #1
 8003d86:	e097      	b.n	8003eb8 <I2C_RequestMemoryRead+0x1c4>
  }

  /* Clear ADDR flag */
  __HAL_I2C_CLEAR_ADDRFLAG(hi2c);
 8003d88:	2300      	movs	r3, #0
 8003d8a:	617b      	str	r3, [r7, #20]
 8003d8c:	68fb      	ldr	r3, [r7, #12]
 8003d8e:	681b      	ldr	r3, [r3, #0]
 8003d90:	695b      	ldr	r3, [r3, #20]
 8003d92:	617b      	str	r3, [r7, #20]
 8003d94:	68fb      	ldr	r3, [r7, #12]
 8003d96:	681b      	ldr	r3, [r3, #0]
 8003d98:	699b      	ldr	r3, [r3, #24]
 8003d9a:	617b      	str	r3, [r7, #20]
 8003d9c:	697b      	ldr	r3, [r7, #20]

  /* Wait until TXE flag is set */
  if (I2C_WaitOnTXEFlagUntilTimeout(hi2c, Timeout, Tickstart) != HAL_OK)
 8003d9e:	6a7a      	ldr	r2, [r7, #36]	@ 0x24
 8003da0:	6a39      	ldr	r1, [r7, #32]
 8003da2:	68f8      	ldr	r0, [r7, #12]
 8003da4:	f000 f9a8 	bl	80040f8 <I2C_WaitOnTXEFlagUntilTimeout>
 8003da8:	4603      	mov	r3, r0
 8003daa:	2b00      	cmp	r3, #0
 8003dac:	d00d      	beq.n	8003dca <I2C_RequestMemoryRead+0xd6>
  {
    if (hi2c->ErrorCode == HAL_I2C_ERROR_AF)
 8003dae:	68fb      	ldr	r3, [r7, #12]
 8003db0:	6c1b      	ldr	r3, [r3, #64]	@ 0x40
 8003db2:	2b04      	cmp	r3, #4
 8003db4:	d107      	bne.n	8003dc6 <I2C_RequestMemoryRead+0xd2>
    {
      /* Generate Stop */
      SET_BIT(hi2c->Instance->CR1, I2C_CR1_STOP);
 8003db6:	68fb      	ldr	r3, [r7, #12]
 8003db8:	681b      	ldr	r3, [r3, #0]
 8003dba:	681a      	ldr	r2, [r3, #0]
 8003dbc:	68fb      	ldr	r3, [r7, #12]
 8003dbe:	681b      	ldr	r3, [r3, #0]
 8003dc0:	f442 7200 	orr.w	r2, r2, #512	@ 0x200
 8003dc4:	601a      	str	r2, [r3, #0]
    }
    return HAL_ERROR;
 8003dc6:	2301      	movs	r3, #1
 8003dc8:	e076      	b.n	8003eb8 <I2C_RequestMemoryRead+0x1c4>
  }

  /* If Memory address size is 8Bit */
  if (MemAddSize == I2C_MEMADD_SIZE_8BIT)
 8003dca:	88fb      	ldrh	r3, [r7, #6]
 8003dcc:	2b01      	cmp	r3, #1
 8003dce:	d105      	bne.n	8003ddc <I2C_RequestMemoryRead+0xe8>
  {
    /* Send Memory Address */
    hi2c->Instance->DR = I2C_MEM_ADD_LSB(MemAddress);
 8003dd0:	893b      	ldrh	r3, [r7, #8]
 8003dd2:	b2da      	uxtb	r2, r3
 8003dd4:	68fb      	ldr	r3, [r7, #12]
 8003dd6:	681b      	ldr	r3, [r3, #0]
 8003dd8:	611a      	str	r2, [r3, #16]
 8003dda:	e021      	b.n	8003e20 <I2C_RequestMemoryRead+0x12c>
  }
  /* If Memory address size is 16Bit */
  else
  {
    /* Send MSB of Memory Address */
    hi2c->Instance->DR = I2C_MEM_ADD_MSB(MemAddress);
 8003ddc:	893b      	ldrh	r3, [r7, #8]
 8003dde:	0a1b      	lsrs	r3, r3, #8
 8003de0:	b29b      	uxth	r3, r3
 8003de2:	b2da      	uxtb	r2, r3
 8003de4:	68fb      	ldr	r3, [r7, #12]
 8003de6:	681b      	ldr	r3, [r3, #0]
 8003de8:	611a      	str	r2, [r3, #16]

    /* Wait until TXE flag is set */
    if (I2C_WaitOnTXEFlagUntilTimeout(hi2c, Timeout, Tickstart) != HAL_OK)
 8003dea:	6a7a      	ldr	r2, [r7, #36]	@ 0x24
 8003dec:	6a39      	ldr	r1, [r7, #32]
 8003dee:	68f8      	ldr	r0, [r7, #12]
 8003df0:	f000 f982 	bl	80040f8 <I2C_WaitOnTXEFlagUntilTimeout>
 8003df4:	4603      	mov	r3, r0
 8003df6:	2b00      	cmp	r3, #0
 8003df8:	d00d      	beq.n	8003e16 <I2C_RequestMemoryRead+0x122>
    {
      if (hi2c->ErrorCode == HAL_I2C_ERROR_AF)
 8003dfa:	68fb      	ldr	r3, [r7, #12]
 8003dfc:	6c1b      	ldr	r3, [r3, #64]	@ 0x40
 8003dfe:	2b04      	cmp	r3, #4
 8003e00:	d107      	bne.n	8003e12 <I2C_RequestMemoryRead+0x11e>
      {
        /* Generate Stop */
        SET_BIT(hi2c->Instance->CR1, I2C_CR1_STOP);
 8003e02:	68fb      	ldr	r3, [r7, #12]
 8003e04:	681b      	ldr	r3, [r3, #0]
 8003e06:	681a      	ldr	r2, [r3, #0]
 8003e08:	68fb      	ldr	r3, [r7, #12]
 8003e0a:	681b      	ldr	r3, [r3, #0]
 8003e0c:	f442 7200 	orr.w	r2, r2, #512	@ 0x200
 8003e10:	601a      	str	r2, [r3, #0]
      }
      return HAL_ERROR;
 8003e12:	2301      	movs	r3, #1
 8003e14:	e050      	b.n	8003eb8 <I2C_RequestMemoryRead+0x1c4>
    }

    /* Send LSB of Memory Address */
    hi2c->Instance->DR = I2C_MEM_ADD_LSB(MemAddress);
 8003e16:	893b      	ldrh	r3, [r7, #8]
 8003e18:	b2da      	uxtb	r2, r3
 8003e1a:	68fb      	ldr	r3, [r7, #12]
 8003e1c:	681b      	ldr	r3, [r3, #0]
 8003e1e:	611a      	str	r2, [r3, #16]
  }

  /* Wait until TXE flag is set */
  if (I2C_WaitOnTXEFlagUntilTimeout(hi2c, Timeout, Tickstart) != HAL_OK)
 8003e20:	6a7a      	ldr	r2, [r7, #36]	@ 0x24
 8003e22:	6a39      	ldr	r1, [r7, #32]
 8003e24:	68f8      	ldr	r0, [r7, #12]
 8003e26:	f000 f967 	bl	80040f8 <I2C_WaitOnTXEFlagUntilTimeout>
 8003e2a:	4603      	mov	r3, r0
 8003e2c:	2b00      	cmp	r3, #0
 8003e2e:	d00d      	beq.n	8003e4c <I2C_RequestMemoryRead+0x158>
  {
    if (hi2c->ErrorCode == HAL_I2C_ERROR_AF)
 8003e30:	68fb      	ldr	r3, [r7, #12]
 8003e32:	6c1b      	ldr	r3, [r3, #64]	@ 0x40
 8003e34:	2b04      	cmp	r3, #4
 8003e36:	d107      	bne.n	8003e48 <I2C_RequestMemoryRead+0x154>
    {
      /* Generate Stop */
      SET_BIT(hi2c->Instance->CR1, I2C_CR1_STOP);
 8003e38:	68fb      	ldr	r3, [r7, #12]
 8003e3a:	681b      	ldr	r3, [r3, #0]
 8003e3c:	681a      	ldr	r2, [r3, #0]
 8003e3e:	68fb      	ldr	r3, [r7, #12]
 8003e40:	681b      	ldr	r3, [r3, #0]
 8003e42:	f442 7200 	orr.w	r2, r2, #512	@ 0x200
 8003e46:	601a      	str	r2, [r3, #0]
    }
    return HAL_ERROR;
 8003e48:	2301      	movs	r3, #1
 8003e4a:	e035      	b.n	8003eb8 <I2C_RequestMemoryRead+0x1c4>
  }

  /* Generate Restart */
  SET_BIT(hi2c->Instance->CR1, I2C_CR1_START);
 8003e4c:	68fb      	ldr	r3, [r7, #12]
 8003e4e:	681b      	ldr	r3, [r3, #0]
 8003e50:	681a      	ldr	r2, [r3, #0]
 8003e52:	68fb      	ldr	r3, [r7, #12]
 8003e54:	681b      	ldr	r3, [r3, #0]
 8003e56:	f442 7280 	orr.w	r2, r2, #256	@ 0x100
 8003e5a:	601a      	str	r2, [r3, #0]

  /* Wait until SB flag is set */
  if (I2C_WaitOnFlagUntilTimeout(hi2c, I2C_FLAG_SB, RESET, Timeout, Tickstart) != HAL_OK)
 8003e5c:	6a7b      	ldr	r3, [r7, #36]	@ 0x24
 8003e5e:	9300      	str	r3, [sp, #0]
 8003e60:	6a3b      	ldr	r3, [r7, #32]
 8003e62:	2200      	movs	r2, #0
 8003e64:	f04f 1101 	mov.w	r1, #65537	@ 0x10001
 8003e68:	68f8      	ldr	r0, [r7, #12]
 8003e6a:	f000 f82b 	bl	8003ec4 <I2C_WaitOnFlagUntilTimeout>
 8003e6e:	4603      	mov	r3, r0
 8003e70:	2b00      	cmp	r3, #0
 8003e72:	d00d      	beq.n	8003e90 <I2C_RequestMemoryRead+0x19c>
  {
    if (READ_BIT(hi2c->Instance->CR1, I2C_CR1_START) == I2C_CR1_START)
 8003e74:	68fb      	ldr	r3, [r7, #12]
 8003e76:	681b      	ldr	r3, [r3, #0]
 8003e78:	681b      	ldr	r3, [r3, #0]
 8003e7a:	f403 7380 	and.w	r3, r3, #256	@ 0x100
 8003e7e:	f5b3 7f80 	cmp.w	r3, #256	@ 0x100
 8003e82:	d103      	bne.n	8003e8c <I2C_RequestMemoryRead+0x198>
    {
      hi2c->ErrorCode = HAL_I2C_WRONG_START;
 8003e84:	68fb      	ldr	r3, [r7, #12]
 8003e86:	f44f 7200 	mov.w	r2, #512	@ 0x200
 8003e8a:	641a      	str	r2, [r3, #64]	@ 0x40
    }
    return HAL_TIMEOUT;
 8003e8c:	2303      	movs	r3, #3
 8003e8e:	e013      	b.n	8003eb8 <I2C_RequestMemoryRead+0x1c4>
  }

  /* Send slave address */
  hi2c->Instance->DR = I2C_7BIT_ADD_READ(DevAddress);
 8003e90:	897b      	ldrh	r3, [r7, #10]
 8003e92:	b2db      	uxtb	r3, r3
 8003e94:	f043 0301 	orr.w	r3, r3, #1
 8003e98:	b2da      	uxtb	r2, r3
 8003e9a:	68fb      	ldr	r3, [r7, #12]
 8003e9c:	681b      	ldr	r3, [r3, #0]
 8003e9e:	611a      	str	r2, [r3, #16]

  /* Wait until ADDR flag is set */
  if (I2C_WaitOnMasterAddressFlagUntilTimeout(hi2c, I2C_FLAG_ADDR, Timeout, Tickstart) != HAL_OK)
 8003ea0:	6a7b      	ldr	r3, [r7, #36]	@ 0x24
 8003ea2:	6a3a      	ldr	r2, [r7, #32]
 8003ea4:	4906      	ldr	r1, [pc, #24]	@ (8003ec0 <I2C_RequestMemoryRead+0x1cc>)
 8003ea6:	68f8      	ldr	r0, [r7, #12]
 8003ea8:	f000 f886 	bl	8003fb8 <I2C_WaitOnMasterAddressFlagUntilTimeout>
 8003eac:	4603      	mov	r3, r0
 8003eae:	2b00      	cmp	r3, #0
 8003eb0:	d001      	beq.n	8003eb6 <I2C_RequestMemoryRead+0x1c2>
  {
    return HAL_ERROR;
 8003eb2:	2301      	movs	r3, #1
 8003eb4:	e000      	b.n	8003eb8 <I2C_RequestMemoryRead+0x1c4>
  }

  return HAL_OK;
 8003eb6:	2300      	movs	r3, #0
}
 8003eb8:	4618      	mov	r0, r3
 8003eba:	3718      	adds	r7, #24
 8003ebc:	46bd      	mov	sp, r7
 8003ebe:	bd80      	pop	{r7, pc}
 8003ec0:	00010002 	.word	0x00010002

08003ec4 <I2C_WaitOnFlagUntilTimeout>:
  * @param  Timeout Timeout duration
  * @param  Tickstart Tick start value
  * @retval HAL status
  */
static HAL_StatusTypeDef I2C_WaitOnFlagUntilTimeout(I2C_HandleTypeDef *hi2c, uint32_t Flag, FlagStatus Status, uint32_t Timeout, uint32_t Tickstart)
{
 8003ec4:	b580      	push	{r7, lr}
 8003ec6:	b084      	sub	sp, #16
 8003ec8:	af00      	add	r7, sp, #0
 8003eca:	60f8      	str	r0, [r7, #12]
 8003ecc:	60b9      	str	r1, [r7, #8]
 8003ece:	603b      	str	r3, [r7, #0]
 8003ed0:	4613      	mov	r3, r2
 8003ed2:	71fb      	strb	r3, [r7, #7]
  /* Wait until flag is set */
  while (__HAL_I2C_GET_FLAG(hi2c, Flag) == Status)
 8003ed4:	e048      	b.n	8003f68 <I2C_WaitOnFlagUntilTimeout+0xa4>
  {
    /* Check for the Timeout */
    if (Timeout != HAL_MAX_DELAY)
 8003ed6:	683b      	ldr	r3, [r7, #0]
 8003ed8:	f1b3 3fff 	cmp.w	r3, #4294967295
 8003edc:	d044      	beq.n	8003f68 <I2C_WaitOnFlagUntilTimeout+0xa4>
    {
      if (((HAL_GetTick() - Tickstart) > Timeout) || (Timeout == 0U))
 8003ede:	f7fe fd61 	bl	80029a4 <HAL_GetTick>
 8003ee2:	4602      	mov	r2, r0
 8003ee4:	69bb      	ldr	r3, [r7, #24]
 8003ee6:	1ad3      	subs	r3, r2, r3
 8003ee8:	683a      	ldr	r2, [r7, #0]
 8003eea:	429a      	cmp	r2, r3
 8003eec:	d302      	bcc.n	8003ef4 <I2C_WaitOnFlagUntilTimeout+0x30>
 8003eee:	683b      	ldr	r3, [r7, #0]
 8003ef0:	2b00      	cmp	r3, #0
 8003ef2:	d139      	bne.n	8003f68 <I2C_WaitOnFlagUntilTimeout+0xa4>
      {
        if ((__HAL_I2C_GET_FLAG(hi2c, Flag) == Status))
 8003ef4:	68bb      	ldr	r3, [r7, #8]
 8003ef6:	0c1b      	lsrs	r3, r3, #16
 8003ef8:	b2db      	uxtb	r3, r3
 8003efa:	2b01      	cmp	r3, #1
 8003efc:	d10d      	bne.n	8003f1a <I2C_WaitOnFlagUntilTimeout+0x56>
 8003efe:	68fb      	ldr	r3, [r7, #12]
 8003f00:	681b      	ldr	r3, [r3, #0]
 8003f02:	695b      	ldr	r3, [r3, #20]
 8003f04:	43da      	mvns	r2, r3
 8003f06:	68bb      	ldr	r3, [r7, #8]
 8003f08:	4013      	ands	r3, r2
 8003f0a:	b29b      	uxth	r3, r3
 8003f0c:	2b00      	cmp	r3, #0
 8003f0e:	bf0c      	ite	eq
 8003f10:	2301      	moveq	r3, #1
 8003f12:	2300      	movne	r3, #0
 8003f14:	b2db      	uxtb	r3, r3
 8003f16:	461a      	mov	r2, r3
 8003f18:	e00c      	b.n	8003f34 <I2C_WaitOnFlagUntilTimeout+0x70>
 8003f1a:	68fb      	ldr	r3, [r7, #12]
 8003f1c:	681b      	ldr	r3, [r3, #0]
 8003f1e:	699b      	ldr	r3, [r3, #24]
 8003f20:	43da      	mvns	r2, r3
 8003f22:	68bb      	ldr	r3, [r7, #8]
 8003f24:	4013      	ands	r3, r2
 8003f26:	b29b      	uxth	r3, r3
 8003f28:	2b00      	cmp	r3, #0
 8003f2a:	bf0c      	ite	eq
 8003f2c:	2301      	moveq	r3, #1
 8003f2e:	2300      	movne	r3, #0
 8003f30:	b2db      	uxtb	r3, r3
 8003f32:	461a      	mov	r2, r3
 8003f34:	79fb      	ldrb	r3, [r7, #7]
 8003f36:	429a      	cmp	r2, r3
 8003f38:	d116      	bne.n	8003f68 <I2C_WaitOnFlagUntilTimeout+0xa4>
        {
          hi2c->PreviousState     = I2C_STATE_NONE;
 8003f3a:	68fb      	ldr	r3, [r7, #12]
 8003f3c:	2200      	movs	r2, #0
 8003f3e:	631a      	str	r2, [r3, #48]	@ 0x30
          hi2c->State             = HAL_I2C_STATE_READY;
 8003f40:	68fb      	ldr	r3, [r7, #12]
 8003f42:	2220      	movs	r2, #32
 8003f44:	f883 203d 	strb.w	r2, [r3, #61]	@ 0x3d
          hi2c->Mode              = HAL_I2C_MODE_NONE;
 8003f48:	68fb      	ldr	r3, [r7, #12]
 8003f4a:	2200      	movs	r2, #0
 8003f4c:	f883 203e 	strb.w	r2, [r3, #62]	@ 0x3e
          hi2c->ErrorCode         |= HAL_I2C_ERROR_TIMEOUT;
 8003f50:	68fb      	ldr	r3, [r7, #12]
 8003f52:	6c1b      	ldr	r3, [r3, #64]	@ 0x40
 8003f54:	f043 0220 	orr.w	r2, r3, #32
 8003f58:	68fb      	ldr	r3, [r7, #12]
 8003f5a:	641a      	str	r2, [r3, #64]	@ 0x40

          /* Process Unlocked */
          __HAL_UNLOCK(hi2c);
 8003f5c:	68fb      	ldr	r3, [r7, #12]
 8003f5e:	2200      	movs	r2, #0
 8003f60:	f883 203c 	strb.w	r2, [r3, #60]	@ 0x3c

          return HAL_ERROR;
 8003f64:	2301      	movs	r3, #1
 8003f66:	e023      	b.n	8003fb0 <I2C_WaitOnFlagUntilTimeout+0xec>
  while (__HAL_I2C_GET_FLAG(hi2c, Flag) == Status)
 8003f68:	68bb      	ldr	r3, [r7, #8]
 8003f6a:	0c1b      	lsrs	r3, r3, #16
 8003f6c:	b2db      	uxtb	r3, r3
 8003f6e:	2b01      	cmp	r3, #1
 8003f70:	d10d      	bne.n	8003f8e <I2C_WaitOnFlagUntilTimeout+0xca>
 8003f72:	68fb      	ldr	r3, [r7, #12]
 8003f74:	681b      	ldr	r3, [r3, #0]
 8003f76:	695b      	ldr	r3, [r3, #20]
 8003f78:	43da      	mvns	r2, r3
 8003f7a:	68bb      	ldr	r3, [r7, #8]
 8003f7c:	4013      	ands	r3, r2
 8003f7e:	b29b      	uxth	r3, r3
 8003f80:	2b00      	cmp	r3, #0
 8003f82:	bf0c      	ite	eq
 8003f84:	2301      	moveq	r3, #1
 8003f86:	2300      	movne	r3, #0
 8003f88:	b2db      	uxtb	r3, r3
 8003f8a:	461a      	mov	r2, r3
 8003f8c:	e00c      	b.n	8003fa8 <I2C_WaitOnFlagUntilTimeout+0xe4>
 8003f8e:	68fb      	ldr	r3, [r7, #12]
 8003f90:	681b      	ldr	r3, [r3, #0]
 8003f92:	699b      	ldr	r3, [r3, #24]
 8003f94:	43da      	mvns	r2, r3
 8003f96:	68bb      	ldr	r3, [r7, #8]
 8003f98:	4013      	ands	r3, r2
 8003f9a:	b29b      	uxth	r3, r3
 8003f9c:	2b00      	cmp	r3, #0
 8003f9e:	bf0c      	ite	eq
 8003fa0:	2301      	moveq	r3, #1
 8003fa2:	2300      	movne	r3, #0
 8003fa4:	b2db      	uxtb	r3, r3
 8003fa6:	461a      	mov	r2, r3
 8003fa8:	79fb      	ldrb	r3, [r7, #7]
 8003faa:	429a      	cmp	r2, r3
 8003fac:	d093      	beq.n	8003ed6 <I2C_WaitOnFlagUntilTimeout+0x12>
        }
      }
    }
  }
  return HAL_OK;
 8003fae:	2300      	movs	r3, #0
}
 8003fb0:	4618      	mov	r0, r3
 8003fb2:	3710      	adds	r7, #16
 8003fb4:	46bd      	mov	sp, r7
 8003fb6:	bd80      	pop	{r7, pc}

08003fb8 <I2C_WaitOnMasterAddressFlagUntilTimeout>:
  * @param  Timeout Timeout duration
  * @param  Tickstart Tick start value
  * @retval HAL status
  */
static HAL_StatusTypeDef I2C_WaitOnMasterAddressFlagUntilTimeout(I2C_HandleTypeDef *hi2c, uint32_t Flag, uint32_t Timeout, uint32_t Tickstart)
{
 8003fb8:	b580      	push	{r7, lr}
 8003fba:	b084      	sub	sp, #16
 8003fbc:	af00      	add	r7, sp, #0
 8003fbe:	60f8      	str	r0, [r7, #12]
 8003fc0:	60b9      	str	r1, [r7, #8]
 8003fc2:	607a      	str	r2, [r7, #4]
 8003fc4:	603b      	str	r3, [r7, #0]
  while (__HAL_I2C_GET_FLAG(hi2c, Flag) == RESET)
 8003fc6:	e071      	b.n	80040ac <I2C_WaitOnMasterAddressFlagUntilTimeout+0xf4>
  {
    if (__HAL_I2C_GET_FLAG(hi2c, I2C_FLAG_AF) == SET)
 8003fc8:	68fb      	ldr	r3, [r7, #12]
 8003fca:	681b      	ldr	r3, [r3, #0]
 8003fcc:	695b      	ldr	r3, [r3, #20]
 8003fce:	f403 6380 	and.w	r3, r3, #1024	@ 0x400
 8003fd2:	f5b3 6f80 	cmp.w	r3, #1024	@ 0x400
 8003fd6:	d123      	bne.n	8004020 <I2C_WaitOnMasterAddressFlagUntilTimeout+0x68>
    {
      /* Generate Stop */
      SET_BIT(hi2c->Instance->CR1, I2C_CR1_STOP);
 8003fd8:	68fb      	ldr	r3, [r7, #12]
 8003fda:	681b      	ldr	r3, [r3, #0]
 8003fdc:	681a      	ldr	r2, [r3, #0]
 8003fde:	68fb      	ldr	r3, [r7, #12]
 8003fe0:	681b      	ldr	r3, [r3, #0]
 8003fe2:	f442 7200 	orr.w	r2, r2, #512	@ 0x200
 8003fe6:	601a      	str	r2, [r3, #0]

      /* Clear AF Flag */
      __HAL_I2C_CLEAR_FLAG(hi2c, I2C_FLAG_AF);
 8003fe8:	68fb      	ldr	r3, [r7, #12]
 8003fea:	681b      	ldr	r3, [r3, #0]
 8003fec:	f46f 6280 	mvn.w	r2, #1024	@ 0x400
 8003ff0:	615a      	str	r2, [r3, #20]

      hi2c->PreviousState       = I2C_STATE_NONE;
 8003ff2:	68fb      	ldr	r3, [r7, #12]
 8003ff4:	2200      	movs	r2, #0
 8003ff6:	631a      	str	r2, [r3, #48]	@ 0x30
      hi2c->State               = HAL_I2C_STATE_READY;
 8003ff8:	68fb      	ldr	r3, [r7, #12]
 8003ffa:	2220      	movs	r2, #32
 8003ffc:	f883 203d 	strb.w	r2, [r3, #61]	@ 0x3d
      hi2c->Mode                = HAL_I2C_MODE_NONE;
 8004000:	68fb      	ldr	r3, [r7, #12]
 8004002:	2200      	movs	r2, #0
 8004004:	f883 203e 	strb.w	r2, [r3, #62]	@ 0x3e
      hi2c->ErrorCode           |= HAL_I2C_ERROR_AF;
 8004008:	68fb      	ldr	r3, [r7, #12]
 800400a:	6c1b      	ldr	r3, [r3, #64]	@ 0x40
 800400c:	f043 0204 	orr.w	r2, r3, #4
 8004010:	68fb      	ldr	r3, [r7, #12]
 8004012:	641a      	str	r2, [r3, #64]	@ 0x40

      /* Process Unlocked */
      __HAL_UNLOCK(hi2c);
 8004014:	68fb      	ldr	r3, [r7, #12]
 8004016:	2200      	movs	r2, #0
 8004018:	f883 203c 	strb.w	r2, [r3, #60]	@ 0x3c

      return HAL_ERROR;
 800401c:	2301      	movs	r3, #1
 800401e:	e067      	b.n	80040f0 <I2C_WaitOnMasterAddressFlagUntilTimeout+0x138>
    }

    /* Check for the Timeout */
    if (Timeout != HAL_MAX_DELAY)
 8004020:	687b      	ldr	r3, [r7, #4]
 8004022:	f1b3 3fff 	cmp.w	r3, #4294967295
 8004026:	d041      	beq.n	80040ac <I2C_WaitOnMasterAddressFlagUntilTimeout+0xf4>
    {
      if (((HAL_GetTick() - Tickstart) > Timeout) || (Timeout == 0U))
 8004028:	f7fe fcbc 	bl	80029a4 <HAL_GetTick>
 800402c:	4602      	mov	r2, r0
 800402e:	683b      	ldr	r3, [r7, #0]
 8004030:	1ad3      	subs	r3, r2, r3
 8004032:	687a      	ldr	r2, [r7, #4]
 8004034:	429a      	cmp	r2, r3
 8004036:	d302      	bcc.n	800403e <I2C_WaitOnMasterAddressFlagUntilTimeout+0x86>
 8004038:	687b      	ldr	r3, [r7, #4]
 800403a:	2b00      	cmp	r3, #0
 800403c:	d136      	bne.n	80040ac <I2C_WaitOnMasterAddressFlagUntilTimeout+0xf4>
      {
        if ((__HAL_I2C_GET_FLAG(hi2c, Flag) == RESET))
 800403e:	68bb      	ldr	r3, [r7, #8]
 8004040:	0c1b      	lsrs	r3, r3, #16
 8004042:	b2db      	uxtb	r3, r3
 8004044:	2b01      	cmp	r3, #1
 8004046:	d10c      	bne.n	8004062 <I2C_WaitOnMasterAddressFlagUntilTimeout+0xaa>
 8004048:	68fb      	ldr	r3, [r7, #12]
 800404a:	681b      	ldr	r3, [r3, #0]
 800404c:	695b      	ldr	r3, [r3, #20]
 800404e:	43da      	mvns	r2, r3
 8004050:	68bb      	ldr	r3, [r7, #8]
 8004052:	4013      	ands	r3, r2
 8004054:	b29b      	uxth	r3, r3
 8004056:	2b00      	cmp	r3, #0
 8004058:	bf14      	ite	ne
 800405a:	2301      	movne	r3, #1
 800405c:	2300      	moveq	r3, #0
 800405e:	b2db      	uxtb	r3, r3
 8004060:	e00b      	b.n	800407a <I2C_WaitOnMasterAddressFlagUntilTimeout+0xc2>
 8004062:	68fb      	ldr	r3, [r7, #12]
 8004064:	681b      	ldr	r3, [r3, #0]
 8004066:	699b      	ldr	r3, [r3, #24]
 8004068:	43da      	mvns	r2, r3
 800406a:	68bb      	ldr	r3, [r7, #8]
 800406c:	4013      	ands	r3, r2
 800406e:	b29b      	uxth	r3, r3
 8004070:	2b00      	cmp	r3, #0
 8004072:	bf14      	ite	ne
 8004074:	2301      	movne	r3, #1
 8004076:	2300      	moveq	r3, #0
 8004078:	b2db      	uxtb	r3, r3
 800407a:	2b00      	cmp	r3, #0
 800407c:	d016      	beq.n	80040ac <I2C_WaitOnMasterAddressFlagUntilTimeout+0xf4>
        {
          hi2c->PreviousState       = I2C_STATE_NONE;
 800407e:	68fb      	ldr	r3, [r7, #12]
 8004080:	2200      	movs	r2, #0
 8004082:	631a      	str	r2, [r3, #48]	@ 0x30
          hi2c->State               = HAL_I2C_STATE_READY;
 8004084:	68fb      	ldr	r3, [r7, #12]
 8004086:	2220      	movs	r2, #32
 8004088:	f883 203d 	strb.w	r2, [r3, #61]	@ 0x3d
          hi2c->Mode                = HAL_I2C_MODE_NONE;
 800408c:	68fb      	ldr	r3, [r7, #12]
 800408e:	2200      	movs	r2, #0
 8004090:	f883 203e 	strb.w	r2, [r3, #62]	@ 0x3e
          hi2c->ErrorCode           |= HAL_I2C_ERROR_TIMEOUT;
 8004094:	68fb      	ldr	r3, [r7, #12]
 8004096:	6c1b      	ldr	r3, [r3, #64]	@ 0x40
 8004098:	f043 0220 	orr.w	r2, r3, #32
 800409c:	68fb      	ldr	r3, [r7, #12]
 800409e:	641a      	str	r2, [r3, #64]	@ 0x40

          /* Process Unlocked */
          __HAL_UNLOCK(hi2c);
 80040a0:	68fb      	ldr	r3, [r7, #12]
 80040a2:	2200      	movs	r2, #0
 80040a4:	f883 203c 	strb.w	r2, [r3, #60]	@ 0x3c

          return HAL_ERROR;
 80040a8:	2301      	movs	r3, #1
 80040aa:	e021      	b.n	80040f0 <I2C_WaitOnMasterAddressFlagUntilTimeout+0x138>
  while (__HAL_I2C_GET_FLAG(hi2c, Flag) == RESET)
 80040ac:	68bb      	ldr	r3, [r7, #8]
 80040ae:	0c1b      	lsrs	r3, r3, #16
 80040b0:	b2db      	uxtb	r3, r3
 80040b2:	2b01      	cmp	r3, #1
 80040b4:	d10c      	bne.n	80040d0 <I2C_WaitOnMasterAddressFlagUntilTimeout+0x118>
 80040b6:	68fb      	ldr	r3, [r7, #12]
 80040b8:	681b      	ldr	r3, [r3, #0]
 80040ba:	695b      	ldr	r3, [r3, #20]
 80040bc:	43da      	mvns	r2, r3
 80040be:	68bb      	ldr	r3, [r7, #8]
 80040c0:	4013      	ands	r3, r2
 80040c2:	b29b      	uxth	r3, r3
 80040c4:	2b00      	cmp	r3, #0
 80040c6:	bf14      	ite	ne
 80040c8:	2301      	movne	r3, #1
 80040ca:	2300      	moveq	r3, #0
 80040cc:	b2db      	uxtb	r3, r3
 80040ce:	e00b      	b.n	80040e8 <I2C_WaitOnMasterAddressFlagUntilTimeout+0x130>
 80040d0:	68fb      	ldr	r3, [r7, #12]
 80040d2:	681b      	ldr	r3, [r3, #0]
 80040d4:	699b      	ldr	r3, [r3, #24]
 80040d6:	43da      	mvns	r2, r3
 80040d8:	68bb      	ldr	r3, [r7, #8]
 80040da:	4013      	ands	r3, r2
 80040dc:	b29b      	uxth	r3, r3
 80040de:	2b00      	cmp	r3, #0
 80040e0:	bf14      	ite	ne
 80040e2:	2301      	movne	r3, #1
 80040e4:	2300      	moveq	r3, #0
 80040e6:	b2db      	uxtb	r3, r3
 80040e8:	2b00      	cmp	r3, #0
 80040ea:	f47f af6d 	bne.w	8003fc8 <I2C_WaitOnMasterAddressFlagUntilTimeout+0x10>
        }
      }
    }
  }
  return HAL_OK;
 80040ee:	2300      	movs	r3, #0
}
 80040f0:	4618      	mov	r0, r3
 80040f2:	3710      	adds	r7, #16
 80040f4:	46bd      	mov	sp, r7
 80040f6:	bd80      	pop	{r7, pc}

080040f8 <I2C_WaitOnTXEFlagUntilTimeout>:
  * @param  Timeout Timeout duration
  * @param  Tickstart Tick start value
  * @retval HAL status
  */
static HAL_StatusTypeDef I2C_WaitOnTXEFlagUntilTimeout(I2C_HandleTypeDef *hi2c, uint32_t Timeout, uint32_t Tickstart)
{
 80040f8:	b580      	push	{r7, lr}
 80040fa:	b084      	sub	sp, #16
 80040fc:	af00      	add	r7, sp, #0
 80040fe:	60f8      	str	r0, [r7, #12]
 8004100:	60b9      	str	r1, [r7, #8]
 8004102:	607a      	str	r2, [r7, #4]
  while (__HAL_I2C_GET_FLAG(hi2c, I2C_FLAG_TXE) == RESET)
 8004104:	e034      	b.n	8004170 <I2C_WaitOnTXEFlagUntilTimeout+0x78>
  {
    /* Check if a NACK is detected */
    if (I2C_IsAcknowledgeFailed(hi2c) != HAL_OK)
 8004106:	68f8      	ldr	r0, [r7, #12]
 8004108:	f000 f8e3 	bl	80042d2 <I2C_IsAcknowledgeFailed>
 800410c:	4603      	mov	r3, r0
 800410e:	2b00      	cmp	r3, #0
 8004110:	d001      	beq.n	8004116 <I2C_WaitOnTXEFlagUntilTimeout+0x1e>
    {
      return HAL_ERROR;
 8004112:	2301      	movs	r3, #1
 8004114:	e034      	b.n	8004180 <I2C_WaitOnTXEFlagUntilTimeout+0x88>
    }

    /* Check for the Timeout */
    if (Timeout != HAL_MAX_DELAY)
 8004116:	68bb      	ldr	r3, [r7, #8]
 8004118:	f1b3 3fff 	cmp.w	r3, #4294967295
 800411c:	d028      	beq.n	8004170 <I2C_WaitOnTXEFlagUntilTimeout+0x78>
    {
      if (((HAL_GetTick() - Tickstart) > Timeout) || (Timeout == 0U))
 800411e:	f7fe fc41 	bl	80029a4 <HAL_GetTick>
 8004122:	4602      	mov	r2, r0
 8004124:	687b      	ldr	r3, [r7, #4]
 8004126:	1ad3      	subs	r3, r2, r3
 8004128:	68ba      	ldr	r2, [r7, #8]
 800412a:	429a      	cmp	r2, r3
 800412c:	d302      	bcc.n	8004134 <I2C_WaitOnTXEFlagUntilTimeout+0x3c>
 800412e:	68bb      	ldr	r3, [r7, #8]
 8004130:	2b00      	cmp	r3, #0
 8004132:	d11d      	bne.n	8004170 <I2C_WaitOnTXEFlagUntilTimeout+0x78>
      {
        if ((__HAL_I2C_GET_FLAG(hi2c, I2C_FLAG_TXE) == RESET))
 8004134:	68fb      	ldr	r3, [r7, #12]
 8004136:	681b      	ldr	r3, [r3, #0]
 8004138:	695b      	ldr	r3, [r3, #20]
 800413a:	f003 0380 	and.w	r3, r3, #128	@ 0x80
 800413e:	2b80      	cmp	r3, #128	@ 0x80
 8004140:	d016      	beq.n	8004170 <I2C_WaitOnTXEFlagUntilTimeout+0x78>
        {
          hi2c->PreviousState       = I2C_STATE_NONE;
 8004142:	68fb      	ldr	r3, [r7, #12]
 8004144:	2200      	movs	r2, #0
 8004146:	631a      	str	r2, [r3, #48]	@ 0x30
          hi2c->State               = HAL_I2C_STATE_READY;
 8004148:	68fb      	ldr	r3, [r7, #12]
 800414a:	2220      	movs	r2, #32
 800414c:	f883 203d 	strb.w	r2, [r3, #61]	@ 0x3d
          hi2c->Mode                = HAL_I2C_MODE_NONE;
 8004150:	68fb      	ldr	r3, [r7, #12]
 8004152:	2200      	movs	r2, #0
 8004154:	f883 203e 	strb.w	r2, [r3, #62]	@ 0x3e
          hi2c->ErrorCode           |= HAL_I2C_ERROR_TIMEOUT;
 8004158:	68fb      	ldr	r3, [r7, #12]
 800415a:	6c1b      	ldr	r3, [r3, #64]	@ 0x40
 800415c:	f043 0220 	orr.w	r2, r3, #32
 8004160:	68fb      	ldr	r3, [r7, #12]
 8004162:	641a      	str	r2, [r3, #64]	@ 0x40

          /* Process Unlocked */
          __HAL_UNLOCK(hi2c);
 8004164:	68fb      	ldr	r3, [r7, #12]
 8004166:	2200      	movs	r2, #0
 8004168:	f883 203c 	strb.w	r2, [r3, #60]	@ 0x3c

          return HAL_ERROR;
 800416c:	2301      	movs	r3, #1
 800416e:	e007      	b.n	8004180 <I2C_WaitOnTXEFlagUntilTimeout+0x88>
  while (__HAL_I2C_GET_FLAG(hi2c, I2C_FLAG_TXE) == RESET)
 8004170:	68fb      	ldr	r3, [r7, #12]
 8004172:	681b      	ldr	r3, [r3, #0]
 8004174:	695b      	ldr	r3, [r3, #20]
 8004176:	f003 0380 	and.w	r3, r3, #128	@ 0x80
 800417a:	2b80      	cmp	r3, #128	@ 0x80
 800417c:	d1c3      	bne.n	8004106 <I2C_WaitOnTXEFlagUntilTimeout+0xe>
        }
      }
    }
  }
  return HAL_OK;
 800417e:	2300      	movs	r3, #0
}
 8004180:	4618      	mov	r0, r3
 8004182:	3710      	adds	r7, #16
 8004184:	46bd      	mov	sp, r7
 8004186:	bd80      	pop	{r7, pc}

08004188 <I2C_WaitOnBTFFlagUntilTimeout>:
  * @param  Timeout Timeout duration
  * @param  Tickstart Tick start value
  * @retval HAL status
  */
static HAL_StatusTypeDef I2C_WaitOnBTFFlagUntilTimeout(I2C_HandleTypeDef *hi2c, uint32_t Timeout, uint32_t Tickstart)
{
 8004188:	b580      	push	{r7, lr}
 800418a:	b084      	sub	sp, #16
 800418c:	af00      	add	r7, sp, #0
 800418e:	60f8      	str	r0, [r7, #12]
 8004190:	60b9      	str	r1, [r7, #8]
 8004192:	607a      	str	r2, [r7, #4]
  while (__HAL_I2C_GET_FLAG(hi2c, I2C_FLAG_BTF) == RESET)
 8004194:	e034      	b.n	8004200 <I2C_WaitOnBTFFlagUntilTimeout+0x78>
  {
    /* Check if a NACK is detected */
    if (I2C_IsAcknowledgeFailed(hi2c) != HAL_OK)
 8004196:	68f8      	ldr	r0, [r7, #12]
 8004198:	f000 f89b 	bl	80042d2 <I2C_IsAcknowledgeFailed>
 800419c:	4603      	mov	r3, r0
 800419e:	2b00      	cmp	r3, #0
 80041a0:	d001      	beq.n	80041a6 <I2C_WaitOnBTFFlagUntilTimeout+0x1e>
    {
      return HAL_ERROR;
 80041a2:	2301      	movs	r3, #1
 80041a4:	e034      	b.n	8004210 <I2C_WaitOnBTFFlagUntilTimeout+0x88>
    }

    /* Check for the Timeout */
    if (Timeout != HAL_MAX_DELAY)
 80041a6:	68bb      	ldr	r3, [r7, #8]
 80041a8:	f1b3 3fff 	cmp.w	r3, #4294967295
 80041ac:	d028      	beq.n	8004200 <I2C_WaitOnBTFFlagUntilTimeout+0x78>
    {
      if (((HAL_GetTick() - Tickstart) > Timeout) || (Timeout == 0U))
 80041ae:	f7fe fbf9 	bl	80029a4 <HAL_GetTick>
 80041b2:	4602      	mov	r2, r0
 80041b4:	687b      	ldr	r3, [r7, #4]
 80041b6:	1ad3      	subs	r3, r2, r3
 80041b8:	68ba      	ldr	r2, [r7, #8]
 80041ba:	429a      	cmp	r2, r3
 80041bc:	d302      	bcc.n	80041c4 <I2C_WaitOnBTFFlagUntilTimeout+0x3c>
 80041be:	68bb      	ldr	r3, [r7, #8]
 80041c0:	2b00      	cmp	r3, #0
 80041c2:	d11d      	bne.n	8004200 <I2C_WaitOnBTFFlagUntilTimeout+0x78>
      {
        if ((__HAL_I2C_GET_FLAG(hi2c, I2C_FLAG_BTF) == RESET))
 80041c4:	68fb      	ldr	r3, [r7, #12]
 80041c6:	681b      	ldr	r3, [r3, #0]
 80041c8:	695b      	ldr	r3, [r3, #20]
 80041ca:	f003 0304 	and.w	r3, r3, #4
 80041ce:	2b04      	cmp	r3, #4
 80041d0:	d016      	beq.n	8004200 <I2C_WaitOnBTFFlagUntilTimeout+0x78>
        {
          hi2c->PreviousState       = I2C_STATE_NONE;
 80041d2:	68fb      	ldr	r3, [r7, #12]
 80041d4:	2200      	movs	r2, #0
 80041d6:	631a      	str	r2, [r3, #48]	@ 0x30
          hi2c->State               = HAL_I2C_STATE_READY;
 80041d8:	68fb      	ldr	r3, [r7, #12]
 80041da:	2220      	movs	r2, #32
 80041dc:	f883 203d 	strb.w	r2, [r3, #61]	@ 0x3d
          hi2c->Mode                = HAL_I2C_MODE_NONE;
 80041e0:	68fb      	ldr	r3, [r7, #12]
 80041e2:	2200      	movs	r2, #0
 80041e4:	f883 203e 	strb.w	r2, [r3, #62]	@ 0x3e
          hi2c->ErrorCode           |= HAL_I2C_ERROR_TIMEOUT;
 80041e8:	68fb      	ldr	r3, [r7, #12]
 80041ea:	6c1b      	ldr	r3, [r3, #64]	@ 0x40
 80041ec:	f043 0220 	orr.w	r2, r3, #32
 80041f0:	68fb      	ldr	r3, [r7, #12]
 80041f2:	641a      	str	r2, [r3, #64]	@ 0x40

          /* Process Unlocked */
          __HAL_UNLOCK(hi2c);
 80041f4:	68fb      	ldr	r3, [r7, #12]
 80041f6:	2200      	movs	r2, #0
 80041f8:	f883 203c 	strb.w	r2, [r3, #60]	@ 0x3c

          return HAL_ERROR;
 80041fc:	2301      	movs	r3, #1
 80041fe:	e007      	b.n	8004210 <I2C_WaitOnBTFFlagUntilTimeout+0x88>
  while (__HAL_I2C_GET_FLAG(hi2c, I2C_FLAG_BTF) == RESET)
 8004200:	68fb      	ldr	r3, [r7, #12]
 8004202:	681b      	ldr	r3, [r3, #0]
 8004204:	695b      	ldr	r3, [r3, #20]
 8004206:	f003 0304 	and.w	r3, r3, #4
 800420a:	2b04      	cmp	r3, #4
 800420c:	d1c3      	bne.n	8004196 <I2C_WaitOnBTFFlagUntilTimeout+0xe>
        }
      }
    }
  }
  return HAL_OK;
 800420e:	2300      	movs	r3, #0
}
 8004210:	4618      	mov	r0, r3
 8004212:	3710      	adds	r7, #16
 8004214:	46bd      	mov	sp, r7
 8004216:	bd80      	pop	{r7, pc}

08004218 <I2C_WaitOnRXNEFlagUntilTimeout>:
  * @param  Timeout Timeout duration
  * @param  Tickstart Tick start value
  * @retval HAL status
  */
static HAL_StatusTypeDef I2C_WaitOnRXNEFlagUntilTimeout(I2C_HandleTypeDef *hi2c, uint32_t Timeout, uint32_t Tickstart)
{
 8004218:	b580      	push	{r7, lr}
 800421a:	b084      	sub	sp, #16
 800421c:	af00      	add	r7, sp, #0
 800421e:	60f8      	str	r0, [r7, #12]
 8004220:	60b9      	str	r1, [r7, #8]
 8004222:	607a      	str	r2, [r7, #4]

  while (__HAL_I2C_GET_FLAG(hi2c, I2C_FLAG_RXNE) == RESET)
 8004224:	e049      	b.n	80042ba <I2C_WaitOnRXNEFlagUntilTimeout+0xa2>
  {
    /* Check if a STOPF is detected */
    if (__HAL_I2C_GET_FLAG(hi2c, I2C_FLAG_STOPF) == SET)
 8004226:	68fb      	ldr	r3, [r7, #12]
 8004228:	681b      	ldr	r3, [r3, #0]
 800422a:	695b      	ldr	r3, [r3, #20]
 800422c:	f003 0310 	and.w	r3, r3, #16
 8004230:	2b10      	cmp	r3, #16
 8004232:	d119      	bne.n	8004268 <I2C_WaitOnRXNEFlagUntilTimeout+0x50>
    {
      /* Clear STOP Flag */
      __HAL_I2C_CLEAR_FLAG(hi2c, I2C_FLAG_STOPF);
 8004234:	68fb      	ldr	r3, [r7, #12]
 8004236:	681b      	ldr	r3, [r3, #0]
 8004238:	f06f 0210 	mvn.w	r2, #16
 800423c:	615a      	str	r2, [r3, #20]

      hi2c->PreviousState       = I2C_STATE_NONE;
 800423e:	68fb      	ldr	r3, [r7, #12]
 8004240:	2200      	movs	r2, #0
 8004242:	631a      	str	r2, [r3, #48]	@ 0x30
      hi2c->State               = HAL_I2C_STATE_READY;
 8004244:	68fb      	ldr	r3, [r7, #12]
 8004246:	2220      	movs	r2, #32
 8004248:	f883 203d 	strb.w	r2, [r3, #61]	@ 0x3d
      hi2c->Mode                = HAL_I2C_MODE_NONE;
 800424c:	68fb      	ldr	r3, [r7, #12]
 800424e:	2200      	movs	r2, #0
 8004250:	f883 203e 	strb.w	r2, [r3, #62]	@ 0x3e
      hi2c->ErrorCode           |= HAL_I2C_ERROR_NONE;
 8004254:	68fb      	ldr	r3, [r7, #12]
 8004256:	6c1a      	ldr	r2, [r3, #64]	@ 0x40
 8004258:	68fb      	ldr	r3, [r7, #12]
 800425a:	641a      	str	r2, [r3, #64]	@ 0x40

      /* Process Unlocked */
      __HAL_UNLOCK(hi2c);
 800425c:	68fb      	ldr	r3, [r7, #12]
 800425e:	2200      	movs	r2, #0
 8004260:	f883 203c 	strb.w	r2, [r3, #60]	@ 0x3c

      return HAL_ERROR;
 8004264:	2301      	movs	r3, #1
 8004266:	e030      	b.n	80042ca <I2C_WaitOnRXNEFlagUntilTimeout+0xb2>
    }

    /* Check for the Timeout */
    if (((HAL_GetTick() - Tickstart) > Timeout) || (Timeout == 0U))
 8004268:	f7fe fb9c 	bl	80029a4 <HAL_GetTick>
 800426c:	4602      	mov	r2, r0
 800426e:	687b      	ldr	r3, [r7, #4]
 8004270:	1ad3      	subs	r3, r2, r3
 8004272:	68ba      	ldr	r2, [r7, #8]
 8004274:	429a      	cmp	r2, r3
 8004276:	d302      	bcc.n	800427e <I2C_WaitOnRXNEFlagUntilTimeout+0x66>
 8004278:	68bb      	ldr	r3, [r7, #8]
 800427a:	2b00      	cmp	r3, #0
 800427c:	d11d      	bne.n	80042ba <I2C_WaitOnRXNEFlagUntilTimeout+0xa2>
    {
      if ((__HAL_I2C_GET_FLAG(hi2c, I2C_FLAG_RXNE) == RESET))
 800427e:	68fb      	ldr	r3, [r7, #12]
 8004280:	681b      	ldr	r3, [r3, #0]
 8004282:	695b      	ldr	r3, [r3, #20]
 8004284:	f003 0340 	and.w	r3, r3, #64	@ 0x40
 8004288:	2b40      	cmp	r3, #64	@ 0x40
 800428a:	d016      	beq.n	80042ba <I2C_WaitOnRXNEFlagUntilTimeout+0xa2>
      {
        hi2c->PreviousState       = I2C_STATE_NONE;
 800428c:	68fb      	ldr	r3, [r7, #12]
 800428e:	2200      	movs	r2, #0
 8004290:	631a      	str	r2, [r3, #48]	@ 0x30
        hi2c->State               = HAL_I2C_STATE_READY;
 8004292:	68fb      	ldr	r3, [r7, #12]
 8004294:	2220      	movs	r2, #32
 8004296:	f883 203d 	strb.w	r2, [r3, #61]	@ 0x3d
        hi2c->Mode                = HAL_I2C_MODE_NONE;
 800429a:	68fb      	ldr	r3, [r7, #12]
 800429c:	2200      	movs	r2, #0
 800429e:	f883 203e 	strb.w	r2, [r3, #62]	@ 0x3e
        hi2c->ErrorCode           |= HAL_I2C_ERROR_TIMEOUT;
 80042a2:	68fb      	ldr	r3, [r7, #12]
 80042a4:	6c1b      	ldr	r3, [r3, #64]	@ 0x40
 80042a6:	f043 0220 	orr.w	r2, r3, #32
 80042aa:	68fb      	ldr	r3, [r7, #12]
 80042ac:	641a      	str	r2, [r3, #64]	@ 0x40

        /* Process Unlocked */
        __HAL_UNLOCK(hi2c);
 80042ae:	68fb      	ldr	r3, [r7, #12]
 80042b0:	2200      	movs	r2, #0
 80042b2:	f883 203c 	strb.w	r2, [r3, #60]	@ 0x3c

        return HAL_ERROR;
 80042b6:	2301      	movs	r3, #1
 80042b8:	e007      	b.n	80042ca <I2C_WaitOnRXNEFlagUntilTimeout+0xb2>
  while (__HAL_I2C_GET_FLAG(hi2c, I2C_FLAG_RXNE) == RESET)
 80042ba:	68fb      	ldr	r3, [r7, #12]
 80042bc:	681b      	ldr	r3, [r3, #0]
 80042be:	695b      	ldr	r3, [r3, #20]
 80042c0:	f003 0340 	and.w	r3, r3, #64	@ 0x40
 80042c4:	2b40      	cmp	r3, #64	@ 0x40
 80042c6:	d1ae      	bne.n	8004226 <I2C_WaitOnRXNEFlagUntilTimeout+0xe>
      }
    }
  }
  return HAL_OK;
 80042c8:	2300      	movs	r3, #0
}
 80042ca:	4618      	mov	r0, r3
 80042cc:	3710      	adds	r7, #16
 80042ce:	46bd      	mov	sp, r7
 80042d0:	bd80      	pop	{r7, pc}

080042d2 <I2C_IsAcknowledgeFailed>:
  * @param  hi2c Pointer to a I2C_HandleTypeDef structure that contains
  *                the configuration information for the specified I2C.
  * @retval HAL status
  */
static HAL_StatusTypeDef I2C_IsAcknowledgeFailed(I2C_HandleTypeDef *hi2c)
{
 80042d2:	b480      	push	{r7}
 80042d4:	b083      	sub	sp, #12
 80042d6:	af00      	add	r7, sp, #0
 80042d8:	6078      	str	r0, [r7, #4]
  if (__HAL_I2C_GET_FLAG(hi2c, I2C_FLAG_AF) == SET)
 80042da:	687b      	ldr	r3, [r7, #4]
 80042dc:	681b      	ldr	r3, [r3, #0]
 80042de:	695b      	ldr	r3, [r3, #20]
 80042e0:	f403 6380 	and.w	r3, r3, #1024	@ 0x400
 80042e4:	f5b3 6f80 	cmp.w	r3, #1024	@ 0x400
 80042e8:	d11b      	bne.n	8004322 <I2C_IsAcknowledgeFailed+0x50>
  {
    /* Clear NACKF Flag */
    __HAL_I2C_CLEAR_FLAG(hi2c, I2C_FLAG_AF);
 80042ea:	687b      	ldr	r3, [r7, #4]
 80042ec:	681b      	ldr	r3, [r3, #0]
 80042ee:	f46f 6280 	mvn.w	r2, #1024	@ 0x400
 80042f2:	615a      	str	r2, [r3, #20]

    hi2c->PreviousState       = I2C_STATE_NONE;
 80042f4:	687b      	ldr	r3, [r7, #4]
 80042f6:	2200      	movs	r2, #0
 80042f8:	631a      	str	r2, [r3, #48]	@ 0x30
    hi2c->State               = HAL_I2C_STATE_READY;
 80042fa:	687b      	ldr	r3, [r7, #4]
 80042fc:	2220      	movs	r2, #32
 80042fe:	f883 203d 	strb.w	r2, [r3, #61]	@ 0x3d
    hi2c->Mode                = HAL_I2C_MODE_NONE;
 8004302:	687b      	ldr	r3, [r7, #4]
 8004304:	2200      	movs	r2, #0
 8004306:	f883 203e 	strb.w	r2, [r3, #62]	@ 0x3e
    hi2c->ErrorCode           |= HAL_I2C_ERROR_AF;
 800430a:	687b      	ldr	r3, [r7, #4]
 800430c:	6c1b      	ldr	r3, [r3, #64]	@ 0x40
 800430e:	f043 0204 	orr.w	r2, r3, #4
 8004312:	687b      	ldr	r3, [r7, #4]
 8004314:	641a      	str	r2, [r3, #64]	@ 0x40

    /* Process Unlocked */
    __HAL_UNLOCK(hi2c);
 8004316:	687b      	ldr	r3, [r7, #4]
 8004318:	2200      	movs	r2, #0
 800431a:	f883 203c 	strb.w	r2, [r3, #60]	@ 0x3c

    return HAL_ERROR;
 800431e:	2301      	movs	r3, #1
 8004320:	e000      	b.n	8004324 <I2C_IsAcknowledgeFailed+0x52>
  }
  return HAL_OK;
 8004322:	2300      	movs	r3, #0
}
 8004324:	4618      	mov	r0, r3
 8004326:	370c      	adds	r7, #12
 8004328:	46bd      	mov	sp, r7
 800432a:	f85d 7b04 	ldr.w	r7, [sp], #4
 800432e:	4770      	bx	lr

08004330 <HAL_I2CEx_ConfigAnalogFilter>:
  *                the configuration information for the specified I2Cx peripheral.
  * @param  AnalogFilter new state of the Analog filter.
  * @retval HAL status
  */
HAL_StatusTypeDef HAL_I2CEx_ConfigAnalogFilter(I2C_HandleTypeDef *hi2c, uint32_t AnalogFilter)
{
 8004330:	b480      	push	{r7}
 8004332:	b083      	sub	sp, #12
 8004334:	af00      	add	r7, sp, #0
 8004336:	6078      	str	r0, [r7, #4]
 8004338:	6039      	str	r1, [r7, #0]
  /* Check the parameters */
  assert_param(IS_I2C_ALL_INSTANCE(hi2c->Instance));
  assert_param(IS_I2C_ANALOG_FILTER(AnalogFilter));

  if (hi2c->State == HAL_I2C_STATE_READY)
 800433a:	687b      	ldr	r3, [r7, #4]
 800433c:	f893 303d 	ldrb.w	r3, [r3, #61]	@ 0x3d
 8004340:	b2db      	uxtb	r3, r3
 8004342:	2b20      	cmp	r3, #32
 8004344:	d129      	bne.n	800439a <HAL_I2CEx_ConfigAnalogFilter+0x6a>
  {
    hi2c->State = HAL_I2C_STATE_BUSY;
 8004346:	687b      	ldr	r3, [r7, #4]
 8004348:	2224      	movs	r2, #36	@ 0x24
 800434a:	f883 203d 	strb.w	r2, [r3, #61]	@ 0x3d

    /* Disable the selected I2C peripheral */
    __HAL_I2C_DISABLE(hi2c);
 800434e:	687b      	ldr	r3, [r7, #4]
 8004350:	681b      	ldr	r3, [r3, #0]
 8004352:	681a      	ldr	r2, [r3, #0]
 8004354:	687b      	ldr	r3, [r7, #4]
 8004356:	681b      	ldr	r3, [r3, #0]
 8004358:	f022 0201 	bic.w	r2, r2, #1
 800435c:	601a      	str	r2, [r3, #0]

    /* Reset I2Cx ANOFF bit */
    hi2c->Instance->FLTR &= ~(I2C_FLTR_ANOFF);
 800435e:	687b      	ldr	r3, [r7, #4]
 8004360:	681b      	ldr	r3, [r3, #0]
 8004362:	6a5a      	ldr	r2, [r3, #36]	@ 0x24
 8004364:	687b      	ldr	r3, [r7, #4]
 8004366:	681b      	ldr	r3, [r3, #0]
 8004368:	f022 0210 	bic.w	r2, r2, #16
 800436c:	625a      	str	r2, [r3, #36]	@ 0x24

    /* Disable the analog filter */
    hi2c->Instance->FLTR |= AnalogFilter;
 800436e:	687b      	ldr	r3, [r7, #4]
 8004370:	681b      	ldr	r3, [r3, #0]
 8004372:	6a59      	ldr	r1, [r3, #36]	@ 0x24
 8004374:	687b      	ldr	r3, [r7, #4]
 8004376:	681b      	ldr	r3, [r3, #0]
 8004378:	683a      	ldr	r2, [r7, #0]
 800437a:	430a      	orrs	r2, r1
 800437c:	625a      	str	r2, [r3, #36]	@ 0x24

    __HAL_I2C_ENABLE(hi2c);
 800437e:	687b      	ldr	r3, [r7, #4]
 8004380:	681b      	ldr	r3, [r3, #0]
 8004382:	681a      	ldr	r2, [r3, #0]
 8004384:	687b      	ldr	r3, [r7, #4]
 8004386:	681b      	ldr	r3, [r3, #0]
 8004388:	f042 0201 	orr.w	r2, r2, #1
 800438c:	601a      	str	r2, [r3, #0]

    hi2c->State = HAL_I2C_STATE_READY;
 800438e:	687b      	ldr	r3, [r7, #4]
 8004390:	2220      	movs	r2, #32
 8004392:	f883 203d 	strb.w	r2, [r3, #61]	@ 0x3d

    return HAL_OK;
 8004396:	2300      	movs	r3, #0
 8004398:	e000      	b.n	800439c <HAL_I2CEx_ConfigAnalogFilter+0x6c>
  }
  else
  {
    return HAL_BUSY;
 800439a:	2302      	movs	r3, #2
  }
}
 800439c:	4618      	mov	r0, r3
 800439e:	370c      	adds	r7, #12
 80043a0:	46bd      	mov	sp, r7
 80043a2:	f85d 7b04 	ldr.w	r7, [sp], #4
 80043a6:	4770      	bx	lr

080043a8 <HAL_I2CEx_ConfigDigitalFilter>:
  *                the configuration information for the specified I2Cx peripheral.
  * @param  DigitalFilter Coefficient of digital noise filter between 0x00 and 0x0F.
  * @retval HAL status
  */
HAL_StatusTypeDef HAL_I2CEx_ConfigDigitalFilter(I2C_HandleTypeDef *hi2c, uint32_t DigitalFilter)
{
 80043a8:	b480      	push	{r7}
 80043aa:	b085      	sub	sp, #20
 80043ac:	af00      	add	r7, sp, #0
 80043ae:	6078      	str	r0, [r7, #4]
 80043b0:	6039      	str	r1, [r7, #0]
  uint16_t tmpreg = 0;
 80043b2:	2300      	movs	r3, #0
 80043b4:	81fb      	strh	r3, [r7, #14]

  /* Check the parameters */
  assert_param(IS_I2C_ALL_INSTANCE(hi2c->Instance));
  assert_param(IS_I2C_DIGITAL_FILTER(DigitalFilter));

  if (hi2c->State == HAL_I2C_STATE_READY)
 80043b6:	687b      	ldr	r3, [r7, #4]
 80043b8:	f893 303d 	ldrb.w	r3, [r3, #61]	@ 0x3d
 80043bc:	b2db      	uxtb	r3, r3
 80043be:	2b20      	cmp	r3, #32
 80043c0:	d12a      	bne.n	8004418 <HAL_I2CEx_ConfigDigitalFilter+0x70>
  {
    hi2c->State = HAL_I2C_STATE_BUSY;
 80043c2:	687b      	ldr	r3, [r7, #4]
 80043c4:	2224      	movs	r2, #36	@ 0x24
 80043c6:	f883 203d 	strb.w	r2, [r3, #61]	@ 0x3d

    /* Disable the selected I2C peripheral */
    __HAL_I2C_DISABLE(hi2c);
 80043ca:	687b      	ldr	r3, [r7, #4]
 80043cc:	681b      	ldr	r3, [r3, #0]
 80043ce:	681a      	ldr	r2, [r3, #0]
 80043d0:	687b      	ldr	r3, [r7, #4]
 80043d2:	681b      	ldr	r3, [r3, #0]
 80043d4:	f022 0201 	bic.w	r2, r2, #1
 80043d8:	601a      	str	r2, [r3, #0]

    /* Get the old register value */
    tmpreg = hi2c->Instance->FLTR;
 80043da:	687b      	ldr	r3, [r7, #4]
 80043dc:	681b      	ldr	r3, [r3, #0]
 80043de:	6a5b      	ldr	r3, [r3, #36]	@ 0x24
 80043e0:	81fb      	strh	r3, [r7, #14]

    /* Reset I2Cx DNF bit [3:0] */
    tmpreg &= ~(I2C_FLTR_DNF);
 80043e2:	89fb      	ldrh	r3, [r7, #14]
 80043e4:	f023 030f 	bic.w	r3, r3, #15
 80043e8:	81fb      	strh	r3, [r7, #14]

    /* Set I2Cx DNF coefficient */
    tmpreg |= DigitalFilter;
 80043ea:	683b      	ldr	r3, [r7, #0]
 80043ec:	b29a      	uxth	r2, r3
 80043ee:	89fb      	ldrh	r3, [r7, #14]
 80043f0:	4313      	orrs	r3, r2
 80043f2:	81fb      	strh	r3, [r7, #14]

    /* Store the new register value */
    hi2c->Instance->FLTR = tmpreg;
 80043f4:	687b      	ldr	r3, [r7, #4]
 80043f6:	681b      	ldr	r3, [r3, #0]
 80043f8:	89fa      	ldrh	r2, [r7, #14]
 80043fa:	625a      	str	r2, [r3, #36]	@ 0x24

    __HAL_I2C_ENABLE(hi2c);
 80043fc:	687b      	ldr	r3, [r7, #4]
 80043fe:	681b      	ldr	r3, [r3, #0]
 8004400:	681a      	ldr	r2, [r3, #0]
 8004402:	687b      	ldr	r3, [r7, #4]
 8004404:	681b      	ldr	r3, [r3, #0]
 8004406:	f042 0201 	orr.w	r2, r2, #1
 800440a:	601a      	str	r2, [r3, #0]

    hi2c->State = HAL_I2C_STATE_READY;
 800440c:	687b      	ldr	r3, [r7, #4]
 800440e:	2220      	movs	r2, #32
 8004410:	f883 203d 	strb.w	r2, [r3, #61]	@ 0x3d

    return HAL_OK;
 8004414:	2300      	movs	r3, #0
 8004416:	e000      	b.n	800441a <HAL_I2CEx_ConfigDigitalFilter+0x72>
  }
  else
  {
    return HAL_BUSY;
 8004418:	2302      	movs	r3, #2
  }
}
 800441a:	4618      	mov	r0, r3
 800441c:	3714      	adds	r7, #20
 800441e:	46bd      	mov	sp, r7
 8004420:	f85d 7b04 	ldr.w	r7, [sp], #4
 8004424:	4770      	bx	lr
	...

08004428 <HAL_PWREx_EnableOverDrive>:
  *         During the Over-drive switch activation, no peripheral clocks should be enabled.   
  *         The peripheral clocks must be enabled once the Over-drive mode is activated.   
  * @retval HAL status
  */
HAL_StatusTypeDef HAL_PWREx_EnableOverDrive(void)
{
 8004428:	b580      	push	{r7, lr}
 800442a:	b082      	sub	sp, #8
 800442c:	af00      	add	r7, sp, #0
  uint32_t tickstart = 0U;
 800442e:	2300      	movs	r3, #0
 8004430:	607b      	str	r3, [r7, #4]

  __HAL_RCC_PWR_CLK_ENABLE();
 8004432:	2300      	movs	r3, #0
 8004434:	603b      	str	r3, [r7, #0]
 8004436:	4b20      	ldr	r3, [pc, #128]	@ (80044b8 <HAL_PWREx_EnableOverDrive+0x90>)
 8004438:	6c1b      	ldr	r3, [r3, #64]	@ 0x40
 800443a:	4a1f      	ldr	r2, [pc, #124]	@ (80044b8 <HAL_PWREx_EnableOverDrive+0x90>)
 800443c:	f043 5380 	orr.w	r3, r3, #268435456	@ 0x10000000
 8004440:	6413      	str	r3, [r2, #64]	@ 0x40
 8004442:	4b1d      	ldr	r3, [pc, #116]	@ (80044b8 <HAL_PWREx_EnableOverDrive+0x90>)
 8004444:	6c1b      	ldr	r3, [r3, #64]	@ 0x40
 8004446:	f003 5380 	and.w	r3, r3, #268435456	@ 0x10000000
 800444a:	603b      	str	r3, [r7, #0]
 800444c:	683b      	ldr	r3, [r7, #0]
  
  /* Enable the Over-drive to extend the clock frequency to 180 Mhz */
  __HAL_PWR_OVERDRIVE_ENABLE();
 800444e:	4b1b      	ldr	r3, [pc, #108]	@ (80044bc <HAL_PWREx_EnableOverDrive+0x94>)
 8004450:	2201      	movs	r2, #1
 8004452:	601a      	str	r2, [r3, #0]

  /* Get tick */
  tickstart = HAL_GetTick();
 8004454:	f7fe faa6 	bl	80029a4 <HAL_GetTick>
 8004458:	6078      	str	r0, [r7, #4]

  while(!__HAL_PWR_GET_FLAG(PWR_FLAG_ODRDY))
 800445a:	e009      	b.n	8004470 <HAL_PWREx_EnableOverDrive+0x48>
  {
    if((HAL_GetTick() - tickstart) > PWR_OVERDRIVE_TIMEOUT_VALUE)
 800445c:	f7fe faa2 	bl	80029a4 <HAL_GetTick>
 8004460:	4602      	mov	r2, r0
 8004462:	687b      	ldr	r3, [r7, #4]
 8004464:	1ad3      	subs	r3, r2, r3
 8004466:	f5b3 7f7a 	cmp.w	r3, #1000	@ 0x3e8
 800446a:	d901      	bls.n	8004470 <HAL_PWREx_EnableOverDrive+0x48>
    {
      return HAL_TIMEOUT;
 800446c:	2303      	movs	r3, #3
 800446e:	e01f      	b.n	80044b0 <HAL_PWREx_EnableOverDrive+0x88>
  while(!__HAL_PWR_GET_FLAG(PWR_FLAG_ODRDY))
 8004470:	4b13      	ldr	r3, [pc, #76]	@ (80044c0 <HAL_PWREx_EnableOverDrive+0x98>)
 8004472:	685b      	ldr	r3, [r3, #4]
 8004474:	f403 3380 	and.w	r3, r3, #65536	@ 0x10000
 8004478:	f5b3 3f80 	cmp.w	r3, #65536	@ 0x10000
 800447c:	d1ee      	bne.n	800445c <HAL_PWREx_EnableOverDrive+0x34>
    }
  }
  
  /* Enable the Over-drive switch */
  __HAL_PWR_OVERDRIVESWITCHING_ENABLE();
 800447e:	4b11      	ldr	r3, [pc, #68]	@ (80044c4 <HAL_PWREx_EnableOverDrive+0x9c>)
 8004480:	2201      	movs	r2, #1
 8004482:	601a      	str	r2, [r3, #0]

  /* Get tick */
  tickstart = HAL_GetTick();
 8004484:	f7fe fa8e 	bl	80029a4 <HAL_GetTick>
 8004488:	6078      	str	r0, [r7, #4]

  while(!__HAL_PWR_GET_FLAG(PWR_FLAG_ODSWRDY))
 800448a:	e009      	b.n	80044a0 <HAL_PWREx_EnableOverDrive+0x78>
  {
    if((HAL_GetTick() - tickstart ) > PWR_OVERDRIVE_TIMEOUT_VALUE)
 800448c:	f7fe fa8a 	bl	80029a4 <HAL_GetTick>
 8004490:	4602      	mov	r2, r0
 8004492:	687b      	ldr	r3, [r7, #4]
 8004494:	1ad3      	subs	r3, r2, r3
 8004496:	f5b3 7f7a 	cmp.w	r3, #1000	@ 0x3e8
 800449a:	d901      	bls.n	80044a0 <HAL_PWREx_EnableOverDrive+0x78>
    {
      return HAL_TIMEOUT;
 800449c:	2303      	movs	r3, #3
 800449e:	e007      	b.n	80044b0 <HAL_PWREx_EnableOverDrive+0x88>
  while(!__HAL_PWR_GET_FLAG(PWR_FLAG_ODSWRDY))
 80044a0:	4b07      	ldr	r3, [pc, #28]	@ (80044c0 <HAL_PWREx_EnableOverDrive+0x98>)
 80044a2:	685b      	ldr	r3, [r3, #4]
 80044a4:	f403 3300 	and.w	r3, r3, #131072	@ 0x20000
 80044a8:	f5b3 3f00 	cmp.w	r3, #131072	@ 0x20000
 80044ac:	d1ee      	bne.n	800448c <HAL_PWREx_EnableOverDrive+0x64>
    }
  } 
  return HAL_OK;
 80044ae:	2300      	movs	r3, #0
}
 80044b0:	4618      	mov	r0, r3
 80044b2:	3708      	adds	r7, #8
 80044b4:	46bd      	mov	sp, r7
 80044b6:	bd80      	pop	{r7, pc}
 80044b8:	40023800 	.word	0x40023800
 80044bc:	420e0040 	.word	0x420e0040
 80044c0:	40007000 	.word	0x40007000
 80044c4:	420e0044 	.word	0x420e0044

080044c8 <HAL_RCC_OscConfig>:
  *         supported by this API. User should request a transition to HSE Off
  *         first and then HSE On or HSE Bypass.
  * @retval HAL status
  */
__weak HAL_StatusTypeDef HAL_RCC_OscConfig(const RCC_OscInitTypeDef  *RCC_OscInitStruct)
{
 80044c8:	b580      	push	{r7, lr}
 80044ca:	b086      	sub	sp, #24
 80044cc:	af00      	add	r7, sp, #0
 80044ce:	6078      	str	r0, [r7, #4]
  uint32_t tickstart;
  uint32_t pll_config;
  /* Check Null pointer */
  if (RCC_OscInitStruct == NULL)
 80044d0:	687b      	ldr	r3, [r7, #4]
 80044d2:	2b00      	cmp	r3, #0
 80044d4:	d101      	bne.n	80044da <HAL_RCC_OscConfig+0x12>
  {
    return HAL_ERROR;
 80044d6:	2301      	movs	r3, #1
 80044d8:	e267      	b.n	80049aa <HAL_RCC_OscConfig+0x4e2>
  }

  /* Check the parameters */
  assert_param(IS_RCC_OSCILLATORTYPE(RCC_OscInitStruct->OscillatorType));
  /*------------------------------- HSE Configuration ------------------------*/
  if (((RCC_OscInitStruct->OscillatorType) & RCC_OSCILLATORTYPE_HSE) == RCC_OSCILLATORTYPE_HSE)
 80044da:	687b      	ldr	r3, [r7, #4]
 80044dc:	681b      	ldr	r3, [r3, #0]
 80044de:	f003 0301 	and.w	r3, r3, #1
 80044e2:	2b00      	cmp	r3, #0
 80044e4:	d075      	beq.n	80045d2 <HAL_RCC_OscConfig+0x10a>
  {
    /* Check the parameters */
    assert_param(IS_RCC_HSE(RCC_OscInitStruct->HSEState));
    /* When the HSE is used as system clock or clock source for PLL in these cases HSE will not disabled */
    if ((__HAL_RCC_GET_SYSCLK_SOURCE() == RCC_CFGR_SWS_HSE) || \
 80044e6:	4b88      	ldr	r3, [pc, #544]	@ (8004708 <HAL_RCC_OscConfig+0x240>)
 80044e8:	689b      	ldr	r3, [r3, #8]
 80044ea:	f003 030c 	and.w	r3, r3, #12
 80044ee:	2b04      	cmp	r3, #4
 80044f0:	d00c      	beq.n	800450c <HAL_RCC_OscConfig+0x44>
        ((__HAL_RCC_GET_SYSCLK_SOURCE() == RCC_CFGR_SWS_PLL) && ((RCC->PLLCFGR & RCC_PLLCFGR_PLLSRC) == RCC_PLLCFGR_PLLSRC_HSE)))
 80044f2:	4b85      	ldr	r3, [pc, #532]	@ (8004708 <HAL_RCC_OscConfig+0x240>)
 80044f4:	689b      	ldr	r3, [r3, #8]
 80044f6:	f003 030c 	and.w	r3, r3, #12
    if ((__HAL_RCC_GET_SYSCLK_SOURCE() == RCC_CFGR_SWS_HSE) || \
 80044fa:	2b08      	cmp	r3, #8
 80044fc:	d112      	bne.n	8004524 <HAL_RCC_OscConfig+0x5c>
        ((__HAL_RCC_GET_SYSCLK_SOURCE() == RCC_CFGR_SWS_PLL) && ((RCC->PLLCFGR & RCC_PLLCFGR_PLLSRC) == RCC_PLLCFGR_PLLSRC_HSE)))
 80044fe:	4b82      	ldr	r3, [pc, #520]	@ (8004708 <HAL_RCC_OscConfig+0x240>)
 8004500:	685b      	ldr	r3, [r3, #4]
 8004502:	f403 0380 	and.w	r3, r3, #4194304	@ 0x400000
 8004506:	f5b3 0f80 	cmp.w	r3, #4194304	@ 0x400000
 800450a:	d10b      	bne.n	8004524 <HAL_RCC_OscConfig+0x5c>
    {
      if ((__HAL_RCC_GET_FLAG(RCC_FLAG_HSERDY) != RESET) && (RCC_OscInitStruct->HSEState == RCC_HSE_OFF))
 800450c:	4b7e      	ldr	r3, [pc, #504]	@ (8004708 <HAL_RCC_OscConfig+0x240>)
 800450e:	681b      	ldr	r3, [r3, #0]
 8004510:	f403 3300 	and.w	r3, r3, #131072	@ 0x20000
 8004514:	2b00      	cmp	r3, #0
 8004516:	d05b      	beq.n	80045d0 <HAL_RCC_OscConfig+0x108>
 8004518:	687b      	ldr	r3, [r7, #4]
 800451a:	685b      	ldr	r3, [r3, #4]
 800451c:	2b00      	cmp	r3, #0
 800451e:	d157      	bne.n	80045d0 <HAL_RCC_OscConfig+0x108>
      {
        return HAL_ERROR;
 8004520:	2301      	movs	r3, #1
 8004522:	e242      	b.n	80049aa <HAL_RCC_OscConfig+0x4e2>
      }
    }
    else
    {
      /* Set the new HSE configuration ---------------------------------------*/
      __HAL_RCC_HSE_CONFIG(RCC_OscInitStruct->HSEState);
 8004524:	687b      	ldr	r3, [r7, #4]
 8004526:	685b      	ldr	r3, [r3, #4]
 8004528:	f5b3 3f80 	cmp.w	r3, #65536	@ 0x10000
 800452c:	d106      	bne.n	800453c <HAL_RCC_OscConfig+0x74>
 800452e:	4b76      	ldr	r3, [pc, #472]	@ (8004708 <HAL_RCC_OscConfig+0x240>)
 8004530:	681b      	ldr	r3, [r3, #0]
 8004532:	4a75      	ldr	r2, [pc, #468]	@ (8004708 <HAL_RCC_OscConfig+0x240>)
 8004534:	f443 3380 	orr.w	r3, r3, #65536	@ 0x10000
 8004538:	6013      	str	r3, [r2, #0]
 800453a:	e01d      	b.n	8004578 <HAL_RCC_OscConfig+0xb0>
 800453c:	687b      	ldr	r3, [r7, #4]
 800453e:	685b      	ldr	r3, [r3, #4]
 8004540:	f5b3 2fa0 	cmp.w	r3, #327680	@ 0x50000
 8004544:	d10c      	bne.n	8004560 <HAL_RCC_OscConfig+0x98>
 8004546:	4b70      	ldr	r3, [pc, #448]	@ (8004708 <HAL_RCC_OscConfig+0x240>)
 8004548:	681b      	ldr	r3, [r3, #0]
 800454a:	4a6f      	ldr	r2, [pc, #444]	@ (8004708 <HAL_RCC_OscConfig+0x240>)
 800454c:	f443 2380 	orr.w	r3, r3, #262144	@ 0x40000
 8004550:	6013      	str	r3, [r2, #0]
 8004552:	4b6d      	ldr	r3, [pc, #436]	@ (8004708 <HAL_RCC_OscConfig+0x240>)
 8004554:	681b      	ldr	r3, [r3, #0]
 8004556:	4a6c      	ldr	r2, [pc, #432]	@ (8004708 <HAL_RCC_OscConfig+0x240>)
 8004558:	f443 3380 	orr.w	r3, r3, #65536	@ 0x10000
 800455c:	6013      	str	r3, [r2, #0]
 800455e:	e00b      	b.n	8004578 <HAL_RCC_OscConfig+0xb0>
 8004560:	4b69      	ldr	r3, [pc, #420]	@ (8004708 <HAL_RCC_OscConfig+0x240>)
 8004562:	681b      	ldr	r3, [r3, #0]
 8004564:	4a68      	ldr	r2, [pc, #416]	@ (8004708 <HAL_RCC_OscConfig+0x240>)
 8004566:	f423 3380 	bic.w	r3, r3, #65536	@ 0x10000
 800456a:	6013      	str	r3, [r2, #0]
 800456c:	4b66      	ldr	r3, [pc, #408]	@ (8004708 <HAL_RCC_OscConfig+0x240>)
 800456e:	681b      	ldr	r3, [r3, #0]
 8004570:	4a65      	ldr	r2, [pc, #404]	@ (8004708 <HAL_RCC_OscConfig+0x240>)
 8004572:	f423 2380 	bic.w	r3, r3, #262144	@ 0x40000
 8004576:	6013      	str	r3, [r2, #0]

      /* Check the HSE State */
      if ((RCC_OscInitStruct->HSEState) != RCC_HSE_OFF)
 8004578:	687b      	ldr	r3, [r7, #4]
 800457a:	685b      	ldr	r3, [r3, #4]
 800457c:	2b00      	cmp	r3, #0
 800457e:	d013      	beq.n	80045a8 <HAL_RCC_OscConfig+0xe0>
      {
        /* Get Start Tick */
        tickstart = HAL_GetTick();
 8004580:	f7fe fa10 	bl	80029a4 <HAL_GetTick>
 8004584:	6138      	str	r0, [r7, #16]

        /* Wait till HSE is ready */
        while (__HAL_RCC_GET_FLAG(RCC_FLAG_HSERDY) == RESET)
 8004586:	e008      	b.n	800459a <HAL_RCC_OscConfig+0xd2>
        {
          if ((HAL_GetTick() - tickstart) > HSE_TIMEOUT_VALUE)
 8004588:	f7fe fa0c 	bl	80029a4 <HAL_GetTick>
 800458c:	4602      	mov	r2, r0
 800458e:	693b      	ldr	r3, [r7, #16]
 8004590:	1ad3      	subs	r3, r2, r3
 8004592:	2b64      	cmp	r3, #100	@ 0x64
 8004594:	d901      	bls.n	800459a <HAL_RCC_OscConfig+0xd2>
          {
            return HAL_TIMEOUT;
 8004596:	2303      	movs	r3, #3
 8004598:	e207      	b.n	80049aa <HAL_RCC_OscConfig+0x4e2>
        while (__HAL_RCC_GET_FLAG(RCC_FLAG_HSERDY) == RESET)
 800459a:	4b5b      	ldr	r3, [pc, #364]	@ (8004708 <HAL_RCC_OscConfig+0x240>)
 800459c:	681b      	ldr	r3, [r3, #0]
 800459e:	f403 3300 	and.w	r3, r3, #131072	@ 0x20000
 80045a2:	2b00      	cmp	r3, #0
 80045a4:	d0f0      	beq.n	8004588 <HAL_RCC_OscConfig+0xc0>
 80045a6:	e014      	b.n	80045d2 <HAL_RCC_OscConfig+0x10a>
        }
      }
      else
      {
        /* Get Start Tick */
        tickstart = HAL_GetTick();
 80045a8:	f7fe f9fc 	bl	80029a4 <HAL_GetTick>
 80045ac:	6138      	str	r0, [r7, #16]

        /* Wait till HSE is bypassed or disabled */
        while (__HAL_RCC_GET_FLAG(RCC_FLAG_HSERDY) != RESET)
 80045ae:	e008      	b.n	80045c2 <HAL_RCC_OscConfig+0xfa>
        {
          if ((HAL_GetTick() - tickstart) > HSE_TIMEOUT_VALUE)
 80045b0:	f7fe f9f8 	bl	80029a4 <HAL_GetTick>
 80045b4:	4602      	mov	r2, r0
 80045b6:	693b      	ldr	r3, [r7, #16]
 80045b8:	1ad3      	subs	r3, r2, r3
 80045ba:	2b64      	cmp	r3, #100	@ 0x64
 80045bc:	d901      	bls.n	80045c2 <HAL_RCC_OscConfig+0xfa>
          {
            return HAL_TIMEOUT;
 80045be:	2303      	movs	r3, #3
 80045c0:	e1f3      	b.n	80049aa <HAL_RCC_OscConfig+0x4e2>
        while (__HAL_RCC_GET_FLAG(RCC_FLAG_HSERDY) != RESET)
 80045c2:	4b51      	ldr	r3, [pc, #324]	@ (8004708 <HAL_RCC_OscConfig+0x240>)
 80045c4:	681b      	ldr	r3, [r3, #0]
 80045c6:	f403 3300 	and.w	r3, r3, #131072	@ 0x20000
 80045ca:	2b00      	cmp	r3, #0
 80045cc:	d1f0      	bne.n	80045b0 <HAL_RCC_OscConfig+0xe8>
 80045ce:	e000      	b.n	80045d2 <HAL_RCC_OscConfig+0x10a>
      if ((__HAL_RCC_GET_FLAG(RCC_FLAG_HSERDY) != RESET) && (RCC_OscInitStruct->HSEState == RCC_HSE_OFF))
 80045d0:	bf00      	nop
        }
      }
    }
  }
  /*----------------------------- HSI Configuration --------------------------*/
  if (((RCC_OscInitStruct->OscillatorType) & RCC_OSCILLATORTYPE_HSI) == RCC_OSCILLATORTYPE_HSI)
 80045d2:	687b      	ldr	r3, [r7, #4]
 80045d4:	681b      	ldr	r3, [r3, #0]
 80045d6:	f003 0302 	and.w	r3, r3, #2
 80045da:	2b00      	cmp	r3, #0
 80045dc:	d063      	beq.n	80046a6 <HAL_RCC_OscConfig+0x1de>
    /* Check the parameters */
    assert_param(IS_RCC_HSI(RCC_OscInitStruct->HSIState));
    assert_param(IS_RCC_CALIBRATION_VALUE(RCC_OscInitStruct->HSICalibrationValue));

    /* Check if HSI is used as system clock or as PLL source when PLL is selected as system clock */
    if ((__HAL_RCC_GET_SYSCLK_SOURCE() == RCC_CFGR_SWS_HSI) || \
 80045de:	4b4a      	ldr	r3, [pc, #296]	@ (8004708 <HAL_RCC_OscConfig+0x240>)
 80045e0:	689b      	ldr	r3, [r3, #8]
 80045e2:	f003 030c 	and.w	r3, r3, #12
 80045e6:	2b00      	cmp	r3, #0
 80045e8:	d00b      	beq.n	8004602 <HAL_RCC_OscConfig+0x13a>
        ((__HAL_RCC_GET_SYSCLK_SOURCE() == RCC_CFGR_SWS_PLL) && ((RCC->PLLCFGR & RCC_PLLCFGR_PLLSRC) == RCC_PLLCFGR_PLLSRC_HSI)))
 80045ea:	4b47      	ldr	r3, [pc, #284]	@ (8004708 <HAL_RCC_OscConfig+0x240>)
 80045ec:	689b      	ldr	r3, [r3, #8]
 80045ee:	f003 030c 	and.w	r3, r3, #12
    if ((__HAL_RCC_GET_SYSCLK_SOURCE() == RCC_CFGR_SWS_HSI) || \
 80045f2:	2b08      	cmp	r3, #8
 80045f4:	d11c      	bne.n	8004630 <HAL_RCC_OscConfig+0x168>
        ((__HAL_RCC_GET_SYSCLK_SOURCE() == RCC_CFGR_SWS_PLL) && ((RCC->PLLCFGR & RCC_PLLCFGR_PLLSRC) == RCC_PLLCFGR_PLLSRC_HSI)))
 80045f6:	4b44      	ldr	r3, [pc, #272]	@ (8004708 <HAL_RCC_OscConfig+0x240>)
 80045f8:	685b      	ldr	r3, [r3, #4]
 80045fa:	f403 0380 	and.w	r3, r3, #4194304	@ 0x400000
 80045fe:	2b00      	cmp	r3, #0
 8004600:	d116      	bne.n	8004630 <HAL_RCC_OscConfig+0x168>
    {
      /* When HSI is used as system clock it will not disabled */
      if ((__HAL_RCC_GET_FLAG(RCC_FLAG_HSIRDY) != RESET) && (RCC_OscInitStruct->HSIState != RCC_HSI_ON))
 8004602:	4b41      	ldr	r3, [pc, #260]	@ (8004708 <HAL_RCC_OscConfig+0x240>)
 8004604:	681b      	ldr	r3, [r3, #0]
 8004606:	f003 0302 	and.w	r3, r3, #2
 800460a:	2b00      	cmp	r3, #0
 800460c:	d005      	beq.n	800461a <HAL_RCC_OscConfig+0x152>
 800460e:	687b      	ldr	r3, [r7, #4]
 8004610:	68db      	ldr	r3, [r3, #12]
 8004612:	2b01      	cmp	r3, #1
 8004614:	d001      	beq.n	800461a <HAL_RCC_OscConfig+0x152>
      {
        return HAL_ERROR;
 8004616:	2301      	movs	r3, #1
 8004618:	e1c7      	b.n	80049aa <HAL_RCC_OscConfig+0x4e2>
      }
      /* Otherwise, just the calibration is allowed */
      else
      {
        /* Adjusts the Internal High Speed oscillator (HSI) calibration value.*/
        __HAL_RCC_HSI_CALIBRATIONVALUE_ADJUST(RCC_OscInitStruct->HSICalibrationValue);
 800461a:	4b3b      	ldr	r3, [pc, #236]	@ (8004708 <HAL_RCC_OscConfig+0x240>)
 800461c:	681b      	ldr	r3, [r3, #0]
 800461e:	f023 02f8 	bic.w	r2, r3, #248	@ 0xf8
 8004622:	687b      	ldr	r3, [r7, #4]
 8004624:	691b      	ldr	r3, [r3, #16]
 8004626:	00db      	lsls	r3, r3, #3
 8004628:	4937      	ldr	r1, [pc, #220]	@ (8004708 <HAL_RCC_OscConfig+0x240>)
 800462a:	4313      	orrs	r3, r2
 800462c:	600b      	str	r3, [r1, #0]
      if ((__HAL_RCC_GET_FLAG(RCC_FLAG_HSIRDY) != RESET) && (RCC_OscInitStruct->HSIState != RCC_HSI_ON))
 800462e:	e03a      	b.n	80046a6 <HAL_RCC_OscConfig+0x1de>
      }
    }
    else
    {
      /* Check the HSI State */
      if ((RCC_OscInitStruct->HSIState) != RCC_HSI_OFF)
 8004630:	687b      	ldr	r3, [r7, #4]
 8004632:	68db      	ldr	r3, [r3, #12]
 8004634:	2b00      	cmp	r3, #0
 8004636:	d020      	beq.n	800467a <HAL_RCC_OscConfig+0x1b2>
      {
        /* Enable the Internal High Speed oscillator (HSI). */
        __HAL_RCC_HSI_ENABLE();
 8004638:	4b34      	ldr	r3, [pc, #208]	@ (800470c <HAL_RCC_OscConfig+0x244>)
 800463a:	2201      	movs	r2, #1
 800463c:	601a      	str	r2, [r3, #0]

        /* Get Start Tick*/
        tickstart = HAL_GetTick();
 800463e:	f7fe f9b1 	bl	80029a4 <HAL_GetTick>
 8004642:	6138      	str	r0, [r7, #16]

        /* Wait till HSI is ready */
        while (__HAL_RCC_GET_FLAG(RCC_FLAG_HSIRDY) == RESET)
 8004644:	e008      	b.n	8004658 <HAL_RCC_OscConfig+0x190>
        {
          if ((HAL_GetTick() - tickstart) > HSI_TIMEOUT_VALUE)
 8004646:	f7fe f9ad 	bl	80029a4 <HAL_GetTick>
 800464a:	4602      	mov	r2, r0
 800464c:	693b      	ldr	r3, [r7, #16]
 800464e:	1ad3      	subs	r3, r2, r3
 8004650:	2b02      	cmp	r3, #2
 8004652:	d901      	bls.n	8004658 <HAL_RCC_OscConfig+0x190>
          {
            return HAL_TIMEOUT;
 8004654:	2303      	movs	r3, #3
 8004656:	e1a8      	b.n	80049aa <HAL_RCC_OscConfig+0x4e2>
        while (__HAL_RCC_GET_FLAG(RCC_FLAG_HSIRDY) == RESET)
 8004658:	4b2b      	ldr	r3, [pc, #172]	@ (8004708 <HAL_RCC_OscConfig+0x240>)
 800465a:	681b      	ldr	r3, [r3, #0]
 800465c:	f003 0302 	and.w	r3, r3, #2
 8004660:	2b00      	cmp	r3, #0
 8004662:	d0f0      	beq.n	8004646 <HAL_RCC_OscConfig+0x17e>
          }
        }

        /* Adjusts the Internal High Speed oscillator (HSI) calibration value. */
        __HAL_RCC_HSI_CALIBRATIONVALUE_ADJUST(RCC_OscInitStruct->HSICalibrationValue);
 8004664:	4b28      	ldr	r3, [pc, #160]	@ (8004708 <HAL_RCC_OscConfig+0x240>)
 8004666:	681b      	ldr	r3, [r3, #0]
 8004668:	f023 02f8 	bic.w	r2, r3, #248	@ 0xf8
 800466c:	687b      	ldr	r3, [r7, #4]
 800466e:	691b      	ldr	r3, [r3, #16]
 8004670:	00db      	lsls	r3, r3, #3
 8004672:	4925      	ldr	r1, [pc, #148]	@ (8004708 <HAL_RCC_OscConfig+0x240>)
 8004674:	4313      	orrs	r3, r2
 8004676:	600b      	str	r3, [r1, #0]
 8004678:	e015      	b.n	80046a6 <HAL_RCC_OscConfig+0x1de>
      }
      else
      {
        /* Disable the Internal High Speed oscillator (HSI). */
        __HAL_RCC_HSI_DISABLE();
 800467a:	4b24      	ldr	r3, [pc, #144]	@ (800470c <HAL_RCC_OscConfig+0x244>)
 800467c:	2200      	movs	r2, #0
 800467e:	601a      	str	r2, [r3, #0]

        /* Get Start Tick*/
        tickstart = HAL_GetTick();
 8004680:	f7fe f990 	bl	80029a4 <HAL_GetTick>
 8004684:	6138      	str	r0, [r7, #16]

        /* Wait till HSI is ready */
        while (__HAL_RCC_GET_FLAG(RCC_FLAG_HSIRDY) != RESET)
 8004686:	e008      	b.n	800469a <HAL_RCC_OscConfig+0x1d2>
        {
          if ((HAL_GetTick() - tickstart) > HSI_TIMEOUT_VALUE)
 8004688:	f7fe f98c 	bl	80029a4 <HAL_GetTick>
 800468c:	4602      	mov	r2, r0
 800468e:	693b      	ldr	r3, [r7, #16]
 8004690:	1ad3      	subs	r3, r2, r3
 8004692:	2b02      	cmp	r3, #2
 8004694:	d901      	bls.n	800469a <HAL_RCC_OscConfig+0x1d2>
          {
            return HAL_TIMEOUT;
 8004696:	2303      	movs	r3, #3
 8004698:	e187      	b.n	80049aa <HAL_RCC_OscConfig+0x4e2>
        while (__HAL_RCC_GET_FLAG(RCC_FLAG_HSIRDY) != RESET)
 800469a:	4b1b      	ldr	r3, [pc, #108]	@ (8004708 <HAL_RCC_OscConfig+0x240>)
 800469c:	681b      	ldr	r3, [r3, #0]
 800469e:	f003 0302 	and.w	r3, r3, #2
 80046a2:	2b00      	cmp	r3, #0
 80046a4:	d1f0      	bne.n	8004688 <HAL_RCC_OscConfig+0x1c0>
        }
      }
    }
  }
  /*------------------------------ LSI Configuration -------------------------*/
  if (((RCC_OscInitStruct->OscillatorType) & RCC_OSCILLATORTYPE_LSI) == RCC_OSCILLATORTYPE_LSI)
 80046a6:	687b      	ldr	r3, [r7, #4]
 80046a8:	681b      	ldr	r3, [r3, #0]
 80046aa:	f003 0308 	and.w	r3, r3, #8
 80046ae:	2b00      	cmp	r3, #0
 80046b0:	d036      	beq.n	8004720 <HAL_RCC_OscConfig+0x258>
  {
    /* Check the parameters */
    assert_param(IS_RCC_LSI(RCC_OscInitStruct->LSIState));

    /* Check the LSI State */
    if ((RCC_OscInitStruct->LSIState) != RCC_LSI_OFF)
 80046b2:	687b      	ldr	r3, [r7, #4]
 80046b4:	695b      	ldr	r3, [r3, #20]
 80046b6:	2b00      	cmp	r3, #0
 80046b8:	d016      	beq.n	80046e8 <HAL_RCC_OscConfig+0x220>
    {
      /* Enable the Internal Low Speed oscillator (LSI). */
      __HAL_RCC_LSI_ENABLE();
 80046ba:	4b15      	ldr	r3, [pc, #84]	@ (8004710 <HAL_RCC_OscConfig+0x248>)
 80046bc:	2201      	movs	r2, #1
 80046be:	601a      	str	r2, [r3, #0]

      /* Get Start Tick*/
      tickstart = HAL_GetTick();
 80046c0:	f7fe f970 	bl	80029a4 <HAL_GetTick>
 80046c4:	6138      	str	r0, [r7, #16]

      /* Wait till LSI is ready */
      while (__HAL_RCC_GET_FLAG(RCC_FLAG_LSIRDY) == RESET)
 80046c6:	e008      	b.n	80046da <HAL_RCC_OscConfig+0x212>
      {
        if ((HAL_GetTick() - tickstart) > LSI_TIMEOUT_VALUE)
 80046c8:	f7fe f96c 	bl	80029a4 <HAL_GetTick>
 80046cc:	4602      	mov	r2, r0
 80046ce:	693b      	ldr	r3, [r7, #16]
 80046d0:	1ad3      	subs	r3, r2, r3
 80046d2:	2b02      	cmp	r3, #2
 80046d4:	d901      	bls.n	80046da <HAL_RCC_OscConfig+0x212>
        {
          return HAL_TIMEOUT;
 80046d6:	2303      	movs	r3, #3
 80046d8:	e167      	b.n	80049aa <HAL_RCC_OscConfig+0x4e2>
      while (__HAL_RCC_GET_FLAG(RCC_FLAG_LSIRDY) == RESET)
 80046da:	4b0b      	ldr	r3, [pc, #44]	@ (8004708 <HAL_RCC_OscConfig+0x240>)
 80046dc:	6f5b      	ldr	r3, [r3, #116]	@ 0x74
 80046de:	f003 0302 	and.w	r3, r3, #2
 80046e2:	2b00      	cmp	r3, #0
 80046e4:	d0f0      	beq.n	80046c8 <HAL_RCC_OscConfig+0x200>
 80046e6:	e01b      	b.n	8004720 <HAL_RCC_OscConfig+0x258>
      }
    }
    else
    {
      /* Disable the Internal Low Speed oscillator (LSI). */
      __HAL_RCC_LSI_DISABLE();
 80046e8:	4b09      	ldr	r3, [pc, #36]	@ (8004710 <HAL_RCC_OscConfig+0x248>)
 80046ea:	2200      	movs	r2, #0
 80046ec:	601a      	str	r2, [r3, #0]

      /* Get Start Tick */
      tickstart = HAL_GetTick();
 80046ee:	f7fe f959 	bl	80029a4 <HAL_GetTick>
 80046f2:	6138      	str	r0, [r7, #16]

      /* Wait till LSI is ready */
      while (__HAL_RCC_GET_FLAG(RCC_FLAG_LSIRDY) != RESET)
 80046f4:	e00e      	b.n	8004714 <HAL_RCC_OscConfig+0x24c>
      {
        if ((HAL_GetTick() - tickstart) > LSI_TIMEOUT_VALUE)
 80046f6:	f7fe f955 	bl	80029a4 <HAL_GetTick>
 80046fa:	4602      	mov	r2, r0
 80046fc:	693b      	ldr	r3, [r7, #16]
 80046fe:	1ad3      	subs	r3, r2, r3
 8004700:	2b02      	cmp	r3, #2
 8004702:	d907      	bls.n	8004714 <HAL_RCC_OscConfig+0x24c>
        {
          return HAL_TIMEOUT;
 8004704:	2303      	movs	r3, #3
 8004706:	e150      	b.n	80049aa <HAL_RCC_OscConfig+0x4e2>
 8004708:	40023800 	.word	0x40023800
 800470c:	42470000 	.word	0x42470000
 8004710:	42470e80 	.word	0x42470e80
      while (__HAL_RCC_GET_FLAG(RCC_FLAG_LSIRDY) != RESET)
 8004714:	4b88      	ldr	r3, [pc, #544]	@ (8004938 <HAL_RCC_OscConfig+0x470>)
 8004716:	6f5b      	ldr	r3, [r3, #116]	@ 0x74
 8004718:	f003 0302 	and.w	r3, r3, #2
 800471c:	2b00      	cmp	r3, #0
 800471e:	d1ea      	bne.n	80046f6 <HAL_RCC_OscConfig+0x22e>
        }
      }
    }
  }
  /*------------------------------ LSE Configuration -------------------------*/
  if (((RCC_OscInitStruct->OscillatorType) & RCC_OSCILLATORTYPE_LSE) == RCC_OSCILLATORTYPE_LSE)
 8004720:	687b      	ldr	r3, [r7, #4]
 8004722:	681b      	ldr	r3, [r3, #0]
 8004724:	f003 0304 	and.w	r3, r3, #4
 8004728:	2b00      	cmp	r3, #0
 800472a:	f000 8097 	beq.w	800485c <HAL_RCC_OscConfig+0x394>
  {
    FlagStatus       pwrclkchanged = RESET;
 800472e:	2300      	movs	r3, #0
 8004730:	75fb      	strb	r3, [r7, #23]
    /* Check the parameters */
    assert_param(IS_RCC_LSE(RCC_OscInitStruct->LSEState));

    /* Update LSE configuration in Backup Domain control register    */
    /* Requires to enable write access to Backup Domain of necessary */
    if (__HAL_RCC_PWR_IS_CLK_DISABLED())
 8004732:	4b81      	ldr	r3, [pc, #516]	@ (8004938 <HAL_RCC_OscConfig+0x470>)
 8004734:	6c1b      	ldr	r3, [r3, #64]	@ 0x40
 8004736:	f003 5380 	and.w	r3, r3, #268435456	@ 0x10000000
 800473a:	2b00      	cmp	r3, #0
 800473c:	d10f      	bne.n	800475e <HAL_RCC_OscConfig+0x296>
    {
      __HAL_RCC_PWR_CLK_ENABLE();
 800473e:	2300      	movs	r3, #0
 8004740:	60bb      	str	r3, [r7, #8]
 8004742:	4b7d      	ldr	r3, [pc, #500]	@ (8004938 <HAL_RCC_OscConfig+0x470>)
 8004744:	6c1b      	ldr	r3, [r3, #64]	@ 0x40
 8004746:	4a7c      	ldr	r2, [pc, #496]	@ (8004938 <HAL_RCC_OscConfig+0x470>)
 8004748:	f043 5380 	orr.w	r3, r3, #268435456	@ 0x10000000
 800474c:	6413      	str	r3, [r2, #64]	@ 0x40
 800474e:	4b7a      	ldr	r3, [pc, #488]	@ (8004938 <HAL_RCC_OscConfig+0x470>)
 8004750:	6c1b      	ldr	r3, [r3, #64]	@ 0x40
 8004752:	f003 5380 	and.w	r3, r3, #268435456	@ 0x10000000
 8004756:	60bb      	str	r3, [r7, #8]
 8004758:	68bb      	ldr	r3, [r7, #8]
      pwrclkchanged = SET;
 800475a:	2301      	movs	r3, #1
 800475c:	75fb      	strb	r3, [r7, #23]
    }

    if (HAL_IS_BIT_CLR(PWR->CR, PWR_CR_DBP))
 800475e:	4b77      	ldr	r3, [pc, #476]	@ (800493c <HAL_RCC_OscConfig+0x474>)
 8004760:	681b      	ldr	r3, [r3, #0]
 8004762:	f403 7380 	and.w	r3, r3, #256	@ 0x100
 8004766:	2b00      	cmp	r3, #0
 8004768:	d118      	bne.n	800479c <HAL_RCC_OscConfig+0x2d4>
    {
      /* Enable write access to Backup domain */
      SET_BIT(PWR->CR, PWR_CR_DBP);
 800476a:	4b74      	ldr	r3, [pc, #464]	@ (800493c <HAL_RCC_OscConfig+0x474>)
 800476c:	681b      	ldr	r3, [r3, #0]
 800476e:	4a73      	ldr	r2, [pc, #460]	@ (800493c <HAL_RCC_OscConfig+0x474>)
 8004770:	f443 7380 	orr.w	r3, r3, #256	@ 0x100
 8004774:	6013      	str	r3, [r2, #0]

      /* Wait for Backup domain Write protection disable */
      tickstart = HAL_GetTick();
 8004776:	f7fe f915 	bl	80029a4 <HAL_GetTick>
 800477a:	6138      	str	r0, [r7, #16]

      while (HAL_IS_BIT_CLR(PWR->CR, PWR_CR_DBP))
 800477c:	e008      	b.n	8004790 <HAL_RCC_OscConfig+0x2c8>
      {
        if ((HAL_GetTick() - tickstart) > RCC_DBP_TIMEOUT_VALUE)
 800477e:	f7fe f911 	bl	80029a4 <HAL_GetTick>
 8004782:	4602      	mov	r2, r0
 8004784:	693b      	ldr	r3, [r7, #16]
 8004786:	1ad3      	subs	r3, r2, r3
 8004788:	2b02      	cmp	r3, #2
 800478a:	d901      	bls.n	8004790 <HAL_RCC_OscConfig+0x2c8>
        {
          return HAL_TIMEOUT;
 800478c:	2303      	movs	r3, #3
 800478e:	e10c      	b.n	80049aa <HAL_RCC_OscConfig+0x4e2>
      while (HAL_IS_BIT_CLR(PWR->CR, PWR_CR_DBP))
 8004790:	4b6a      	ldr	r3, [pc, #424]	@ (800493c <HAL_RCC_OscConfig+0x474>)
 8004792:	681b      	ldr	r3, [r3, #0]
 8004794:	f403 7380 	and.w	r3, r3, #256	@ 0x100
 8004798:	2b00      	cmp	r3, #0
 800479a:	d0f0      	beq.n	800477e <HAL_RCC_OscConfig+0x2b6>
        }
      }
    }

    /* Set the new LSE configuration -----------------------------------------*/
    __HAL_RCC_LSE_CONFIG(RCC_OscInitStruct->LSEState);
 800479c:	687b      	ldr	r3, [r7, #4]
 800479e:	689b      	ldr	r3, [r3, #8]
 80047a0:	2b01      	cmp	r3, #1
 80047a2:	d106      	bne.n	80047b2 <HAL_RCC_OscConfig+0x2ea>
 80047a4:	4b64      	ldr	r3, [pc, #400]	@ (8004938 <HAL_RCC_OscConfig+0x470>)
 80047a6:	6f1b      	ldr	r3, [r3, #112]	@ 0x70
 80047a8:	4a63      	ldr	r2, [pc, #396]	@ (8004938 <HAL_RCC_OscConfig+0x470>)
 80047aa:	f043 0301 	orr.w	r3, r3, #1
 80047ae:	6713      	str	r3, [r2, #112]	@ 0x70
 80047b0:	e01c      	b.n	80047ec <HAL_RCC_OscConfig+0x324>
 80047b2:	687b      	ldr	r3, [r7, #4]
 80047b4:	689b      	ldr	r3, [r3, #8]
 80047b6:	2b05      	cmp	r3, #5
 80047b8:	d10c      	bne.n	80047d4 <HAL_RCC_OscConfig+0x30c>
 80047ba:	4b5f      	ldr	r3, [pc, #380]	@ (8004938 <HAL_RCC_OscConfig+0x470>)
 80047bc:	6f1b      	ldr	r3, [r3, #112]	@ 0x70
 80047be:	4a5e      	ldr	r2, [pc, #376]	@ (8004938 <HAL_RCC_OscConfig+0x470>)
 80047c0:	f043 0304 	orr.w	r3, r3, #4
 80047c4:	6713      	str	r3, [r2, #112]	@ 0x70
 80047c6:	4b5c      	ldr	r3, [pc, #368]	@ (8004938 <HAL_RCC_OscConfig+0x470>)
 80047c8:	6f1b      	ldr	r3, [r3, #112]	@ 0x70
 80047ca:	4a5b      	ldr	r2, [pc, #364]	@ (8004938 <HAL_RCC_OscConfig+0x470>)
 80047cc:	f043 0301 	orr.w	r3, r3, #1
 80047d0:	6713      	str	r3, [r2, #112]	@ 0x70
 80047d2:	e00b      	b.n	80047ec <HAL_RCC_OscConfig+0x324>
 80047d4:	4b58      	ldr	r3, [pc, #352]	@ (8004938 <HAL_RCC_OscConfig+0x470>)
 80047d6:	6f1b      	ldr	r3, [r3, #112]	@ 0x70
 80047d8:	4a57      	ldr	r2, [pc, #348]	@ (8004938 <HAL_RCC_OscConfig+0x470>)
 80047da:	f023 0301 	bic.w	r3, r3, #1
 80047de:	6713      	str	r3, [r2, #112]	@ 0x70
 80047e0:	4b55      	ldr	r3, [pc, #340]	@ (8004938 <HAL_RCC_OscConfig+0x470>)
 80047e2:	6f1b      	ldr	r3, [r3, #112]	@ 0x70
 80047e4:	4a54      	ldr	r2, [pc, #336]	@ (8004938 <HAL_RCC_OscConfig+0x470>)
 80047e6:	f023 0304 	bic.w	r3, r3, #4
 80047ea:	6713      	str	r3, [r2, #112]	@ 0x70
    /* Check the LSE State */
    if ((RCC_OscInitStruct->LSEState) != RCC_LSE_OFF)
 80047ec:	687b      	ldr	r3, [r7, #4]
 80047ee:	689b      	ldr	r3, [r3, #8]
 80047f0:	2b00      	cmp	r3, #0
 80047f2:	d015      	beq.n	8004820 <HAL_RCC_OscConfig+0x358>
    {
      /* Get Start Tick*/
      tickstart = HAL_GetTick();
 80047f4:	f7fe f8d6 	bl	80029a4 <HAL_GetTick>
 80047f8:	6138      	str	r0, [r7, #16]

      /* Wait till LSE is ready */
      while (__HAL_RCC_GET_FLAG(RCC_FLAG_LSERDY) == RESET)
 80047fa:	e00a      	b.n	8004812 <HAL_RCC_OscConfig+0x34a>
      {
        if ((HAL_GetTick() - tickstart) > RCC_LSE_TIMEOUT_VALUE)
 80047fc:	f7fe f8d2 	bl	80029a4 <HAL_GetTick>
 8004800:	4602      	mov	r2, r0
 8004802:	693b      	ldr	r3, [r7, #16]
 8004804:	1ad3      	subs	r3, r2, r3
 8004806:	f241 3288 	movw	r2, #5000	@ 0x1388
 800480a:	4293      	cmp	r3, r2
 800480c:	d901      	bls.n	8004812 <HAL_RCC_OscConfig+0x34a>
        {
          return HAL_TIMEOUT;
 800480e:	2303      	movs	r3, #3
 8004810:	e0cb      	b.n	80049aa <HAL_RCC_OscConfig+0x4e2>
      while (__HAL_RCC_GET_FLAG(RCC_FLAG_LSERDY) == RESET)
 8004812:	4b49      	ldr	r3, [pc, #292]	@ (8004938 <HAL_RCC_OscConfig+0x470>)
 8004814:	6f1b      	ldr	r3, [r3, #112]	@ 0x70
 8004816:	f003 0302 	and.w	r3, r3, #2
 800481a:	2b00      	cmp	r3, #0
 800481c:	d0ee      	beq.n	80047fc <HAL_RCC_OscConfig+0x334>
 800481e:	e014      	b.n	800484a <HAL_RCC_OscConfig+0x382>
      }
    }
    else
    {
      /* Get Start Tick */
      tickstart = HAL_GetTick();
 8004820:	f7fe f8c0 	bl	80029a4 <HAL_GetTick>
 8004824:	6138      	str	r0, [r7, #16]

      /* Wait till LSE is ready */
      while (__HAL_RCC_GET_FLAG(RCC_FLAG_LSERDY) != RESET)
 8004826:	e00a      	b.n	800483e <HAL_RCC_OscConfig+0x376>
      {
        if ((HAL_GetTick() - tickstart) > RCC_LSE_TIMEOUT_VALUE)
 8004828:	f7fe f8bc 	bl	80029a4 <HAL_GetTick>
 800482c:	4602      	mov	r2, r0
 800482e:	693b      	ldr	r3, [r7, #16]
 8004830:	1ad3      	subs	r3, r2, r3
 8004832:	f241 3288 	movw	r2, #5000	@ 0x1388
 8004836:	4293      	cmp	r3, r2
 8004838:	d901      	bls.n	800483e <HAL_RCC_OscConfig+0x376>
        {
          return HAL_TIMEOUT;
 800483a:	2303      	movs	r3, #3
 800483c:	e0b5      	b.n	80049aa <HAL_RCC_OscConfig+0x4e2>
      while (__HAL_RCC_GET_FLAG(RCC_FLAG_LSERDY) != RESET)
 800483e:	4b3e      	ldr	r3, [pc, #248]	@ (8004938 <HAL_RCC_OscConfig+0x470>)
 8004840:	6f1b      	ldr	r3, [r3, #112]	@ 0x70
 8004842:	f003 0302 	and.w	r3, r3, #2
 8004846:	2b00      	cmp	r3, #0
 8004848:	d1ee      	bne.n	8004828 <HAL_RCC_OscConfig+0x360>
        }
      }
    }

    /* Restore clock configuration if changed */
    if (pwrclkchanged == SET)
 800484a:	7dfb      	ldrb	r3, [r7, #23]
 800484c:	2b01      	cmp	r3, #1
 800484e:	d105      	bne.n	800485c <HAL_RCC_OscConfig+0x394>
    {
      __HAL_RCC_PWR_CLK_DISABLE();
 8004850:	4b39      	ldr	r3, [pc, #228]	@ (8004938 <HAL_RCC_OscConfig+0x470>)
 8004852:	6c1b      	ldr	r3, [r3, #64]	@ 0x40
 8004854:	4a38      	ldr	r2, [pc, #224]	@ (8004938 <HAL_RCC_OscConfig+0x470>)
 8004856:	f023 5380 	bic.w	r3, r3, #268435456	@ 0x10000000
 800485a:	6413      	str	r3, [r2, #64]	@ 0x40
    }
  }
  /*-------------------------------- PLL Configuration -----------------------*/
  /* Check the parameters */
  assert_param(IS_RCC_PLL(RCC_OscInitStruct->PLL.PLLState));
  if ((RCC_OscInitStruct->PLL.PLLState) != RCC_PLL_NONE)
 800485c:	687b      	ldr	r3, [r7, #4]
 800485e:	699b      	ldr	r3, [r3, #24]
 8004860:	2b00      	cmp	r3, #0
 8004862:	f000 80a1 	beq.w	80049a8 <HAL_RCC_OscConfig+0x4e0>
  {
    /* Check if the PLL is used as system clock or not */
    if (__HAL_RCC_GET_SYSCLK_SOURCE() != RCC_CFGR_SWS_PLL)
 8004866:	4b34      	ldr	r3, [pc, #208]	@ (8004938 <HAL_RCC_OscConfig+0x470>)
 8004868:	689b      	ldr	r3, [r3, #8]
 800486a:	f003 030c 	and.w	r3, r3, #12
 800486e:	2b08      	cmp	r3, #8
 8004870:	d05c      	beq.n	800492c <HAL_RCC_OscConfig+0x464>
    {
      if ((RCC_OscInitStruct->PLL.PLLState) == RCC_PLL_ON)
 8004872:	687b      	ldr	r3, [r7, #4]
 8004874:	699b      	ldr	r3, [r3, #24]
 8004876:	2b02      	cmp	r3, #2
 8004878:	d141      	bne.n	80048fe <HAL_RCC_OscConfig+0x436>
        assert_param(IS_RCC_PLLN_VALUE(RCC_OscInitStruct->PLL.PLLN));
        assert_param(IS_RCC_PLLP_VALUE(RCC_OscInitStruct->PLL.PLLP));
        assert_param(IS_RCC_PLLQ_VALUE(RCC_OscInitStruct->PLL.PLLQ));

        /* Disable the main PLL. */
        __HAL_RCC_PLL_DISABLE();
 800487a:	4b31      	ldr	r3, [pc, #196]	@ (8004940 <HAL_RCC_OscConfig+0x478>)
 800487c:	2200      	movs	r2, #0
 800487e:	601a      	str	r2, [r3, #0]

        /* Get Start Tick */
        tickstart = HAL_GetTick();
 8004880:	f7fe f890 	bl	80029a4 <HAL_GetTick>
 8004884:	6138      	str	r0, [r7, #16]

        /* Wait till PLL is disabled */
        while (__HAL_RCC_GET_FLAG(RCC_FLAG_PLLRDY) != RESET)
 8004886:	e008      	b.n	800489a <HAL_RCC_OscConfig+0x3d2>
        {
          if ((HAL_GetTick() - tickstart) > PLL_TIMEOUT_VALUE)
 8004888:	f7fe f88c 	bl	80029a4 <HAL_GetTick>
 800488c:	4602      	mov	r2, r0
 800488e:	693b      	ldr	r3, [r7, #16]
 8004890:	1ad3      	subs	r3, r2, r3
 8004892:	2b02      	cmp	r3, #2
 8004894:	d901      	bls.n	800489a <HAL_RCC_OscConfig+0x3d2>
          {
            return HAL_TIMEOUT;
 8004896:	2303      	movs	r3, #3
 8004898:	e087      	b.n	80049aa <HAL_RCC_OscConfig+0x4e2>
        while (__HAL_RCC_GET_FLAG(RCC_FLAG_PLLRDY) != RESET)
 800489a:	4b27      	ldr	r3, [pc, #156]	@ (8004938 <HAL_RCC_OscConfig+0x470>)
 800489c:	681b      	ldr	r3, [r3, #0]
 800489e:	f003 7300 	and.w	r3, r3, #33554432	@ 0x2000000
 80048a2:	2b00      	cmp	r3, #0
 80048a4:	d1f0      	bne.n	8004888 <HAL_RCC_OscConfig+0x3c0>
          }
        }

        /* Configure the main PLL clock source, multiplication and division factors. */
        WRITE_REG(RCC->PLLCFGR, (RCC_OscInitStruct->PLL.PLLSource                                            | \
 80048a6:	687b      	ldr	r3, [r7, #4]
 80048a8:	69da      	ldr	r2, [r3, #28]
 80048aa:	687b      	ldr	r3, [r7, #4]
 80048ac:	6a1b      	ldr	r3, [r3, #32]
 80048ae:	431a      	orrs	r2, r3
 80048b0:	687b      	ldr	r3, [r7, #4]
 80048b2:	6a5b      	ldr	r3, [r3, #36]	@ 0x24
 80048b4:	019b      	lsls	r3, r3, #6
 80048b6:	431a      	orrs	r2, r3
 80048b8:	687b      	ldr	r3, [r7, #4]
 80048ba:	6a9b      	ldr	r3, [r3, #40]	@ 0x28
 80048bc:	085b      	lsrs	r3, r3, #1
 80048be:	3b01      	subs	r3, #1
 80048c0:	041b      	lsls	r3, r3, #16
 80048c2:	431a      	orrs	r2, r3
 80048c4:	687b      	ldr	r3, [r7, #4]
 80048c6:	6adb      	ldr	r3, [r3, #44]	@ 0x2c
 80048c8:	061b      	lsls	r3, r3, #24
 80048ca:	491b      	ldr	r1, [pc, #108]	@ (8004938 <HAL_RCC_OscConfig+0x470>)
 80048cc:	4313      	orrs	r3, r2
 80048ce:	604b      	str	r3, [r1, #4]
                                 RCC_OscInitStruct->PLL.PLLM                                                 | \
                                 (RCC_OscInitStruct->PLL.PLLN << RCC_PLLCFGR_PLLN_Pos)             | \
                                 (((RCC_OscInitStruct->PLL.PLLP >> 1U) - 1U) << RCC_PLLCFGR_PLLP_Pos) | \
                                 (RCC_OscInitStruct->PLL.PLLQ << RCC_PLLCFGR_PLLQ_Pos)));
        /* Enable the main PLL. */
        __HAL_RCC_PLL_ENABLE();
 80048d0:	4b1b      	ldr	r3, [pc, #108]	@ (8004940 <HAL_RCC_OscConfig+0x478>)
 80048d2:	2201      	movs	r2, #1
 80048d4:	601a      	str	r2, [r3, #0]

        /* Get Start Tick */
        tickstart = HAL_GetTick();
 80048d6:	f7fe f865 	bl	80029a4 <HAL_GetTick>
 80048da:	6138      	str	r0, [r7, #16]

        /* Wait till PLL is ready */
        while (__HAL_RCC_GET_FLAG(RCC_FLAG_PLLRDY) == RESET)
 80048dc:	e008      	b.n	80048f0 <HAL_RCC_OscConfig+0x428>
        {
          if ((HAL_GetTick() - tickstart) > PLL_TIMEOUT_VALUE)
 80048de:	f7fe f861 	bl	80029a4 <HAL_GetTick>
 80048e2:	4602      	mov	r2, r0
 80048e4:	693b      	ldr	r3, [r7, #16]
 80048e6:	1ad3      	subs	r3, r2, r3
 80048e8:	2b02      	cmp	r3, #2
 80048ea:	d901      	bls.n	80048f0 <HAL_RCC_OscConfig+0x428>
          {
            return HAL_TIMEOUT;
 80048ec:	2303      	movs	r3, #3
 80048ee:	e05c      	b.n	80049aa <HAL_RCC_OscConfig+0x4e2>
        while (__HAL_RCC_GET_FLAG(RCC_FLAG_PLLRDY) == RESET)
 80048f0:	4b11      	ldr	r3, [pc, #68]	@ (8004938 <HAL_RCC_OscConfig+0x470>)
 80048f2:	681b      	ldr	r3, [r3, #0]
 80048f4:	f003 7300 	and.w	r3, r3, #33554432	@ 0x2000000
 80048f8:	2b00      	cmp	r3, #0
 80048fa:	d0f0      	beq.n	80048de <HAL_RCC_OscConfig+0x416>
 80048fc:	e054      	b.n	80049a8 <HAL_RCC_OscConfig+0x4e0>
        }
      }
      else
      {
        /* Disable the main PLL. */
        __HAL_RCC_PLL_DISABLE();
 80048fe:	4b10      	ldr	r3, [pc, #64]	@ (8004940 <HAL_RCC_OscConfig+0x478>)
 8004900:	2200      	movs	r2, #0
 8004902:	601a      	str	r2, [r3, #0]

        /* Get Start Tick */
        tickstart = HAL_GetTick();
 8004904:	f7fe f84e 	bl	80029a4 <HAL_GetTick>
 8004908:	6138      	str	r0, [r7, #16]

        /* Wait till PLL is disabled */
        while (__HAL_RCC_GET_FLAG(RCC_FLAG_PLLRDY) != RESET)
 800490a:	e008      	b.n	800491e <HAL_RCC_OscConfig+0x456>
        {
          if ((HAL_GetTick() - tickstart) > PLL_TIMEOUT_VALUE)
 800490c:	f7fe f84a 	bl	80029a4 <HAL_GetTick>
 8004910:	4602      	mov	r2, r0
 8004912:	693b      	ldr	r3, [r7, #16]
 8004914:	1ad3      	subs	r3, r2, r3
 8004916:	2b02      	cmp	r3, #2
 8004918:	d901      	bls.n	800491e <HAL_RCC_OscConfig+0x456>
          {
            return HAL_TIMEOUT;
 800491a:	2303      	movs	r3, #3
 800491c:	e045      	b.n	80049aa <HAL_RCC_OscConfig+0x4e2>
        while (__HAL_RCC_GET_FLAG(RCC_FLAG_PLLRDY) != RESET)
 800491e:	4b06      	ldr	r3, [pc, #24]	@ (8004938 <HAL_RCC_OscConfig+0x470>)
 8004920:	681b      	ldr	r3, [r3, #0]
 8004922:	f003 7300 	and.w	r3, r3, #33554432	@ 0x2000000
 8004926:	2b00      	cmp	r3, #0
 8004928:	d1f0      	bne.n	800490c <HAL_RCC_OscConfig+0x444>
 800492a:	e03d      	b.n	80049a8 <HAL_RCC_OscConfig+0x4e0>
      }
    }
    else
    {
      /* Check if there is a request to disable the PLL used as System clock source */
      if ((RCC_OscInitStruct->PLL.PLLState) == RCC_PLL_OFF)
 800492c:	687b      	ldr	r3, [r7, #4]
 800492e:	699b      	ldr	r3, [r3, #24]
 8004930:	2b01      	cmp	r3, #1
 8004932:	d107      	bne.n	8004944 <HAL_RCC_OscConfig+0x47c>
      {
        return HAL_ERROR;
 8004934:	2301      	movs	r3, #1
 8004936:	e038      	b.n	80049aa <HAL_RCC_OscConfig+0x4e2>
 8004938:	40023800 	.word	0x40023800
 800493c:	40007000 	.word	0x40007000
 8004940:	42470060 	.word	0x42470060
      }
      else
      {
        /* Do not return HAL_ERROR if request repeats the current configuration */
        pll_config = RCC->PLLCFGR;
 8004944:	4b1b      	ldr	r3, [pc, #108]	@ (80049b4 <HAL_RCC_OscConfig+0x4ec>)
 8004946:	685b      	ldr	r3, [r3, #4]
 8004948:	60fb      	str	r3, [r7, #12]
            (READ_BIT(pll_config, RCC_PLLCFGR_PLLN) != (RCC_OscInitStruct->PLL.PLLN) << RCC_PLLCFGR_PLLN_Pos) ||
            (READ_BIT(pll_config, RCC_PLLCFGR_PLLP) != (((RCC_OscInitStruct->PLL.PLLP >> 1U) - 1U)) << RCC_PLLCFGR_PLLP_Pos) ||
            (READ_BIT(pll_config, RCC_PLLCFGR_PLLQ) != (RCC_OscInitStruct->PLL.PLLQ << RCC_PLLCFGR_PLLQ_Pos)) ||
            (READ_BIT(pll_config, RCC_PLLCFGR_PLLR) != (RCC_OscInitStruct->PLL.PLLR << RCC_PLLCFGR_PLLR_Pos)))
#else
        if (((RCC_OscInitStruct->PLL.PLLState) == RCC_PLL_OFF) ||
 800494a:	687b      	ldr	r3, [r7, #4]
 800494c:	699b      	ldr	r3, [r3, #24]
 800494e:	2b01      	cmp	r3, #1
 8004950:	d028      	beq.n	80049a4 <HAL_RCC_OscConfig+0x4dc>
            (READ_BIT(pll_config, RCC_PLLCFGR_PLLSRC) != RCC_OscInitStruct->PLL.PLLSource) ||
 8004952:	68fb      	ldr	r3, [r7, #12]
 8004954:	f403 0280 	and.w	r2, r3, #4194304	@ 0x400000
 8004958:	687b      	ldr	r3, [r7, #4]
 800495a:	69db      	ldr	r3, [r3, #28]
        if (((RCC_OscInitStruct->PLL.PLLState) == RCC_PLL_OFF) ||
 800495c:	429a      	cmp	r2, r3
 800495e:	d121      	bne.n	80049a4 <HAL_RCC_OscConfig+0x4dc>
            (READ_BIT(pll_config, RCC_PLLCFGR_PLLM) != (RCC_OscInitStruct->PLL.PLLM) << RCC_PLLCFGR_PLLM_Pos) ||
 8004960:	68fb      	ldr	r3, [r7, #12]
 8004962:	f003 023f 	and.w	r2, r3, #63	@ 0x3f
 8004966:	687b      	ldr	r3, [r7, #4]
 8004968:	6a1b      	ldr	r3, [r3, #32]
            (READ_BIT(pll_config, RCC_PLLCFGR_PLLSRC) != RCC_OscInitStruct->PLL.PLLSource) ||
 800496a:	429a      	cmp	r2, r3
 800496c:	d11a      	bne.n	80049a4 <HAL_RCC_OscConfig+0x4dc>
            (READ_BIT(pll_config, RCC_PLLCFGR_PLLN) != (RCC_OscInitStruct->PLL.PLLN) << RCC_PLLCFGR_PLLN_Pos) ||
 800496e:	68fa      	ldr	r2, [r7, #12]
 8004970:	f647 73c0 	movw	r3, #32704	@ 0x7fc0
 8004974:	4013      	ands	r3, r2
 8004976:	687a      	ldr	r2, [r7, #4]
 8004978:	6a52      	ldr	r2, [r2, #36]	@ 0x24
 800497a:	0192      	lsls	r2, r2, #6
            (READ_BIT(pll_config, RCC_PLLCFGR_PLLM) != (RCC_OscInitStruct->PLL.PLLM) << RCC_PLLCFGR_PLLM_Pos) ||
 800497c:	4293      	cmp	r3, r2
 800497e:	d111      	bne.n	80049a4 <HAL_RCC_OscConfig+0x4dc>
            (READ_BIT(pll_config, RCC_PLLCFGR_PLLP) != (((RCC_OscInitStruct->PLL.PLLP >> 1U) - 1U)) << RCC_PLLCFGR_PLLP_Pos) ||
 8004980:	68fb      	ldr	r3, [r7, #12]
 8004982:	f403 3240 	and.w	r2, r3, #196608	@ 0x30000
 8004986:	687b      	ldr	r3, [r7, #4]
 8004988:	6a9b      	ldr	r3, [r3, #40]	@ 0x28
 800498a:	085b      	lsrs	r3, r3, #1
 800498c:	3b01      	subs	r3, #1
 800498e:	041b      	lsls	r3, r3, #16
            (READ_BIT(pll_config, RCC_PLLCFGR_PLLN) != (RCC_OscInitStruct->PLL.PLLN) << RCC_PLLCFGR_PLLN_Pos) ||
 8004990:	429a      	cmp	r2, r3
 8004992:	d107      	bne.n	80049a4 <HAL_RCC_OscConfig+0x4dc>
            (READ_BIT(pll_config, RCC_PLLCFGR_PLLQ) != (RCC_OscInitStruct->PLL.PLLQ << RCC_PLLCFGR_PLLQ_Pos)))
 8004994:	68fb      	ldr	r3, [r7, #12]
 8004996:	f003 6270 	and.w	r2, r3, #251658240	@ 0xf000000
 800499a:	687b      	ldr	r3, [r7, #4]
 800499c:	6adb      	ldr	r3, [r3, #44]	@ 0x2c
 800499e:	061b      	lsls	r3, r3, #24
            (READ_BIT(pll_config, RCC_PLLCFGR_PLLP) != (((RCC_OscInitStruct->PLL.PLLP >> 1U) - 1U)) << RCC_PLLCFGR_PLLP_Pos) ||
 80049a0:	429a      	cmp	r2, r3
 80049a2:	d001      	beq.n	80049a8 <HAL_RCC_OscConfig+0x4e0>
#endif /* RCC_PLLCFGR_PLLR */
        {
          return HAL_ERROR;
 80049a4:	2301      	movs	r3, #1
 80049a6:	e000      	b.n	80049aa <HAL_RCC_OscConfig+0x4e2>
        }
      }
    }
  }
  return HAL_OK;
 80049a8:	2300      	movs	r3, #0
}
 80049aa:	4618      	mov	r0, r3
 80049ac:	3718      	adds	r7, #24
 80049ae:	46bd      	mov	sp, r7
 80049b0:	bd80      	pop	{r7, pc}
 80049b2:	bf00      	nop
 80049b4:	40023800 	.word	0x40023800

080049b8 <HAL_RCC_ClockConfig>:
  *         HPRE[3:0] bits to ensure that HCLK not exceed the maximum allowed frequency
  *         (for more details refer to section above "Initialization/de-initialization functions")
  * @retval None
  */
HAL_StatusTypeDef HAL_RCC_ClockConfig(const RCC_ClkInitTypeDef  *RCC_ClkInitStruct, uint32_t FLatency)
{
 80049b8:	b580      	push	{r7, lr}
 80049ba:	b084      	sub	sp, #16
 80049bc:	af00      	add	r7, sp, #0
 80049be:	6078      	str	r0, [r7, #4]
 80049c0:	6039      	str	r1, [r7, #0]
  uint32_t tickstart;

  /* Check Null pointer */
  if (RCC_ClkInitStruct == NULL)
 80049c2:	687b      	ldr	r3, [r7, #4]
 80049c4:	2b00      	cmp	r3, #0
 80049c6:	d101      	bne.n	80049cc <HAL_RCC_ClockConfig+0x14>
  {
    return HAL_ERROR;
 80049c8:	2301      	movs	r3, #1
 80049ca:	e0cc      	b.n	8004b66 <HAL_RCC_ClockConfig+0x1ae>
  /* To correctly read data from FLASH memory, the number of wait states (LATENCY)
    must be correctly programmed according to the frequency of the CPU clock
    (HCLK) and the supply voltage of the device. */

  /* Increasing the number of wait states because of higher CPU frequency */
  if (FLatency > __HAL_FLASH_GET_LATENCY())
 80049cc:	4b68      	ldr	r3, [pc, #416]	@ (8004b70 <HAL_RCC_ClockConfig+0x1b8>)
 80049ce:	681b      	ldr	r3, [r3, #0]
 80049d0:	f003 030f 	and.w	r3, r3, #15
 80049d4:	683a      	ldr	r2, [r7, #0]
 80049d6:	429a      	cmp	r2, r3
 80049d8:	d90c      	bls.n	80049f4 <HAL_RCC_ClockConfig+0x3c>
  {
    /* Program the new number of wait states to the LATENCY bits in the FLASH_ACR register */
    __HAL_FLASH_SET_LATENCY(FLatency);
 80049da:	4b65      	ldr	r3, [pc, #404]	@ (8004b70 <HAL_RCC_ClockConfig+0x1b8>)
 80049dc:	683a      	ldr	r2, [r7, #0]
 80049de:	b2d2      	uxtb	r2, r2
 80049e0:	701a      	strb	r2, [r3, #0]

    /* Check that the new number of wait states is taken into account to access the Flash
    memory by reading the FLASH_ACR register */
    if (__HAL_FLASH_GET_LATENCY() != FLatency)
 80049e2:	4b63      	ldr	r3, [pc, #396]	@ (8004b70 <HAL_RCC_ClockConfig+0x1b8>)
 80049e4:	681b      	ldr	r3, [r3, #0]
 80049e6:	f003 030f 	and.w	r3, r3, #15
 80049ea:	683a      	ldr	r2, [r7, #0]
 80049ec:	429a      	cmp	r2, r3
 80049ee:	d001      	beq.n	80049f4 <HAL_RCC_ClockConfig+0x3c>
    {
      return HAL_ERROR;
 80049f0:	2301      	movs	r3, #1
 80049f2:	e0b8      	b.n	8004b66 <HAL_RCC_ClockConfig+0x1ae>
    }
  }

  /*-------------------------- HCLK Configuration --------------------------*/
  if (((RCC_ClkInitStruct->ClockType) & RCC_CLOCKTYPE_HCLK) == RCC_CLOCKTYPE_HCLK)
 80049f4:	687b      	ldr	r3, [r7, #4]
 80049f6:	681b      	ldr	r3, [r3, #0]
 80049f8:	f003 0302 	and.w	r3, r3, #2
 80049fc:	2b00      	cmp	r3, #0
 80049fe:	d020      	beq.n	8004a42 <HAL_RCC_ClockConfig+0x8a>
  {
    /* Set the highest APBx dividers in order to ensure that we do not go through
       a non-spec phase whatever we decrease or increase HCLK. */
    if (((RCC_ClkInitStruct->ClockType) & RCC_CLOCKTYPE_PCLK1) == RCC_CLOCKTYPE_PCLK1)
 8004a00:	687b      	ldr	r3, [r7, #4]
 8004a02:	681b      	ldr	r3, [r3, #0]
 8004a04:	f003 0304 	and.w	r3, r3, #4
 8004a08:	2b00      	cmp	r3, #0
 8004a0a:	d005      	beq.n	8004a18 <HAL_RCC_ClockConfig+0x60>
    {
      MODIFY_REG(RCC->CFGR, RCC_CFGR_PPRE1, RCC_HCLK_DIV16);
 8004a0c:	4b59      	ldr	r3, [pc, #356]	@ (8004b74 <HAL_RCC_ClockConfig+0x1bc>)
 8004a0e:	689b      	ldr	r3, [r3, #8]
 8004a10:	4a58      	ldr	r2, [pc, #352]	@ (8004b74 <HAL_RCC_ClockConfig+0x1bc>)
 8004a12:	f443 53e0 	orr.w	r3, r3, #7168	@ 0x1c00
 8004a16:	6093      	str	r3, [r2, #8]
    }

    if (((RCC_ClkInitStruct->ClockType) & RCC_CLOCKTYPE_PCLK2) == RCC_CLOCKTYPE_PCLK2)
 8004a18:	687b      	ldr	r3, [r7, #4]
 8004a1a:	681b      	ldr	r3, [r3, #0]
 8004a1c:	f003 0308 	and.w	r3, r3, #8
 8004a20:	2b00      	cmp	r3, #0
 8004a22:	d005      	beq.n	8004a30 <HAL_RCC_ClockConfig+0x78>
    {
      MODIFY_REG(RCC->CFGR, RCC_CFGR_PPRE2, (RCC_HCLK_DIV16 << 3));
 8004a24:	4b53      	ldr	r3, [pc, #332]	@ (8004b74 <HAL_RCC_ClockConfig+0x1bc>)
 8004a26:	689b      	ldr	r3, [r3, #8]
 8004a28:	4a52      	ldr	r2, [pc, #328]	@ (8004b74 <HAL_RCC_ClockConfig+0x1bc>)
 8004a2a:	f443 4360 	orr.w	r3, r3, #57344	@ 0xe000
 8004a2e:	6093      	str	r3, [r2, #8]
    }

    assert_param(IS_RCC_HCLK(RCC_ClkInitStruct->AHBCLKDivider));
    MODIFY_REG(RCC->CFGR, RCC_CFGR_HPRE, RCC_ClkInitStruct->AHBCLKDivider);
 8004a30:	4b50      	ldr	r3, [pc, #320]	@ (8004b74 <HAL_RCC_ClockConfig+0x1bc>)
 8004a32:	689b      	ldr	r3, [r3, #8]
 8004a34:	f023 02f0 	bic.w	r2, r3, #240	@ 0xf0
 8004a38:	687b      	ldr	r3, [r7, #4]
 8004a3a:	689b      	ldr	r3, [r3, #8]
 8004a3c:	494d      	ldr	r1, [pc, #308]	@ (8004b74 <HAL_RCC_ClockConfig+0x1bc>)
 8004a3e:	4313      	orrs	r3, r2
 8004a40:	608b      	str	r3, [r1, #8]
  }

  /*------------------------- SYSCLK Configuration ---------------------------*/
  if (((RCC_ClkInitStruct->ClockType) & RCC_CLOCKTYPE_SYSCLK) == RCC_CLOCKTYPE_SYSCLK)
 8004a42:	687b      	ldr	r3, [r7, #4]
 8004a44:	681b      	ldr	r3, [r3, #0]
 8004a46:	f003 0301 	and.w	r3, r3, #1
 8004a4a:	2b00      	cmp	r3, #0
 8004a4c:	d044      	beq.n	8004ad8 <HAL_RCC_ClockConfig+0x120>
  {
    assert_param(IS_RCC_SYSCLKSOURCE(RCC_ClkInitStruct->SYSCLKSource));

    /* HSE is selected as System Clock Source */
    if (RCC_ClkInitStruct->SYSCLKSource == RCC_SYSCLKSOURCE_HSE)
 8004a4e:	687b      	ldr	r3, [r7, #4]
 8004a50:	685b      	ldr	r3, [r3, #4]
 8004a52:	2b01      	cmp	r3, #1
 8004a54:	d107      	bne.n	8004a66 <HAL_RCC_ClockConfig+0xae>
    {
      /* Check the HSE ready flag */
      if (__HAL_RCC_GET_FLAG(RCC_FLAG_HSERDY) == RESET)
 8004a56:	4b47      	ldr	r3, [pc, #284]	@ (8004b74 <HAL_RCC_ClockConfig+0x1bc>)
 8004a58:	681b      	ldr	r3, [r3, #0]
 8004a5a:	f403 3300 	and.w	r3, r3, #131072	@ 0x20000
 8004a5e:	2b00      	cmp	r3, #0
 8004a60:	d119      	bne.n	8004a96 <HAL_RCC_ClockConfig+0xde>
      {
        return HAL_ERROR;
 8004a62:	2301      	movs	r3, #1
 8004a64:	e07f      	b.n	8004b66 <HAL_RCC_ClockConfig+0x1ae>
      }
    }
    /* PLL is selected as System Clock Source */
    else if ((RCC_ClkInitStruct->SYSCLKSource == RCC_SYSCLKSOURCE_PLLCLK)   ||
 8004a66:	687b      	ldr	r3, [r7, #4]
 8004a68:	685b      	ldr	r3, [r3, #4]
 8004a6a:	2b02      	cmp	r3, #2
 8004a6c:	d003      	beq.n	8004a76 <HAL_RCC_ClockConfig+0xbe>
             (RCC_ClkInitStruct->SYSCLKSource == RCC_SYSCLKSOURCE_PLLRCLK))
 8004a6e:	687b      	ldr	r3, [r7, #4]
 8004a70:	685b      	ldr	r3, [r3, #4]
    else if ((RCC_ClkInitStruct->SYSCLKSource == RCC_SYSCLKSOURCE_PLLCLK)   ||
 8004a72:	2b03      	cmp	r3, #3
 8004a74:	d107      	bne.n	8004a86 <HAL_RCC_ClockConfig+0xce>
    {
      /* Check the PLL ready flag */
      if (__HAL_RCC_GET_FLAG(RCC_FLAG_PLLRDY) == RESET)
 8004a76:	4b3f      	ldr	r3, [pc, #252]	@ (8004b74 <HAL_RCC_ClockConfig+0x1bc>)
 8004a78:	681b      	ldr	r3, [r3, #0]
 8004a7a:	f003 7300 	and.w	r3, r3, #33554432	@ 0x2000000
 8004a7e:	2b00      	cmp	r3, #0
 8004a80:	d109      	bne.n	8004a96 <HAL_RCC_ClockConfig+0xde>
      {
        return HAL_ERROR;
 8004a82:	2301      	movs	r3, #1
 8004a84:	e06f      	b.n	8004b66 <HAL_RCC_ClockConfig+0x1ae>
    }
    /* HSI is selected as System Clock Source */
    else
    {
      /* Check the HSI ready flag */
      if (__HAL_RCC_GET_FLAG(RCC_FLAG_HSIRDY) == RESET)
 8004a86:	4b3b      	ldr	r3, [pc, #236]	@ (8004b74 <HAL_RCC_ClockConfig+0x1bc>)
 8004a88:	681b      	ldr	r3, [r3, #0]
 8004a8a:	f003 0302 	and.w	r3, r3, #2
 8004a8e:	2b00      	cmp	r3, #0
 8004a90:	d101      	bne.n	8004a96 <HAL_RCC_ClockConfig+0xde>
      {
        return HAL_ERROR;
 8004a92:	2301      	movs	r3, #1
 8004a94:	e067      	b.n	8004b66 <HAL_RCC_ClockConfig+0x1ae>
      }
    }

    __HAL_RCC_SYSCLK_CONFIG(RCC_ClkInitStruct->SYSCLKSource);
 8004a96:	4b37      	ldr	r3, [pc, #220]	@ (8004b74 <HAL_RCC_ClockConfig+0x1bc>)
 8004a98:	689b      	ldr	r3, [r3, #8]
 8004a9a:	f023 0203 	bic.w	r2, r3, #3
 8004a9e:	687b      	ldr	r3, [r7, #4]
 8004aa0:	685b      	ldr	r3, [r3, #4]
 8004aa2:	4934      	ldr	r1, [pc, #208]	@ (8004b74 <HAL_RCC_ClockConfig+0x1bc>)
 8004aa4:	4313      	orrs	r3, r2
 8004aa6:	608b      	str	r3, [r1, #8]

    /* Get Start Tick */
    tickstart = HAL_GetTick();
 8004aa8:	f7fd ff7c 	bl	80029a4 <HAL_GetTick>
 8004aac:	60f8      	str	r0, [r7, #12]

    while (__HAL_RCC_GET_SYSCLK_SOURCE() != (RCC_ClkInitStruct->SYSCLKSource << RCC_CFGR_SWS_Pos))
 8004aae:	e00a      	b.n	8004ac6 <HAL_RCC_ClockConfig+0x10e>
    {
      if ((HAL_GetTick() - tickstart) > CLOCKSWITCH_TIMEOUT_VALUE)
 8004ab0:	f7fd ff78 	bl	80029a4 <HAL_GetTick>
 8004ab4:	4602      	mov	r2, r0
 8004ab6:	68fb      	ldr	r3, [r7, #12]
 8004ab8:	1ad3      	subs	r3, r2, r3
 8004aba:	f241 3288 	movw	r2, #5000	@ 0x1388
 8004abe:	4293      	cmp	r3, r2
 8004ac0:	d901      	bls.n	8004ac6 <HAL_RCC_ClockConfig+0x10e>
      {
        return HAL_TIMEOUT;
 8004ac2:	2303      	movs	r3, #3
 8004ac4:	e04f      	b.n	8004b66 <HAL_RCC_ClockConfig+0x1ae>
    while (__HAL_RCC_GET_SYSCLK_SOURCE() != (RCC_ClkInitStruct->SYSCLKSource << RCC_CFGR_SWS_Pos))
 8004ac6:	4b2b      	ldr	r3, [pc, #172]	@ (8004b74 <HAL_RCC_ClockConfig+0x1bc>)
 8004ac8:	689b      	ldr	r3, [r3, #8]
 8004aca:	f003 020c 	and.w	r2, r3, #12
 8004ace:	687b      	ldr	r3, [r7, #4]
 8004ad0:	685b      	ldr	r3, [r3, #4]
 8004ad2:	009b      	lsls	r3, r3, #2
 8004ad4:	429a      	cmp	r2, r3
 8004ad6:	d1eb      	bne.n	8004ab0 <HAL_RCC_ClockConfig+0xf8>
      }
    }
  }

  /* Decreasing the number of wait states because of lower CPU frequency */
  if (FLatency < __HAL_FLASH_GET_LATENCY())
 8004ad8:	4b25      	ldr	r3, [pc, #148]	@ (8004b70 <HAL_RCC_ClockConfig+0x1b8>)
 8004ada:	681b      	ldr	r3, [r3, #0]
 8004adc:	f003 030f 	and.w	r3, r3, #15
 8004ae0:	683a      	ldr	r2, [r7, #0]
 8004ae2:	429a      	cmp	r2, r3
 8004ae4:	d20c      	bcs.n	8004b00 <HAL_RCC_ClockConfig+0x148>
  {
    /* Program the new number of wait states to the LATENCY bits in the FLASH_ACR register */
    __HAL_FLASH_SET_LATENCY(FLatency);
 8004ae6:	4b22      	ldr	r3, [pc, #136]	@ (8004b70 <HAL_RCC_ClockConfig+0x1b8>)
 8004ae8:	683a      	ldr	r2, [r7, #0]
 8004aea:	b2d2      	uxtb	r2, r2
 8004aec:	701a      	strb	r2, [r3, #0]

    /* Check that the new number of wait states is taken into account to access the Flash
    memory by reading the FLASH_ACR register */
    if (__HAL_FLASH_GET_LATENCY() != FLatency)
 8004aee:	4b20      	ldr	r3, [pc, #128]	@ (8004b70 <HAL_RCC_ClockConfig+0x1b8>)
 8004af0:	681b      	ldr	r3, [r3, #0]
 8004af2:	f003 030f 	and.w	r3, r3, #15
 8004af6:	683a      	ldr	r2, [r7, #0]
 8004af8:	429a      	cmp	r2, r3
 8004afa:	d001      	beq.n	8004b00 <HAL_RCC_ClockConfig+0x148>
    {
      return HAL_ERROR;
 8004afc:	2301      	movs	r3, #1
 8004afe:	e032      	b.n	8004b66 <HAL_RCC_ClockConfig+0x1ae>
    }
  }

  /*-------------------------- PCLK1 Configuration ---------------------------*/
  if (((RCC_ClkInitStruct->ClockType) & RCC_CLOCKTYPE_PCLK1) == RCC_CLOCKTYPE_PCLK1)
 8004b00:	687b      	ldr	r3, [r7, #4]
 8004b02:	681b      	ldr	r3, [r3, #0]
 8004b04:	f003 0304 	and.w	r3, r3, #4
 8004b08:	2b00      	cmp	r3, #0
 8004b0a:	d008      	beq.n	8004b1e <HAL_RCC_ClockConfig+0x166>
  {
    assert_param(IS_RCC_PCLK(RCC_ClkInitStruct->APB1CLKDivider));
    MODIFY_REG(RCC->CFGR, RCC_CFGR_PPRE1, RCC_ClkInitStruct->APB1CLKDivider);
 8004b0c:	4b19      	ldr	r3, [pc, #100]	@ (8004b74 <HAL_RCC_ClockConfig+0x1bc>)
 8004b0e:	689b      	ldr	r3, [r3, #8]
 8004b10:	f423 52e0 	bic.w	r2, r3, #7168	@ 0x1c00
 8004b14:	687b      	ldr	r3, [r7, #4]
 8004b16:	68db      	ldr	r3, [r3, #12]
 8004b18:	4916      	ldr	r1, [pc, #88]	@ (8004b74 <HAL_RCC_ClockConfig+0x1bc>)
 8004b1a:	4313      	orrs	r3, r2
 8004b1c:	608b      	str	r3, [r1, #8]
  }

  /*-------------------------- PCLK2 Configuration ---------------------------*/
  if (((RCC_ClkInitStruct->ClockType) & RCC_CLOCKTYPE_PCLK2) == RCC_CLOCKTYPE_PCLK2)
 8004b1e:	687b      	ldr	r3, [r7, #4]
 8004b20:	681b      	ldr	r3, [r3, #0]
 8004b22:	f003 0308 	and.w	r3, r3, #8
 8004b26:	2b00      	cmp	r3, #0
 8004b28:	d009      	beq.n	8004b3e <HAL_RCC_ClockConfig+0x186>
  {
    assert_param(IS_RCC_PCLK(RCC_ClkInitStruct->APB2CLKDivider));
    MODIFY_REG(RCC->CFGR, RCC_CFGR_PPRE2, ((RCC_ClkInitStruct->APB2CLKDivider) << 3U));
 8004b2a:	4b12      	ldr	r3, [pc, #72]	@ (8004b74 <HAL_RCC_ClockConfig+0x1bc>)
 8004b2c:	689b      	ldr	r3, [r3, #8]
 8004b2e:	f423 4260 	bic.w	r2, r3, #57344	@ 0xe000
 8004b32:	687b      	ldr	r3, [r7, #4]
 8004b34:	691b      	ldr	r3, [r3, #16]
 8004b36:	00db      	lsls	r3, r3, #3
 8004b38:	490e      	ldr	r1, [pc, #56]	@ (8004b74 <HAL_RCC_ClockConfig+0x1bc>)
 8004b3a:	4313      	orrs	r3, r2
 8004b3c:	608b      	str	r3, [r1, #8]
  }

  /* Update the SystemCoreClock global variable */
  SystemCoreClock = HAL_RCC_GetSysClockFreq() >> AHBPrescTable[(RCC->CFGR & RCC_CFGR_HPRE) >> RCC_CFGR_HPRE_Pos];
 8004b3e:	f000 f821 	bl	8004b84 <HAL_RCC_GetSysClockFreq>
 8004b42:	4602      	mov	r2, r0
 8004b44:	4b0b      	ldr	r3, [pc, #44]	@ (8004b74 <HAL_RCC_ClockConfig+0x1bc>)
 8004b46:	689b      	ldr	r3, [r3, #8]
 8004b48:	091b      	lsrs	r3, r3, #4
 8004b4a:	f003 030f 	and.w	r3, r3, #15
 8004b4e:	490a      	ldr	r1, [pc, #40]	@ (8004b78 <HAL_RCC_ClockConfig+0x1c0>)
 8004b50:	5ccb      	ldrb	r3, [r1, r3]
 8004b52:	fa22 f303 	lsr.w	r3, r2, r3
 8004b56:	4a09      	ldr	r2, [pc, #36]	@ (8004b7c <HAL_RCC_ClockConfig+0x1c4>)
 8004b58:	6013      	str	r3, [r2, #0]

  /* Configure the source of time base considering new system clocks settings */
  HAL_InitTick(uwTickPrio);
 8004b5a:	4b09      	ldr	r3, [pc, #36]	@ (8004b80 <HAL_RCC_ClockConfig+0x1c8>)
 8004b5c:	681b      	ldr	r3, [r3, #0]
 8004b5e:	4618      	mov	r0, r3
 8004b60:	f7fd fedc 	bl	800291c <HAL_InitTick>

  return HAL_OK;
 8004b64:	2300      	movs	r3, #0
}
 8004b66:	4618      	mov	r0, r3
 8004b68:	3710      	adds	r7, #16
 8004b6a:	46bd      	mov	sp, r7
 8004b6c:	bd80      	pop	{r7, pc}
 8004b6e:	bf00      	nop
 8004b70:	40023c00 	.word	0x40023c00
 8004b74:	40023800 	.word	0x40023800
 8004b78:	080078bc 	.word	0x080078bc
 8004b7c:	20000028 	.word	0x20000028
 8004b80:	2000002c 	.word	0x2000002c

08004b84 <HAL_RCC_GetSysClockFreq>:
  *
  *
  * @retval SYSCLK frequency
  */
__weak uint32_t HAL_RCC_GetSysClockFreq(void)
{
 8004b84:	e92d 4fb0 	stmdb	sp!, {r4, r5, r7, r8, r9, sl, fp, lr}
 8004b88:	b090      	sub	sp, #64	@ 0x40
 8004b8a:	af00      	add	r7, sp, #0
  uint32_t pllm = 0U;
 8004b8c:	2300      	movs	r3, #0
 8004b8e:	637b      	str	r3, [r7, #52]	@ 0x34
  uint32_t pllvco = 0U;
 8004b90:	2300      	movs	r3, #0
 8004b92:	63fb      	str	r3, [r7, #60]	@ 0x3c
  uint32_t pllp = 0U;
 8004b94:	2300      	movs	r3, #0
 8004b96:	633b      	str	r3, [r7, #48]	@ 0x30
  uint32_t sysclockfreq = 0U;
 8004b98:	2300      	movs	r3, #0
 8004b9a:	63bb      	str	r3, [r7, #56]	@ 0x38

  /* Get SYSCLK source -------------------------------------------------------*/
  switch (RCC->CFGR & RCC_CFGR_SWS)
 8004b9c:	4b59      	ldr	r3, [pc, #356]	@ (8004d04 <HAL_RCC_GetSysClockFreq+0x180>)
 8004b9e:	689b      	ldr	r3, [r3, #8]
 8004ba0:	f003 030c 	and.w	r3, r3, #12
 8004ba4:	2b08      	cmp	r3, #8
 8004ba6:	d00d      	beq.n	8004bc4 <HAL_RCC_GetSysClockFreq+0x40>
 8004ba8:	2b08      	cmp	r3, #8
 8004baa:	f200 80a1 	bhi.w	8004cf0 <HAL_RCC_GetSysClockFreq+0x16c>
 8004bae:	2b00      	cmp	r3, #0
 8004bb0:	d002      	beq.n	8004bb8 <HAL_RCC_GetSysClockFreq+0x34>
 8004bb2:	2b04      	cmp	r3, #4
 8004bb4:	d003      	beq.n	8004bbe <HAL_RCC_GetSysClockFreq+0x3a>
 8004bb6:	e09b      	b.n	8004cf0 <HAL_RCC_GetSysClockFreq+0x16c>
  {
    case RCC_CFGR_SWS_HSI:  /* HSI used as system clock source */
    {
      sysclockfreq = HSI_VALUE;
 8004bb8:	4b53      	ldr	r3, [pc, #332]	@ (8004d08 <HAL_RCC_GetSysClockFreq+0x184>)
 8004bba:	63bb      	str	r3, [r7, #56]	@ 0x38
      break;
 8004bbc:	e09b      	b.n	8004cf6 <HAL_RCC_GetSysClockFreq+0x172>
    }
    case RCC_CFGR_SWS_HSE:  /* HSE used as system clock  source */
    {
      sysclockfreq = HSE_VALUE;
 8004bbe:	4b53      	ldr	r3, [pc, #332]	@ (8004d0c <HAL_RCC_GetSysClockFreq+0x188>)
 8004bc0:	63bb      	str	r3, [r7, #56]	@ 0x38
      break;
 8004bc2:	e098      	b.n	8004cf6 <HAL_RCC_GetSysClockFreq+0x172>
    }
    case RCC_CFGR_SWS_PLL:  /* PLL used as system clock  source */
    {
      /* PLL_VCO = (HSE_VALUE or HSI_VALUE / PLLM) * PLLN
      SYSCLK = PLL_VCO / PLLP */
      pllm = RCC->PLLCFGR & RCC_PLLCFGR_PLLM;
 8004bc4:	4b4f      	ldr	r3, [pc, #316]	@ (8004d04 <HAL_RCC_GetSysClockFreq+0x180>)
 8004bc6:	685b      	ldr	r3, [r3, #4]
 8004bc8:	f003 033f 	and.w	r3, r3, #63	@ 0x3f
 8004bcc:	637b      	str	r3, [r7, #52]	@ 0x34
      if (__HAL_RCC_GET_PLL_OSCSOURCE() != RCC_PLLSOURCE_HSI)
 8004bce:	4b4d      	ldr	r3, [pc, #308]	@ (8004d04 <HAL_RCC_GetSysClockFreq+0x180>)
 8004bd0:	685b      	ldr	r3, [r3, #4]
 8004bd2:	f403 0380 	and.w	r3, r3, #4194304	@ 0x400000
 8004bd6:	2b00      	cmp	r3, #0
 8004bd8:	d028      	beq.n	8004c2c <HAL_RCC_GetSysClockFreq+0xa8>
      {
        /* HSE used as PLL clock source */
        pllvco = (uint32_t)((((uint64_t) HSE_VALUE * ((uint64_t)((RCC->PLLCFGR & RCC_PLLCFGR_PLLN) >> RCC_PLLCFGR_PLLN_Pos)))) / (uint64_t)pllm);
 8004bda:	4b4a      	ldr	r3, [pc, #296]	@ (8004d04 <HAL_RCC_GetSysClockFreq+0x180>)
 8004bdc:	685b      	ldr	r3, [r3, #4]
 8004bde:	099b      	lsrs	r3, r3, #6
 8004be0:	2200      	movs	r2, #0
 8004be2:	623b      	str	r3, [r7, #32]
 8004be4:	627a      	str	r2, [r7, #36]	@ 0x24
 8004be6:	6a3b      	ldr	r3, [r7, #32]
 8004be8:	f3c3 0008 	ubfx	r0, r3, #0, #9
 8004bec:	2100      	movs	r1, #0
 8004bee:	4b47      	ldr	r3, [pc, #284]	@ (8004d0c <HAL_RCC_GetSysClockFreq+0x188>)
 8004bf0:	fb03 f201 	mul.w	r2, r3, r1
 8004bf4:	2300      	movs	r3, #0
 8004bf6:	fb00 f303 	mul.w	r3, r0, r3
 8004bfa:	4413      	add	r3, r2
 8004bfc:	4a43      	ldr	r2, [pc, #268]	@ (8004d0c <HAL_RCC_GetSysClockFreq+0x188>)
 8004bfe:	fba0 1202 	umull	r1, r2, r0, r2
 8004c02:	62fa      	str	r2, [r7, #44]	@ 0x2c
 8004c04:	460a      	mov	r2, r1
 8004c06:	62ba      	str	r2, [r7, #40]	@ 0x28
 8004c08:	6afa      	ldr	r2, [r7, #44]	@ 0x2c
 8004c0a:	4413      	add	r3, r2
 8004c0c:	62fb      	str	r3, [r7, #44]	@ 0x2c
 8004c0e:	6b7b      	ldr	r3, [r7, #52]	@ 0x34
 8004c10:	2200      	movs	r2, #0
 8004c12:	61bb      	str	r3, [r7, #24]
 8004c14:	61fa      	str	r2, [r7, #28]
 8004c16:	e9d7 2306 	ldrd	r2, r3, [r7, #24]
 8004c1a:	e9d7 010a 	ldrd	r0, r1, [r7, #40]	@ 0x28
 8004c1e:	f7fb ff5d 	bl	8000adc <__aeabi_uldivmod>
 8004c22:	4602      	mov	r2, r0
 8004c24:	460b      	mov	r3, r1
 8004c26:	4613      	mov	r3, r2
 8004c28:	63fb      	str	r3, [r7, #60]	@ 0x3c
 8004c2a:	e053      	b.n	8004cd4 <HAL_RCC_GetSysClockFreq+0x150>
      }
      else
      {
        /* HSI used as PLL clock source */
        pllvco = (uint32_t)((((uint64_t) HSI_VALUE * ((uint64_t)((RCC->PLLCFGR & RCC_PLLCFGR_PLLN) >> RCC_PLLCFGR_PLLN_Pos)))) / (uint64_t)pllm);
 8004c2c:	4b35      	ldr	r3, [pc, #212]	@ (8004d04 <HAL_RCC_GetSysClockFreq+0x180>)
 8004c2e:	685b      	ldr	r3, [r3, #4]
 8004c30:	099b      	lsrs	r3, r3, #6
 8004c32:	2200      	movs	r2, #0
 8004c34:	613b      	str	r3, [r7, #16]
 8004c36:	617a      	str	r2, [r7, #20]
 8004c38:	693b      	ldr	r3, [r7, #16]
 8004c3a:	f3c3 0a08 	ubfx	sl, r3, #0, #9
 8004c3e:	f04f 0b00 	mov.w	fp, #0
 8004c42:	4652      	mov	r2, sl
 8004c44:	465b      	mov	r3, fp
 8004c46:	f04f 0000 	mov.w	r0, #0
 8004c4a:	f04f 0100 	mov.w	r1, #0
 8004c4e:	0159      	lsls	r1, r3, #5
 8004c50:	ea41 61d2 	orr.w	r1, r1, r2, lsr #27
 8004c54:	0150      	lsls	r0, r2, #5
 8004c56:	4602      	mov	r2, r0
 8004c58:	460b      	mov	r3, r1
 8004c5a:	ebb2 080a 	subs.w	r8, r2, sl
 8004c5e:	eb63 090b 	sbc.w	r9, r3, fp
 8004c62:	f04f 0200 	mov.w	r2, #0
 8004c66:	f04f 0300 	mov.w	r3, #0
 8004c6a:	ea4f 1389 	mov.w	r3, r9, lsl #6
 8004c6e:	ea43 6398 	orr.w	r3, r3, r8, lsr #26
 8004c72:	ea4f 1288 	mov.w	r2, r8, lsl #6
 8004c76:	ebb2 0408 	subs.w	r4, r2, r8
 8004c7a:	eb63 0509 	sbc.w	r5, r3, r9
 8004c7e:	f04f 0200 	mov.w	r2, #0
 8004c82:	f04f 0300 	mov.w	r3, #0
 8004c86:	00eb      	lsls	r3, r5, #3
 8004c88:	ea43 7354 	orr.w	r3, r3, r4, lsr #29
 8004c8c:	00e2      	lsls	r2, r4, #3
 8004c8e:	4614      	mov	r4, r2
 8004c90:	461d      	mov	r5, r3
 8004c92:	eb14 030a 	adds.w	r3, r4, sl
 8004c96:	603b      	str	r3, [r7, #0]
 8004c98:	eb45 030b 	adc.w	r3, r5, fp
 8004c9c:	607b      	str	r3, [r7, #4]
 8004c9e:	f04f 0200 	mov.w	r2, #0
 8004ca2:	f04f 0300 	mov.w	r3, #0
 8004ca6:	e9d7 4500 	ldrd	r4, r5, [r7]
 8004caa:	4629      	mov	r1, r5
 8004cac:	028b      	lsls	r3, r1, #10
 8004cae:	4621      	mov	r1, r4
 8004cb0:	ea43 5391 	orr.w	r3, r3, r1, lsr #22
 8004cb4:	4621      	mov	r1, r4
 8004cb6:	028a      	lsls	r2, r1, #10
 8004cb8:	4610      	mov	r0, r2
 8004cba:	4619      	mov	r1, r3
 8004cbc:	6b7b      	ldr	r3, [r7, #52]	@ 0x34
 8004cbe:	2200      	movs	r2, #0
 8004cc0:	60bb      	str	r3, [r7, #8]
 8004cc2:	60fa      	str	r2, [r7, #12]
 8004cc4:	e9d7 2302 	ldrd	r2, r3, [r7, #8]
 8004cc8:	f7fb ff08 	bl	8000adc <__aeabi_uldivmod>
 8004ccc:	4602      	mov	r2, r0
 8004cce:	460b      	mov	r3, r1
 8004cd0:	4613      	mov	r3, r2
 8004cd2:	63fb      	str	r3, [r7, #60]	@ 0x3c
      }
      pllp = ((((RCC->PLLCFGR & RCC_PLLCFGR_PLLP) >> RCC_PLLCFGR_PLLP_Pos) + 1U) * 2U);
 8004cd4:	4b0b      	ldr	r3, [pc, #44]	@ (8004d04 <HAL_RCC_GetSysClockFreq+0x180>)
 8004cd6:	685b      	ldr	r3, [r3, #4]
 8004cd8:	0c1b      	lsrs	r3, r3, #16
 8004cda:	f003 0303 	and.w	r3, r3, #3
 8004cde:	3301      	adds	r3, #1
 8004ce0:	005b      	lsls	r3, r3, #1
 8004ce2:	633b      	str	r3, [r7, #48]	@ 0x30

      sysclockfreq = pllvco / pllp;
 8004ce4:	6bfa      	ldr	r2, [r7, #60]	@ 0x3c
 8004ce6:	6b3b      	ldr	r3, [r7, #48]	@ 0x30
 8004ce8:	fbb2 f3f3 	udiv	r3, r2, r3
 8004cec:	63bb      	str	r3, [r7, #56]	@ 0x38
      break;
 8004cee:	e002      	b.n	8004cf6 <HAL_RCC_GetSysClockFreq+0x172>
    }
    default:
    {
      sysclockfreq = HSI_VALUE;
 8004cf0:	4b05      	ldr	r3, [pc, #20]	@ (8004d08 <HAL_RCC_GetSysClockFreq+0x184>)
 8004cf2:	63bb      	str	r3, [r7, #56]	@ 0x38
      break;
 8004cf4:	bf00      	nop
    }
  }
  return sysclockfreq;
 8004cf6:	6bbb      	ldr	r3, [r7, #56]	@ 0x38
}
 8004cf8:	4618      	mov	r0, r3
 8004cfa:	3740      	adds	r7, #64	@ 0x40
 8004cfc:	46bd      	mov	sp, r7
 8004cfe:	e8bd 8fb0 	ldmia.w	sp!, {r4, r5, r7, r8, r9, sl, fp, pc}
 8004d02:	bf00      	nop
 8004d04:	40023800 	.word	0x40023800
 8004d08:	00f42400 	.word	0x00f42400
 8004d0c:	017d7840 	.word	0x017d7840

08004d10 <HAL_RCC_GetHCLKFreq>:
  * @note   The SystemCoreClock CMSIS variable is used to store System Clock Frequency
  *         and updated within this function
  * @retval HCLK frequency
  */
uint32_t HAL_RCC_GetHCLKFreq(void)
{
 8004d10:	b480      	push	{r7}
 8004d12:	af00      	add	r7, sp, #0
  return SystemCoreClock;
 8004d14:	4b03      	ldr	r3, [pc, #12]	@ (8004d24 <HAL_RCC_GetHCLKFreq+0x14>)
 8004d16:	681b      	ldr	r3, [r3, #0]
}
 8004d18:	4618      	mov	r0, r3
 8004d1a:	46bd      	mov	sp, r7
 8004d1c:	f85d 7b04 	ldr.w	r7, [sp], #4
 8004d20:	4770      	bx	lr
 8004d22:	bf00      	nop
 8004d24:	20000028 	.word	0x20000028

08004d28 <HAL_RCC_GetPCLK1Freq>:
  * @note   Each time PCLK1 changes, this function must be called to update the
  *         right PCLK1 value. Otherwise, any configuration based on this function will be incorrect.
  * @retval PCLK1 frequency
  */
uint32_t HAL_RCC_GetPCLK1Freq(void)
{
 8004d28:	b580      	push	{r7, lr}
 8004d2a:	af00      	add	r7, sp, #0
  /* Get HCLK source and Compute PCLK1 frequency ---------------------------*/
  return (HAL_RCC_GetHCLKFreq() >> APBPrescTable[(RCC->CFGR & RCC_CFGR_PPRE1) >> RCC_CFGR_PPRE1_Pos]);
 8004d2c:	f7ff fff0 	bl	8004d10 <HAL_RCC_GetHCLKFreq>
 8004d30:	4602      	mov	r2, r0
 8004d32:	4b05      	ldr	r3, [pc, #20]	@ (8004d48 <HAL_RCC_GetPCLK1Freq+0x20>)
 8004d34:	689b      	ldr	r3, [r3, #8]
 8004d36:	0a9b      	lsrs	r3, r3, #10
 8004d38:	f003 0307 	and.w	r3, r3, #7
 8004d3c:	4903      	ldr	r1, [pc, #12]	@ (8004d4c <HAL_RCC_GetPCLK1Freq+0x24>)
 8004d3e:	5ccb      	ldrb	r3, [r1, r3]
 8004d40:	fa22 f303 	lsr.w	r3, r2, r3
}
 8004d44:	4618      	mov	r0, r3
 8004d46:	bd80      	pop	{r7, pc}
 8004d48:	40023800 	.word	0x40023800
 8004d4c:	080078cc 	.word	0x080078cc

08004d50 <HAL_RCC_GetPCLK2Freq>:
  * @note   Each time PCLK2 changes, this function must be called to update the
  *         right PCLK2 value. Otherwise, any configuration based on this function will be incorrect.
  * @retval PCLK2 frequency
  */
uint32_t HAL_RCC_GetPCLK2Freq(void)
{
 8004d50:	b580      	push	{r7, lr}
 8004d52:	af00      	add	r7, sp, #0
  /* Get HCLK source and Compute PCLK2 frequency ---------------------------*/
  return (HAL_RCC_GetHCLKFreq() >> APBPrescTable[(RCC->CFGR & RCC_CFGR_PPRE2) >> RCC_CFGR_PPRE2_Pos]);
 8004d54:	f7ff ffdc 	bl	8004d10 <HAL_RCC_GetHCLKFreq>
 8004d58:	4602      	mov	r2, r0
 8004d5a:	4b05      	ldr	r3, [pc, #20]	@ (8004d70 <HAL_RCC_GetPCLK2Freq+0x20>)
 8004d5c:	689b      	ldr	r3, [r3, #8]
 8004d5e:	0b5b      	lsrs	r3, r3, #13
 8004d60:	f003 0307 	and.w	r3, r3, #7
 8004d64:	4903      	ldr	r1, [pc, #12]	@ (8004d74 <HAL_RCC_GetPCLK2Freq+0x24>)
 8004d66:	5ccb      	ldrb	r3, [r1, r3]
 8004d68:	fa22 f303 	lsr.w	r3, r2, r3
}
 8004d6c:	4618      	mov	r0, r3
 8004d6e:	bd80      	pop	{r7, pc}
 8004d70:	40023800 	.word	0x40023800
 8004d74:	080078cc 	.word	0x080078cc

08004d78 <HAL_TIM_Base_Init>:
  *         Ex: call @ref HAL_TIM_Base_DeInit() before HAL_TIM_Base_Init()
  * @param  htim TIM Base handle
  * @retval HAL status
  */
HAL_StatusTypeDef HAL_TIM_Base_Init(TIM_HandleTypeDef *htim)
{
 8004d78:	b580      	push	{r7, lr}
 8004d7a:	b082      	sub	sp, #8
 8004d7c:	af00      	add	r7, sp, #0
 8004d7e:	6078      	str	r0, [r7, #4]
  /* Check the TIM handle allocation */
  if (htim == NULL)
 8004d80:	687b      	ldr	r3, [r7, #4]
 8004d82:	2b00      	cmp	r3, #0
 8004d84:	d101      	bne.n	8004d8a <HAL_TIM_Base_Init+0x12>
  {
    return HAL_ERROR;
 8004d86:	2301      	movs	r3, #1
 8004d88:	e041      	b.n	8004e0e <HAL_TIM_Base_Init+0x96>
  assert_param(IS_TIM_COUNTER_MODE(htim->Init.CounterMode));
  assert_param(IS_TIM_CLOCKDIVISION_DIV(htim->Init.ClockDivision));
  assert_param(IS_TIM_PERIOD(htim, htim->Init.Period));
  assert_param(IS_TIM_AUTORELOAD_PRELOAD(htim->Init.AutoReloadPreload));

  if (htim->State == HAL_TIM_STATE_RESET)
 8004d8a:	687b      	ldr	r3, [r7, #4]
 8004d8c:	f893 303d 	ldrb.w	r3, [r3, #61]	@ 0x3d
 8004d90:	b2db      	uxtb	r3, r3
 8004d92:	2b00      	cmp	r3, #0
 8004d94:	d106      	bne.n	8004da4 <HAL_TIM_Base_Init+0x2c>
  {
    /* Allocate lock resource and initialize it */
    htim->Lock = HAL_UNLOCKED;
 8004d96:	687b      	ldr	r3, [r7, #4]
 8004d98:	2200      	movs	r2, #0
 8004d9a:	f883 203c 	strb.w	r2, [r3, #60]	@ 0x3c
    }
    /* Init the low level hardware : GPIO, CLOCK, NVIC */
    htim->Base_MspInitCallback(htim);
#else
    /* Init the low level hardware : GPIO, CLOCK, NVIC */
    HAL_TIM_Base_MspInit(htim);
 8004d9e:	6878      	ldr	r0, [r7, #4]
 8004da0:	f7fd fc6a 	bl	8002678 <HAL_TIM_Base_MspInit>
#endif /* USE_HAL_TIM_REGISTER_CALLBACKS */
  }

  /* Set the TIM state */
  htim->State = HAL_TIM_STATE_BUSY;
 8004da4:	687b      	ldr	r3, [r7, #4]
 8004da6:	2202      	movs	r2, #2
 8004da8:	f883 203d 	strb.w	r2, [r3, #61]	@ 0x3d

  /* Set the Time Base configuration */
  TIM_Base_SetConfig(htim->Instance, &htim->Init);
 8004dac:	687b      	ldr	r3, [r7, #4]
 8004dae:	681a      	ldr	r2, [r3, #0]
 8004db0:	687b      	ldr	r3, [r7, #4]
 8004db2:	3304      	adds	r3, #4
 8004db4:	4619      	mov	r1, r3
 8004db6:	4610      	mov	r0, r2
 8004db8:	f000 fc62 	bl	8005680 <TIM_Base_SetConfig>

  /* Initialize the DMA burst operation state */
  htim->DMABurstState = HAL_DMA_BURST_STATE_READY;
 8004dbc:	687b      	ldr	r3, [r7, #4]
 8004dbe:	2201      	movs	r2, #1
 8004dc0:	f883 2046 	strb.w	r2, [r3, #70]	@ 0x46

  /* Initialize the TIM channels state */
  TIM_CHANNEL_STATE_SET_ALL(htim, HAL_TIM_CHANNEL_STATE_READY);
 8004dc4:	687b      	ldr	r3, [r7, #4]
 8004dc6:	2201      	movs	r2, #1
 8004dc8:	f883 203e 	strb.w	r2, [r3, #62]	@ 0x3e
 8004dcc:	687b      	ldr	r3, [r7, #4]
 8004dce:	2201      	movs	r2, #1
 8004dd0:	f883 203f 	strb.w	r2, [r3, #63]	@ 0x3f
 8004dd4:	687b      	ldr	r3, [r7, #4]
 8004dd6:	2201      	movs	r2, #1
 8004dd8:	f883 2040 	strb.w	r2, [r3, #64]	@ 0x40
 8004ddc:	687b      	ldr	r3, [r7, #4]
 8004dde:	2201      	movs	r2, #1
 8004de0:	f883 2041 	strb.w	r2, [r3, #65]	@ 0x41
  TIM_CHANNEL_N_STATE_SET_ALL(htim, HAL_TIM_CHANNEL_STATE_READY);
 8004de4:	687b      	ldr	r3, [r7, #4]
 8004de6:	2201      	movs	r2, #1
 8004de8:	f883 2042 	strb.w	r2, [r3, #66]	@ 0x42
 8004dec:	687b      	ldr	r3, [r7, #4]
 8004dee:	2201      	movs	r2, #1
 8004df0:	f883 2043 	strb.w	r2, [r3, #67]	@ 0x43
 8004df4:	687b      	ldr	r3, [r7, #4]
 8004df6:	2201      	movs	r2, #1
 8004df8:	f883 2044 	strb.w	r2, [r3, #68]	@ 0x44
 8004dfc:	687b      	ldr	r3, [r7, #4]
 8004dfe:	2201      	movs	r2, #1
 8004e00:	f883 2045 	strb.w	r2, [r3, #69]	@ 0x45

  /* Initialize the TIM state*/
  htim->State = HAL_TIM_STATE_READY;
 8004e04:	687b      	ldr	r3, [r7, #4]
 8004e06:	2201      	movs	r2, #1
 8004e08:	f883 203d 	strb.w	r2, [r3, #61]	@ 0x3d

  return HAL_OK;
 8004e0c:	2300      	movs	r3, #0
}
 8004e0e:	4618      	mov	r0, r3
 8004e10:	3708      	adds	r7, #8
 8004e12:	46bd      	mov	sp, r7
 8004e14:	bd80      	pop	{r7, pc}
	...

08004e18 <HAL_TIM_Base_Start_IT>:
  * @brief  Starts the TIM Base generation in interrupt mode.
  * @param  htim TIM Base handle
  * @retval HAL status
  */
HAL_StatusTypeDef HAL_TIM_Base_Start_IT(TIM_HandleTypeDef *htim)
{
 8004e18:	b480      	push	{r7}
 8004e1a:	b085      	sub	sp, #20
 8004e1c:	af00      	add	r7, sp, #0
 8004e1e:	6078      	str	r0, [r7, #4]

  /* Check the parameters */
  assert_param(IS_TIM_INSTANCE(htim->Instance));

  /* Check the TIM state */
  if (htim->State != HAL_TIM_STATE_READY)
 8004e20:	687b      	ldr	r3, [r7, #4]
 8004e22:	f893 303d 	ldrb.w	r3, [r3, #61]	@ 0x3d
 8004e26:	b2db      	uxtb	r3, r3
 8004e28:	2b01      	cmp	r3, #1
 8004e2a:	d001      	beq.n	8004e30 <HAL_TIM_Base_Start_IT+0x18>
  {
    return HAL_ERROR;
 8004e2c:	2301      	movs	r3, #1
 8004e2e:	e04e      	b.n	8004ece <HAL_TIM_Base_Start_IT+0xb6>
  }

  /* Set the TIM state */
  htim->State = HAL_TIM_STATE_BUSY;
 8004e30:	687b      	ldr	r3, [r7, #4]
 8004e32:	2202      	movs	r2, #2
 8004e34:	f883 203d 	strb.w	r2, [r3, #61]	@ 0x3d

  /* Enable the TIM Update interrupt */
  __HAL_TIM_ENABLE_IT(htim, TIM_IT_UPDATE);
 8004e38:	687b      	ldr	r3, [r7, #4]
 8004e3a:	681b      	ldr	r3, [r3, #0]
 8004e3c:	68da      	ldr	r2, [r3, #12]
 8004e3e:	687b      	ldr	r3, [r7, #4]
 8004e40:	681b      	ldr	r3, [r3, #0]
 8004e42:	f042 0201 	orr.w	r2, r2, #1
 8004e46:	60da      	str	r2, [r3, #12]

  /* Enable the Peripheral, except in trigger mode where enable is automatically done with trigger */
  if (IS_TIM_SLAVE_INSTANCE(htim->Instance))
 8004e48:	687b      	ldr	r3, [r7, #4]
 8004e4a:	681b      	ldr	r3, [r3, #0]
 8004e4c:	4a23      	ldr	r2, [pc, #140]	@ (8004edc <HAL_TIM_Base_Start_IT+0xc4>)
 8004e4e:	4293      	cmp	r3, r2
 8004e50:	d022      	beq.n	8004e98 <HAL_TIM_Base_Start_IT+0x80>
 8004e52:	687b      	ldr	r3, [r7, #4]
 8004e54:	681b      	ldr	r3, [r3, #0]
 8004e56:	f1b3 4f80 	cmp.w	r3, #1073741824	@ 0x40000000
 8004e5a:	d01d      	beq.n	8004e98 <HAL_TIM_Base_Start_IT+0x80>
 8004e5c:	687b      	ldr	r3, [r7, #4]
 8004e5e:	681b      	ldr	r3, [r3, #0]
 8004e60:	4a1f      	ldr	r2, [pc, #124]	@ (8004ee0 <HAL_TIM_Base_Start_IT+0xc8>)
 8004e62:	4293      	cmp	r3, r2
 8004e64:	d018      	beq.n	8004e98 <HAL_TIM_Base_Start_IT+0x80>
 8004e66:	687b      	ldr	r3, [r7, #4]
 8004e68:	681b      	ldr	r3, [r3, #0]
 8004e6a:	4a1e      	ldr	r2, [pc, #120]	@ (8004ee4 <HAL_TIM_Base_Start_IT+0xcc>)
 8004e6c:	4293      	cmp	r3, r2
 8004e6e:	d013      	beq.n	8004e98 <HAL_TIM_Base_Start_IT+0x80>
 8004e70:	687b      	ldr	r3, [r7, #4]
 8004e72:	681b      	ldr	r3, [r3, #0]
 8004e74:	4a1c      	ldr	r2, [pc, #112]	@ (8004ee8 <HAL_TIM_Base_Start_IT+0xd0>)
 8004e76:	4293      	cmp	r3, r2
 8004e78:	d00e      	beq.n	8004e98 <HAL_TIM_Base_Start_IT+0x80>
 8004e7a:	687b      	ldr	r3, [r7, #4]
 8004e7c:	681b      	ldr	r3, [r3, #0]
 8004e7e:	4a1b      	ldr	r2, [pc, #108]	@ (8004eec <HAL_TIM_Base_Start_IT+0xd4>)
 8004e80:	4293      	cmp	r3, r2
 8004e82:	d009      	beq.n	8004e98 <HAL_TIM_Base_Start_IT+0x80>
 8004e84:	687b      	ldr	r3, [r7, #4]
 8004e86:	681b      	ldr	r3, [r3, #0]
 8004e88:	4a19      	ldr	r2, [pc, #100]	@ (8004ef0 <HAL_TIM_Base_Start_IT+0xd8>)
 8004e8a:	4293      	cmp	r3, r2
 8004e8c:	d004      	beq.n	8004e98 <HAL_TIM_Base_Start_IT+0x80>
 8004e8e:	687b      	ldr	r3, [r7, #4]
 8004e90:	681b      	ldr	r3, [r3, #0]
 8004e92:	4a18      	ldr	r2, [pc, #96]	@ (8004ef4 <HAL_TIM_Base_Start_IT+0xdc>)
 8004e94:	4293      	cmp	r3, r2
 8004e96:	d111      	bne.n	8004ebc <HAL_TIM_Base_Start_IT+0xa4>
  {
    tmpsmcr = htim->Instance->SMCR & TIM_SMCR_SMS;
 8004e98:	687b      	ldr	r3, [r7, #4]
 8004e9a:	681b      	ldr	r3, [r3, #0]
 8004e9c:	689b      	ldr	r3, [r3, #8]
 8004e9e:	f003 0307 	and.w	r3, r3, #7
 8004ea2:	60fb      	str	r3, [r7, #12]
    if (!IS_TIM_SLAVEMODE_TRIGGER_ENABLED(tmpsmcr))
 8004ea4:	68fb      	ldr	r3, [r7, #12]
 8004ea6:	2b06      	cmp	r3, #6
 8004ea8:	d010      	beq.n	8004ecc <HAL_TIM_Base_Start_IT+0xb4>
    {
      __HAL_TIM_ENABLE(htim);
 8004eaa:	687b      	ldr	r3, [r7, #4]
 8004eac:	681b      	ldr	r3, [r3, #0]
 8004eae:	681a      	ldr	r2, [r3, #0]
 8004eb0:	687b      	ldr	r3, [r7, #4]
 8004eb2:	681b      	ldr	r3, [r3, #0]
 8004eb4:	f042 0201 	orr.w	r2, r2, #1
 8004eb8:	601a      	str	r2, [r3, #0]
    if (!IS_TIM_SLAVEMODE_TRIGGER_ENABLED(tmpsmcr))
 8004eba:	e007      	b.n	8004ecc <HAL_TIM_Base_Start_IT+0xb4>
    }
  }
  else
  {
    __HAL_TIM_ENABLE(htim);
 8004ebc:	687b      	ldr	r3, [r7, #4]
 8004ebe:	681b      	ldr	r3, [r3, #0]
 8004ec0:	681a      	ldr	r2, [r3, #0]
 8004ec2:	687b      	ldr	r3, [r7, #4]
 8004ec4:	681b      	ldr	r3, [r3, #0]
 8004ec6:	f042 0201 	orr.w	r2, r2, #1
 8004eca:	601a      	str	r2, [r3, #0]
  }

  /* Return function status */
  return HAL_OK;
 8004ecc:	2300      	movs	r3, #0
}
 8004ece:	4618      	mov	r0, r3
 8004ed0:	3714      	adds	r7, #20
 8004ed2:	46bd      	mov	sp, r7
 8004ed4:	f85d 7b04 	ldr.w	r7, [sp], #4
 8004ed8:	4770      	bx	lr
 8004eda:	bf00      	nop
 8004edc:	40010000 	.word	0x40010000
 8004ee0:	40000400 	.word	0x40000400
 8004ee4:	40000800 	.word	0x40000800
 8004ee8:	40000c00 	.word	0x40000c00
 8004eec:	40010400 	.word	0x40010400
 8004ef0:	40014000 	.word	0x40014000
 8004ef4:	40001800 	.word	0x40001800

08004ef8 <HAL_TIM_PWM_Init>:
  *         Ex: call @ref HAL_TIM_PWM_DeInit() before HAL_TIM_PWM_Init()
  * @param  htim TIM PWM handle
  * @retval HAL status
  */
HAL_StatusTypeDef HAL_TIM_PWM_Init(TIM_HandleTypeDef *htim)
{
 8004ef8:	b580      	push	{r7, lr}
 8004efa:	b082      	sub	sp, #8
 8004efc:	af00      	add	r7, sp, #0
 8004efe:	6078      	str	r0, [r7, #4]
  /* Check the TIM handle allocation */
  if (htim == NULL)
 8004f00:	687b      	ldr	r3, [r7, #4]
 8004f02:	2b00      	cmp	r3, #0
 8004f04:	d101      	bne.n	8004f0a <HAL_TIM_PWM_Init+0x12>
  {
    return HAL_ERROR;
 8004f06:	2301      	movs	r3, #1
 8004f08:	e041      	b.n	8004f8e <HAL_TIM_PWM_Init+0x96>
  assert_param(IS_TIM_COUNTER_MODE(htim->Init.CounterMode));
  assert_param(IS_TIM_CLOCKDIVISION_DIV(htim->Init.ClockDivision));
  assert_param(IS_TIM_PERIOD(htim, htim->Init.Period));
  assert_param(IS_TIM_AUTORELOAD_PRELOAD(htim->Init.AutoReloadPreload));

  if (htim->State == HAL_TIM_STATE_RESET)
 8004f0a:	687b      	ldr	r3, [r7, #4]
 8004f0c:	f893 303d 	ldrb.w	r3, [r3, #61]	@ 0x3d
 8004f10:	b2db      	uxtb	r3, r3
 8004f12:	2b00      	cmp	r3, #0
 8004f14:	d106      	bne.n	8004f24 <HAL_TIM_PWM_Init+0x2c>
  {
    /* Allocate lock resource and initialize it */
    htim->Lock = HAL_UNLOCKED;
 8004f16:	687b      	ldr	r3, [r7, #4]
 8004f18:	2200      	movs	r2, #0
 8004f1a:	f883 203c 	strb.w	r2, [r3, #60]	@ 0x3c
    }
    /* Init the low level hardware : GPIO, CLOCK, NVIC */
    htim->PWM_MspInitCallback(htim);
#else
    /* Init the low level hardware : GPIO, CLOCK, NVIC and DMA */
    HAL_TIM_PWM_MspInit(htim);
 8004f1e:	6878      	ldr	r0, [r7, #4]
 8004f20:	f000 f839 	bl	8004f96 <HAL_TIM_PWM_MspInit>
#endif /* USE_HAL_TIM_REGISTER_CALLBACKS */
  }

  /* Set the TIM state */
  htim->State = HAL_TIM_STATE_BUSY;
 8004f24:	687b      	ldr	r3, [r7, #4]
 8004f26:	2202      	movs	r2, #2
 8004f28:	f883 203d 	strb.w	r2, [r3, #61]	@ 0x3d

  /* Init the base time for the PWM */
  TIM_Base_SetConfig(htim->Instance, &htim->Init);
 8004f2c:	687b      	ldr	r3, [r7, #4]
 8004f2e:	681a      	ldr	r2, [r3, #0]
 8004f30:	687b      	ldr	r3, [r7, #4]
 8004f32:	3304      	adds	r3, #4
 8004f34:	4619      	mov	r1, r3
 8004f36:	4610      	mov	r0, r2
 8004f38:	f000 fba2 	bl	8005680 <TIM_Base_SetConfig>

  /* Initialize the DMA burst operation state */
  htim->DMABurstState = HAL_DMA_BURST_STATE_READY;
 8004f3c:	687b      	ldr	r3, [r7, #4]
 8004f3e:	2201      	movs	r2, #1
 8004f40:	f883 2046 	strb.w	r2, [r3, #70]	@ 0x46

  /* Initialize the TIM channels state */
  TIM_CHANNEL_STATE_SET_ALL(htim, HAL_TIM_CHANNEL_STATE_READY);
 8004f44:	687b      	ldr	r3, [r7, #4]
 8004f46:	2201      	movs	r2, #1
 8004f48:	f883 203e 	strb.w	r2, [r3, #62]	@ 0x3e
 8004f4c:	687b      	ldr	r3, [r7, #4]
 8004f4e:	2201      	movs	r2, #1
 8004f50:	f883 203f 	strb.w	r2, [r3, #63]	@ 0x3f
 8004f54:	687b      	ldr	r3, [r7, #4]
 8004f56:	2201      	movs	r2, #1
 8004f58:	f883 2040 	strb.w	r2, [r3, #64]	@ 0x40
 8004f5c:	687b      	ldr	r3, [r7, #4]
 8004f5e:	2201      	movs	r2, #1
 8004f60:	f883 2041 	strb.w	r2, [r3, #65]	@ 0x41
  TIM_CHANNEL_N_STATE_SET_ALL(htim, HAL_TIM_CHANNEL_STATE_READY);
 8004f64:	687b      	ldr	r3, [r7, #4]
 8004f66:	2201      	movs	r2, #1
 8004f68:	f883 2042 	strb.w	r2, [r3, #66]	@ 0x42
 8004f6c:	687b      	ldr	r3, [r7, #4]
 8004f6e:	2201      	movs	r2, #1
 8004f70:	f883 2043 	strb.w	r2, [r3, #67]	@ 0x43
 8004f74:	687b      	ldr	r3, [r7, #4]
 8004f76:	2201      	movs	r2, #1
 8004f78:	f883 2044 	strb.w	r2, [r3, #68]	@ 0x44
 8004f7c:	687b      	ldr	r3, [r7, #4]
 8004f7e:	2201      	movs	r2, #1
 8004f80:	f883 2045 	strb.w	r2, [r3, #69]	@ 0x45

  /* Initialize the TIM state*/
  htim->State = HAL_TIM_STATE_READY;
 8004f84:	687b      	ldr	r3, [r7, #4]
 8004f86:	2201      	movs	r2, #1
 8004f88:	f883 203d 	strb.w	r2, [r3, #61]	@ 0x3d

  return HAL_OK;
 8004f8c:	2300      	movs	r3, #0
}
 8004f8e:	4618      	mov	r0, r3
 8004f90:	3708      	adds	r7, #8
 8004f92:	46bd      	mov	sp, r7
 8004f94:	bd80      	pop	{r7, pc}

08004f96 <HAL_TIM_PWM_MspInit>:
  * @brief  Initializes the TIM PWM MSP.
  * @param  htim TIM PWM handle
  * @retval None
  */
__weak void HAL_TIM_PWM_MspInit(TIM_HandleTypeDef *htim)
{
 8004f96:	b480      	push	{r7}
 8004f98:	b083      	sub	sp, #12
 8004f9a:	af00      	add	r7, sp, #0
 8004f9c:	6078      	str	r0, [r7, #4]
  UNUSED(htim);

  /* NOTE : This function should not be modified, when the callback is needed,
            the HAL_TIM_PWM_MspInit could be implemented in the user file
   */
}
 8004f9e:	bf00      	nop
 8004fa0:	370c      	adds	r7, #12
 8004fa2:	46bd      	mov	sp, r7
 8004fa4:	f85d 7b04 	ldr.w	r7, [sp], #4
 8004fa8:	4770      	bx	lr
	...

08004fac <HAL_TIM_PWM_Start>:
  *            @arg TIM_CHANNEL_3: TIM Channel 3 selected
  *            @arg TIM_CHANNEL_4: TIM Channel 4 selected
  * @retval HAL status
  */
HAL_StatusTypeDef HAL_TIM_PWM_Start(TIM_HandleTypeDef *htim, uint32_t Channel)
{
 8004fac:	b580      	push	{r7, lr}
 8004fae:	b084      	sub	sp, #16
 8004fb0:	af00      	add	r7, sp, #0
 8004fb2:	6078      	str	r0, [r7, #4]
 8004fb4:	6039      	str	r1, [r7, #0]

  /* Check the parameters */
  assert_param(IS_TIM_CCX_INSTANCE(htim->Instance, Channel));

  /* Check the TIM channel state */
  if (TIM_CHANNEL_STATE_GET(htim, Channel) != HAL_TIM_CHANNEL_STATE_READY)
 8004fb6:	683b      	ldr	r3, [r7, #0]
 8004fb8:	2b00      	cmp	r3, #0
 8004fba:	d109      	bne.n	8004fd0 <HAL_TIM_PWM_Start+0x24>
 8004fbc:	687b      	ldr	r3, [r7, #4]
 8004fbe:	f893 303e 	ldrb.w	r3, [r3, #62]	@ 0x3e
 8004fc2:	b2db      	uxtb	r3, r3
 8004fc4:	2b01      	cmp	r3, #1
 8004fc6:	bf14      	ite	ne
 8004fc8:	2301      	movne	r3, #1
 8004fca:	2300      	moveq	r3, #0
 8004fcc:	b2db      	uxtb	r3, r3
 8004fce:	e022      	b.n	8005016 <HAL_TIM_PWM_Start+0x6a>
 8004fd0:	683b      	ldr	r3, [r7, #0]
 8004fd2:	2b04      	cmp	r3, #4
 8004fd4:	d109      	bne.n	8004fea <HAL_TIM_PWM_Start+0x3e>
 8004fd6:	687b      	ldr	r3, [r7, #4]
 8004fd8:	f893 303f 	ldrb.w	r3, [r3, #63]	@ 0x3f
 8004fdc:	b2db      	uxtb	r3, r3
 8004fde:	2b01      	cmp	r3, #1
 8004fe0:	bf14      	ite	ne
 8004fe2:	2301      	movne	r3, #1
 8004fe4:	2300      	moveq	r3, #0
 8004fe6:	b2db      	uxtb	r3, r3
 8004fe8:	e015      	b.n	8005016 <HAL_TIM_PWM_Start+0x6a>
 8004fea:	683b      	ldr	r3, [r7, #0]
 8004fec:	2b08      	cmp	r3, #8
 8004fee:	d109      	bne.n	8005004 <HAL_TIM_PWM_Start+0x58>
 8004ff0:	687b      	ldr	r3, [r7, #4]
 8004ff2:	f893 3040 	ldrb.w	r3, [r3, #64]	@ 0x40
 8004ff6:	b2db      	uxtb	r3, r3
 8004ff8:	2b01      	cmp	r3, #1
 8004ffa:	bf14      	ite	ne
 8004ffc:	2301      	movne	r3, #1
 8004ffe:	2300      	moveq	r3, #0
 8005000:	b2db      	uxtb	r3, r3
 8005002:	e008      	b.n	8005016 <HAL_TIM_PWM_Start+0x6a>
 8005004:	687b      	ldr	r3, [r7, #4]
 8005006:	f893 3041 	ldrb.w	r3, [r3, #65]	@ 0x41
 800500a:	b2db      	uxtb	r3, r3
 800500c:	2b01      	cmp	r3, #1
 800500e:	bf14      	ite	ne
 8005010:	2301      	movne	r3, #1
 8005012:	2300      	moveq	r3, #0
 8005014:	b2db      	uxtb	r3, r3
 8005016:	2b00      	cmp	r3, #0
 8005018:	d001      	beq.n	800501e <HAL_TIM_PWM_Start+0x72>
  {
    return HAL_ERROR;
 800501a:	2301      	movs	r3, #1
 800501c:	e07c      	b.n	8005118 <HAL_TIM_PWM_Start+0x16c>
  }

  /* Set the TIM channel state */
  TIM_CHANNEL_STATE_SET(htim, Channel, HAL_TIM_CHANNEL_STATE_BUSY);
 800501e:	683b      	ldr	r3, [r7, #0]
 8005020:	2b00      	cmp	r3, #0
 8005022:	d104      	bne.n	800502e <HAL_TIM_PWM_Start+0x82>
 8005024:	687b      	ldr	r3, [r7, #4]
 8005026:	2202      	movs	r2, #2
 8005028:	f883 203e 	strb.w	r2, [r3, #62]	@ 0x3e
 800502c:	e013      	b.n	8005056 <HAL_TIM_PWM_Start+0xaa>
 800502e:	683b      	ldr	r3, [r7, #0]
 8005030:	2b04      	cmp	r3, #4
 8005032:	d104      	bne.n	800503e <HAL_TIM_PWM_Start+0x92>
 8005034:	687b      	ldr	r3, [r7, #4]
 8005036:	2202      	movs	r2, #2
 8005038:	f883 203f 	strb.w	r2, [r3, #63]	@ 0x3f
 800503c:	e00b      	b.n	8005056 <HAL_TIM_PWM_Start+0xaa>
 800503e:	683b      	ldr	r3, [r7, #0]
 8005040:	2b08      	cmp	r3, #8
 8005042:	d104      	bne.n	800504e <HAL_TIM_PWM_Start+0xa2>
 8005044:	687b      	ldr	r3, [r7, #4]
 8005046:	2202      	movs	r2, #2
 8005048:	f883 2040 	strb.w	r2, [r3, #64]	@ 0x40
 800504c:	e003      	b.n	8005056 <HAL_TIM_PWM_Start+0xaa>
 800504e:	687b      	ldr	r3, [r7, #4]
 8005050:	2202      	movs	r2, #2
 8005052:	f883 2041 	strb.w	r2, [r3, #65]	@ 0x41

  /* Enable the Capture compare channel */
  TIM_CCxChannelCmd(htim->Instance, Channel, TIM_CCx_ENABLE);
 8005056:	687b      	ldr	r3, [r7, #4]
 8005058:	681b      	ldr	r3, [r3, #0]
 800505a:	2201      	movs	r2, #1
 800505c:	6839      	ldr	r1, [r7, #0]
 800505e:	4618      	mov	r0, r3
 8005060:	f000 fdfe 	bl	8005c60 <TIM_CCxChannelCmd>

  if (IS_TIM_BREAK_INSTANCE(htim->Instance) != RESET)
 8005064:	687b      	ldr	r3, [r7, #4]
 8005066:	681b      	ldr	r3, [r3, #0]
 8005068:	4a2d      	ldr	r2, [pc, #180]	@ (8005120 <HAL_TIM_PWM_Start+0x174>)
 800506a:	4293      	cmp	r3, r2
 800506c:	d004      	beq.n	8005078 <HAL_TIM_PWM_Start+0xcc>
 800506e:	687b      	ldr	r3, [r7, #4]
 8005070:	681b      	ldr	r3, [r3, #0]
 8005072:	4a2c      	ldr	r2, [pc, #176]	@ (8005124 <HAL_TIM_PWM_Start+0x178>)
 8005074:	4293      	cmp	r3, r2
 8005076:	d101      	bne.n	800507c <HAL_TIM_PWM_Start+0xd0>
 8005078:	2301      	movs	r3, #1
 800507a:	e000      	b.n	800507e <HAL_TIM_PWM_Start+0xd2>
 800507c:	2300      	movs	r3, #0
 800507e:	2b00      	cmp	r3, #0
 8005080:	d007      	beq.n	8005092 <HAL_TIM_PWM_Start+0xe6>
  {
    /* Enable the main output */
    __HAL_TIM_MOE_ENABLE(htim);
 8005082:	687b      	ldr	r3, [r7, #4]
 8005084:	681b      	ldr	r3, [r3, #0]
 8005086:	6c5a      	ldr	r2, [r3, #68]	@ 0x44
 8005088:	687b      	ldr	r3, [r7, #4]
 800508a:	681b      	ldr	r3, [r3, #0]
 800508c:	f442 4200 	orr.w	r2, r2, #32768	@ 0x8000
 8005090:	645a      	str	r2, [r3, #68]	@ 0x44
  }

  /* Enable the Peripheral, except in trigger mode where enable is automatically done with trigger */
  if (IS_TIM_SLAVE_INSTANCE(htim->Instance))
 8005092:	687b      	ldr	r3, [r7, #4]
 8005094:	681b      	ldr	r3, [r3, #0]
 8005096:	4a22      	ldr	r2, [pc, #136]	@ (8005120 <HAL_TIM_PWM_Start+0x174>)
 8005098:	4293      	cmp	r3, r2
 800509a:	d022      	beq.n	80050e2 <HAL_TIM_PWM_Start+0x136>
 800509c:	687b      	ldr	r3, [r7, #4]
 800509e:	681b      	ldr	r3, [r3, #0]
 80050a0:	f1b3 4f80 	cmp.w	r3, #1073741824	@ 0x40000000
 80050a4:	d01d      	beq.n	80050e2 <HAL_TIM_PWM_Start+0x136>
 80050a6:	687b      	ldr	r3, [r7, #4]
 80050a8:	681b      	ldr	r3, [r3, #0]
 80050aa:	4a1f      	ldr	r2, [pc, #124]	@ (8005128 <HAL_TIM_PWM_Start+0x17c>)
 80050ac:	4293      	cmp	r3, r2
 80050ae:	d018      	beq.n	80050e2 <HAL_TIM_PWM_Start+0x136>
 80050b0:	687b      	ldr	r3, [r7, #4]
 80050b2:	681b      	ldr	r3, [r3, #0]
 80050b4:	4a1d      	ldr	r2, [pc, #116]	@ (800512c <HAL_TIM_PWM_Start+0x180>)
 80050b6:	4293      	cmp	r3, r2
 80050b8:	d013      	beq.n	80050e2 <HAL_TIM_PWM_Start+0x136>
 80050ba:	687b      	ldr	r3, [r7, #4]
 80050bc:	681b      	ldr	r3, [r3, #0]
 80050be:	4a1c      	ldr	r2, [pc, #112]	@ (8005130 <HAL_TIM_PWM_Start+0x184>)
 80050c0:	4293      	cmp	r3, r2
 80050c2:	d00e      	beq.n	80050e2 <HAL_TIM_PWM_Start+0x136>
 80050c4:	687b      	ldr	r3, [r7, #4]
 80050c6:	681b      	ldr	r3, [r3, #0]
 80050c8:	4a16      	ldr	r2, [pc, #88]	@ (8005124 <HAL_TIM_PWM_Start+0x178>)
 80050ca:	4293      	cmp	r3, r2
 80050cc:	d009      	beq.n	80050e2 <HAL_TIM_PWM_Start+0x136>
 80050ce:	687b      	ldr	r3, [r7, #4]
 80050d0:	681b      	ldr	r3, [r3, #0]
 80050d2:	4a18      	ldr	r2, [pc, #96]	@ (8005134 <HAL_TIM_PWM_Start+0x188>)
 80050d4:	4293      	cmp	r3, r2
 80050d6:	d004      	beq.n	80050e2 <HAL_TIM_PWM_Start+0x136>
 80050d8:	687b      	ldr	r3, [r7, #4]
 80050da:	681b      	ldr	r3, [r3, #0]
 80050dc:	4a16      	ldr	r2, [pc, #88]	@ (8005138 <HAL_TIM_PWM_Start+0x18c>)
 80050de:	4293      	cmp	r3, r2
 80050e0:	d111      	bne.n	8005106 <HAL_TIM_PWM_Start+0x15a>
  {
    tmpsmcr = htim->Instance->SMCR & TIM_SMCR_SMS;
 80050e2:	687b      	ldr	r3, [r7, #4]
 80050e4:	681b      	ldr	r3, [r3, #0]
 80050e6:	689b      	ldr	r3, [r3, #8]
 80050e8:	f003 0307 	and.w	r3, r3, #7
 80050ec:	60fb      	str	r3, [r7, #12]
    if (!IS_TIM_SLAVEMODE_TRIGGER_ENABLED(tmpsmcr))
 80050ee:	68fb      	ldr	r3, [r7, #12]
 80050f0:	2b06      	cmp	r3, #6
 80050f2:	d010      	beq.n	8005116 <HAL_TIM_PWM_Start+0x16a>
    {
      __HAL_TIM_ENABLE(htim);
 80050f4:	687b      	ldr	r3, [r7, #4]
 80050f6:	681b      	ldr	r3, [r3, #0]
 80050f8:	681a      	ldr	r2, [r3, #0]
 80050fa:	687b      	ldr	r3, [r7, #4]
 80050fc:	681b      	ldr	r3, [r3, #0]
 80050fe:	f042 0201 	orr.w	r2, r2, #1
 8005102:	601a      	str	r2, [r3, #0]
    if (!IS_TIM_SLAVEMODE_TRIGGER_ENABLED(tmpsmcr))
 8005104:	e007      	b.n	8005116 <HAL_TIM_PWM_Start+0x16a>
    }
  }
  else
  {
    __HAL_TIM_ENABLE(htim);
 8005106:	687b      	ldr	r3, [r7, #4]
 8005108:	681b      	ldr	r3, [r3, #0]
 800510a:	681a      	ldr	r2, [r3, #0]
 800510c:	687b      	ldr	r3, [r7, #4]
 800510e:	681b      	ldr	r3, [r3, #0]
 8005110:	f042 0201 	orr.w	r2, r2, #1
 8005114:	601a      	str	r2, [r3, #0]
  }

  /* Return function status */
  return HAL_OK;
 8005116:	2300      	movs	r3, #0
}
 8005118:	4618      	mov	r0, r3
 800511a:	3710      	adds	r7, #16
 800511c:	46bd      	mov	sp, r7
 800511e:	bd80      	pop	{r7, pc}
 8005120:	40010000 	.word	0x40010000
 8005124:	40010400 	.word	0x40010400
 8005128:	40000400 	.word	0x40000400
 800512c:	40000800 	.word	0x40000800
 8005130:	40000c00 	.word	0x40000c00
 8005134:	40014000 	.word	0x40014000
 8005138:	40001800 	.word	0x40001800

0800513c <HAL_TIM_IRQHandler>:
  * @brief  This function handles TIM interrupts requests.
  * @param  htim TIM  handle
  * @retval None
  */
void HAL_TIM_IRQHandler(TIM_HandleTypeDef *htim)
{
 800513c:	b580      	push	{r7, lr}
 800513e:	b084      	sub	sp, #16
 8005140:	af00      	add	r7, sp, #0
 8005142:	6078      	str	r0, [r7, #4]
  uint32_t itsource = htim->Instance->DIER;
 8005144:	687b      	ldr	r3, [r7, #4]
 8005146:	681b      	ldr	r3, [r3, #0]
 8005148:	68db      	ldr	r3, [r3, #12]
 800514a:	60fb      	str	r3, [r7, #12]
  uint32_t itflag   = htim->Instance->SR;
 800514c:	687b      	ldr	r3, [r7, #4]
 800514e:	681b      	ldr	r3, [r3, #0]
 8005150:	691b      	ldr	r3, [r3, #16]
 8005152:	60bb      	str	r3, [r7, #8]

  /* Capture compare 1 event */
  if ((itflag & (TIM_FLAG_CC1)) == (TIM_FLAG_CC1))
 8005154:	68bb      	ldr	r3, [r7, #8]
 8005156:	f003 0302 	and.w	r3, r3, #2
 800515a:	2b00      	cmp	r3, #0
 800515c:	d020      	beq.n	80051a0 <HAL_TIM_IRQHandler+0x64>
  {
    if ((itsource & (TIM_IT_CC1)) == (TIM_IT_CC1))
 800515e:	68fb      	ldr	r3, [r7, #12]
 8005160:	f003 0302 	and.w	r3, r3, #2
 8005164:	2b00      	cmp	r3, #0
 8005166:	d01b      	beq.n	80051a0 <HAL_TIM_IRQHandler+0x64>
    {
      {
        __HAL_TIM_CLEAR_FLAG(htim, TIM_FLAG_CC1);
 8005168:	687b      	ldr	r3, [r7, #4]
 800516a:	681b      	ldr	r3, [r3, #0]
 800516c:	f06f 0202 	mvn.w	r2, #2
 8005170:	611a      	str	r2, [r3, #16]
        htim->Channel = HAL_TIM_ACTIVE_CHANNEL_1;
 8005172:	687b      	ldr	r3, [r7, #4]
 8005174:	2201      	movs	r2, #1
 8005176:	771a      	strb	r2, [r3, #28]

        /* Input capture event */
        if ((htim->Instance->CCMR1 & TIM_CCMR1_CC1S) != 0x00U)
 8005178:	687b      	ldr	r3, [r7, #4]
 800517a:	681b      	ldr	r3, [r3, #0]
 800517c:	699b      	ldr	r3, [r3, #24]
 800517e:	f003 0303 	and.w	r3, r3, #3
 8005182:	2b00      	cmp	r3, #0
 8005184:	d003      	beq.n	800518e <HAL_TIM_IRQHandler+0x52>
        {
#if (USE_HAL_TIM_REGISTER_CALLBACKS == 1)
          htim->IC_CaptureCallback(htim);
#else
          HAL_TIM_IC_CaptureCallback(htim);
 8005186:	6878      	ldr	r0, [r7, #4]
 8005188:	f000 fa5b 	bl	8005642 <HAL_TIM_IC_CaptureCallback>
 800518c:	e005      	b.n	800519a <HAL_TIM_IRQHandler+0x5e>
        {
#if (USE_HAL_TIM_REGISTER_CALLBACKS == 1)
          htim->OC_DelayElapsedCallback(htim);
          htim->PWM_PulseFinishedCallback(htim);
#else
          HAL_TIM_OC_DelayElapsedCallback(htim);
 800518e:	6878      	ldr	r0, [r7, #4]
 8005190:	f000 fa4d 	bl	800562e <HAL_TIM_OC_DelayElapsedCallback>
          HAL_TIM_PWM_PulseFinishedCallback(htim);
 8005194:	6878      	ldr	r0, [r7, #4]
 8005196:	f000 fa5e 	bl	8005656 <HAL_TIM_PWM_PulseFinishedCallback>
#endif /* USE_HAL_TIM_REGISTER_CALLBACKS */
        }
        htim->Channel = HAL_TIM_ACTIVE_CHANNEL_CLEARED;
 800519a:	687b      	ldr	r3, [r7, #4]
 800519c:	2200      	movs	r2, #0
 800519e:	771a      	strb	r2, [r3, #28]
      }
    }
  }
  /* Capture compare 2 event */
  if ((itflag & (TIM_FLAG_CC2)) == (TIM_FLAG_CC2))
 80051a0:	68bb      	ldr	r3, [r7, #8]
 80051a2:	f003 0304 	and.w	r3, r3, #4
 80051a6:	2b00      	cmp	r3, #0
 80051a8:	d020      	beq.n	80051ec <HAL_TIM_IRQHandler+0xb0>
  {
    if ((itsource & (TIM_IT_CC2)) == (TIM_IT_CC2))
 80051aa:	68fb      	ldr	r3, [r7, #12]
 80051ac:	f003 0304 	and.w	r3, r3, #4
 80051b0:	2b00      	cmp	r3, #0
 80051b2:	d01b      	beq.n	80051ec <HAL_TIM_IRQHandler+0xb0>
    {
      __HAL_TIM_CLEAR_FLAG(htim, TIM_FLAG_CC2);
 80051b4:	687b      	ldr	r3, [r7, #4]
 80051b6:	681b      	ldr	r3, [r3, #0]
 80051b8:	f06f 0204 	mvn.w	r2, #4
 80051bc:	611a      	str	r2, [r3, #16]
      htim->Channel = HAL_TIM_ACTIVE_CHANNEL_2;
 80051be:	687b      	ldr	r3, [r7, #4]
 80051c0:	2202      	movs	r2, #2
 80051c2:	771a      	strb	r2, [r3, #28]
      /* Input capture event */
      if ((htim->Instance->CCMR1 & TIM_CCMR1_CC2S) != 0x00U)
 80051c4:	687b      	ldr	r3, [r7, #4]
 80051c6:	681b      	ldr	r3, [r3, #0]
 80051c8:	699b      	ldr	r3, [r3, #24]
 80051ca:	f403 7340 	and.w	r3, r3, #768	@ 0x300
 80051ce:	2b00      	cmp	r3, #0
 80051d0:	d003      	beq.n	80051da <HAL_TIM_IRQHandler+0x9e>
      {
#if (USE_HAL_TIM_REGISTER_CALLBACKS == 1)
        htim->IC_CaptureCallback(htim);
#else
        HAL_TIM_IC_CaptureCallback(htim);
 80051d2:	6878      	ldr	r0, [r7, #4]
 80051d4:	f000 fa35 	bl	8005642 <HAL_TIM_IC_CaptureCallback>
 80051d8:	e005      	b.n	80051e6 <HAL_TIM_IRQHandler+0xaa>
      {
#if (USE_HAL_TIM_REGISTER_CALLBACKS == 1)
        htim->OC_DelayElapsedCallback(htim);
        htim->PWM_PulseFinishedCallback(htim);
#else
        HAL_TIM_OC_DelayElapsedCallback(htim);
 80051da:	6878      	ldr	r0, [r7, #4]
 80051dc:	f000 fa27 	bl	800562e <HAL_TIM_OC_DelayElapsedCallback>
        HAL_TIM_PWM_PulseFinishedCallback(htim);
 80051e0:	6878      	ldr	r0, [r7, #4]
 80051e2:	f000 fa38 	bl	8005656 <HAL_TIM_PWM_PulseFinishedCallback>
#endif /* USE_HAL_TIM_REGISTER_CALLBACKS */
      }
      htim->Channel = HAL_TIM_ACTIVE_CHANNEL_CLEARED;
 80051e6:	687b      	ldr	r3, [r7, #4]
 80051e8:	2200      	movs	r2, #0
 80051ea:	771a      	strb	r2, [r3, #28]
    }
  }
  /* Capture compare 3 event */
  if ((itflag & (TIM_FLAG_CC3)) == (TIM_FLAG_CC3))
 80051ec:	68bb      	ldr	r3, [r7, #8]
 80051ee:	f003 0308 	and.w	r3, r3, #8
 80051f2:	2b00      	cmp	r3, #0
 80051f4:	d020      	beq.n	8005238 <HAL_TIM_IRQHandler+0xfc>
  {
    if ((itsource & (TIM_IT_CC3)) == (TIM_IT_CC3))
 80051f6:	68fb      	ldr	r3, [r7, #12]
 80051f8:	f003 0308 	and.w	r3, r3, #8
 80051fc:	2b00      	cmp	r3, #0
 80051fe:	d01b      	beq.n	8005238 <HAL_TIM_IRQHandler+0xfc>
    {
      __HAL_TIM_CLEAR_FLAG(htim, TIM_FLAG_CC3);
 8005200:	687b      	ldr	r3, [r7, #4]
 8005202:	681b      	ldr	r3, [r3, #0]
 8005204:	f06f 0208 	mvn.w	r2, #8
 8005208:	611a      	str	r2, [r3, #16]
      htim->Channel = HAL_TIM_ACTIVE_CHANNEL_3;
 800520a:	687b      	ldr	r3, [r7, #4]
 800520c:	2204      	movs	r2, #4
 800520e:	771a      	strb	r2, [r3, #28]
      /* Input capture event */
      if ((htim->Instance->CCMR2 & TIM_CCMR2_CC3S) != 0x00U)
 8005210:	687b      	ldr	r3, [r7, #4]
 8005212:	681b      	ldr	r3, [r3, #0]
 8005214:	69db      	ldr	r3, [r3, #28]
 8005216:	f003 0303 	and.w	r3, r3, #3
 800521a:	2b00      	cmp	r3, #0
 800521c:	d003      	beq.n	8005226 <HAL_TIM_IRQHandler+0xea>
      {
#if (USE_HAL_TIM_REGISTER_CALLBACKS == 1)
        htim->IC_CaptureCallback(htim);
#else
        HAL_TIM_IC_CaptureCallback(htim);
 800521e:	6878      	ldr	r0, [r7, #4]
 8005220:	f000 fa0f 	bl	8005642 <HAL_TIM_IC_CaptureCallback>
 8005224:	e005      	b.n	8005232 <HAL_TIM_IRQHandler+0xf6>
      {
#if (USE_HAL_TIM_REGISTER_CALLBACKS == 1)
        htim->OC_DelayElapsedCallback(htim);
        htim->PWM_PulseFinishedCallback(htim);
#else
        HAL_TIM_OC_DelayElapsedCallback(htim);
 8005226:	6878      	ldr	r0, [r7, #4]
 8005228:	f000 fa01 	bl	800562e <HAL_TIM_OC_DelayElapsedCallback>
        HAL_TIM_PWM_PulseFinishedCallback(htim);
 800522c:	6878      	ldr	r0, [r7, #4]
 800522e:	f000 fa12 	bl	8005656 <HAL_TIM_PWM_PulseFinishedCallback>
#endif /* USE_HAL_TIM_REGISTER_CALLBACKS */
      }
      htim->Channel = HAL_TIM_ACTIVE_CHANNEL_CLEARED;
 8005232:	687b      	ldr	r3, [r7, #4]
 8005234:	2200      	movs	r2, #0
 8005236:	771a      	strb	r2, [r3, #28]
    }
  }
  /* Capture compare 4 event */
  if ((itflag & (TIM_FLAG_CC4)) == (TIM_FLAG_CC4))
 8005238:	68bb      	ldr	r3, [r7, #8]
 800523a:	f003 0310 	and.w	r3, r3, #16
 800523e:	2b00      	cmp	r3, #0
 8005240:	d020      	beq.n	8005284 <HAL_TIM_IRQHandler+0x148>
  {
    if ((itsource & (TIM_IT_CC4)) == (TIM_IT_CC4))
 8005242:	68fb      	ldr	r3, [r7, #12]
 8005244:	f003 0310 	and.w	r3, r3, #16
 8005248:	2b00      	cmp	r3, #0
 800524a:	d01b      	beq.n	8005284 <HAL_TIM_IRQHandler+0x148>
    {
      __HAL_TIM_CLEAR_FLAG(htim, TIM_FLAG_CC4);
 800524c:	687b      	ldr	r3, [r7, #4]
 800524e:	681b      	ldr	r3, [r3, #0]
 8005250:	f06f 0210 	mvn.w	r2, #16
 8005254:	611a      	str	r2, [r3, #16]
      htim->Channel = HAL_TIM_ACTIVE_CHANNEL_4;
 8005256:	687b      	ldr	r3, [r7, #4]
 8005258:	2208      	movs	r2, #8
 800525a:	771a      	strb	r2, [r3, #28]
      /* Input capture event */
      if ((htim->Instance->CCMR2 & TIM_CCMR2_CC4S) != 0x00U)
 800525c:	687b      	ldr	r3, [r7, #4]
 800525e:	681b      	ldr	r3, [r3, #0]
 8005260:	69db      	ldr	r3, [r3, #28]
 8005262:	f403 7340 	and.w	r3, r3, #768	@ 0x300
 8005266:	2b00      	cmp	r3, #0
 8005268:	d003      	beq.n	8005272 <HAL_TIM_IRQHandler+0x136>
      {
#if (USE_HAL_TIM_REGISTER_CALLBACKS == 1)
        htim->IC_CaptureCallback(htim);
#else
        HAL_TIM_IC_CaptureCallback(htim);
 800526a:	6878      	ldr	r0, [r7, #4]
 800526c:	f000 f9e9 	bl	8005642 <HAL_TIM_IC_CaptureCallback>
 8005270:	e005      	b.n	800527e <HAL_TIM_IRQHandler+0x142>
      {
#if (USE_HAL_TIM_REGISTER_CALLBACKS == 1)
        htim->OC_DelayElapsedCallback(htim);
        htim->PWM_PulseFinishedCallback(htim);
#else
        HAL_TIM_OC_DelayElapsedCallback(htim);
 8005272:	6878      	ldr	r0, [r7, #4]
 8005274:	f000 f9db 	bl	800562e <HAL_TIM_OC_DelayElapsedCallback>
        HAL_TIM_PWM_PulseFinishedCallback(htim);
 8005278:	6878      	ldr	r0, [r7, #4]
 800527a:	f000 f9ec 	bl	8005656 <HAL_TIM_PWM_PulseFinishedCallback>
#endif /* USE_HAL_TIM_REGISTER_CALLBACKS */
      }
      htim->Channel = HAL_TIM_ACTIVE_CHANNEL_CLEARED;
 800527e:	687b      	ldr	r3, [r7, #4]
 8005280:	2200      	movs	r2, #0
 8005282:	771a      	strb	r2, [r3, #28]
    }
  }
  /* TIM Update event */
  if ((itflag & (TIM_FLAG_UPDATE)) == (TIM_FLAG_UPDATE))
 8005284:	68bb      	ldr	r3, [r7, #8]
 8005286:	f003 0301 	and.w	r3, r3, #1
 800528a:	2b00      	cmp	r3, #0
 800528c:	d00c      	beq.n	80052a8 <HAL_TIM_IRQHandler+0x16c>
  {
    if ((itsource & (TIM_IT_UPDATE)) == (TIM_IT_UPDATE))
 800528e:	68fb      	ldr	r3, [r7, #12]
 8005290:	f003 0301 	and.w	r3, r3, #1
 8005294:	2b00      	cmp	r3, #0
 8005296:	d007      	beq.n	80052a8 <HAL_TIM_IRQHandler+0x16c>
    {
      __HAL_TIM_CLEAR_FLAG(htim, TIM_FLAG_UPDATE);
 8005298:	687b      	ldr	r3, [r7, #4]
 800529a:	681b      	ldr	r3, [r3, #0]
 800529c:	f06f 0201 	mvn.w	r2, #1
 80052a0:	611a      	str	r2, [r3, #16]
#if (USE_HAL_TIM_REGISTER_CALLBACKS == 1)
      htim->PeriodElapsedCallback(htim);
#else
      HAL_TIM_PeriodElapsedCallback(htim);
 80052a2:	6878      	ldr	r0, [r7, #4]
 80052a4:	f7fb ff7e 	bl	80011a4 <HAL_TIM_PeriodElapsedCallback>
#endif /* USE_HAL_TIM_REGISTER_CALLBACKS */
    }
  }
  /* TIM Break input event */
  if ((itflag & (TIM_FLAG_BREAK)) == (TIM_FLAG_BREAK))
 80052a8:	68bb      	ldr	r3, [r7, #8]
 80052aa:	f003 0380 	and.w	r3, r3, #128	@ 0x80
 80052ae:	2b00      	cmp	r3, #0
 80052b0:	d00c      	beq.n	80052cc <HAL_TIM_IRQHandler+0x190>
  {
    if ((itsource & (TIM_IT_BREAK)) == (TIM_IT_BREAK))
 80052b2:	68fb      	ldr	r3, [r7, #12]
 80052b4:	f003 0380 	and.w	r3, r3, #128	@ 0x80
 80052b8:	2b00      	cmp	r3, #0
 80052ba:	d007      	beq.n	80052cc <HAL_TIM_IRQHandler+0x190>
    {
      __HAL_TIM_CLEAR_FLAG(htim, TIM_FLAG_BREAK);
 80052bc:	687b      	ldr	r3, [r7, #4]
 80052be:	681b      	ldr	r3, [r3, #0]
 80052c0:	f06f 0280 	mvn.w	r2, #128	@ 0x80
 80052c4:	611a      	str	r2, [r3, #16]
#if (USE_HAL_TIM_REGISTER_CALLBACKS == 1)
      htim->BreakCallback(htim);
#else
      HAL_TIMEx_BreakCallback(htim);
 80052c6:	6878      	ldr	r0, [r7, #4]
 80052c8:	f000 fd76 	bl	8005db8 <HAL_TIMEx_BreakCallback>
#endif /* USE_HAL_TIM_REGISTER_CALLBACKS */
    }
  }
  /* TIM Trigger detection event */
  if ((itflag & (TIM_FLAG_TRIGGER)) == (TIM_FLAG_TRIGGER))
 80052cc:	68bb      	ldr	r3, [r7, #8]
 80052ce:	f003 0340 	and.w	r3, r3, #64	@ 0x40
 80052d2:	2b00      	cmp	r3, #0
 80052d4:	d00c      	beq.n	80052f0 <HAL_TIM_IRQHandler+0x1b4>
  {
    if ((itsource & (TIM_IT_TRIGGER)) == (TIM_IT_TRIGGER))
 80052d6:	68fb      	ldr	r3, [r7, #12]
 80052d8:	f003 0340 	and.w	r3, r3, #64	@ 0x40
 80052dc:	2b00      	cmp	r3, #0
 80052de:	d007      	beq.n	80052f0 <HAL_TIM_IRQHandler+0x1b4>
    {
      __HAL_TIM_CLEAR_FLAG(htim, TIM_FLAG_TRIGGER);
 80052e0:	687b      	ldr	r3, [r7, #4]
 80052e2:	681b      	ldr	r3, [r3, #0]
 80052e4:	f06f 0240 	mvn.w	r2, #64	@ 0x40
 80052e8:	611a      	str	r2, [r3, #16]
#if (USE_HAL_TIM_REGISTER_CALLBACKS == 1)
      htim->TriggerCallback(htim);
#else
      HAL_TIM_TriggerCallback(htim);
 80052ea:	6878      	ldr	r0, [r7, #4]
 80052ec:	f000 f9bd 	bl	800566a <HAL_TIM_TriggerCallback>
#endif /* USE_HAL_TIM_REGISTER_CALLBACKS */
    }
  }
  /* TIM commutation event */
  if ((itflag & (TIM_FLAG_COM)) == (TIM_FLAG_COM))
 80052f0:	68bb      	ldr	r3, [r7, #8]
 80052f2:	f003 0320 	and.w	r3, r3, #32
 80052f6:	2b00      	cmp	r3, #0
 80052f8:	d00c      	beq.n	8005314 <HAL_TIM_IRQHandler+0x1d8>
  {
    if ((itsource & (TIM_IT_COM)) == (TIM_IT_COM))
 80052fa:	68fb      	ldr	r3, [r7, #12]
 80052fc:	f003 0320 	and.w	r3, r3, #32
 8005300:	2b00      	cmp	r3, #0
 8005302:	d007      	beq.n	8005314 <HAL_TIM_IRQHandler+0x1d8>
    {
      __HAL_TIM_CLEAR_FLAG(htim, TIM_FLAG_COM);
 8005304:	687b      	ldr	r3, [r7, #4]
 8005306:	681b      	ldr	r3, [r3, #0]
 8005308:	f06f 0220 	mvn.w	r2, #32
 800530c:	611a      	str	r2, [r3, #16]
#if (USE_HAL_TIM_REGISTER_CALLBACKS == 1)
      htim->CommutationCallback(htim);
#else
      HAL_TIMEx_CommutCallback(htim);
 800530e:	6878      	ldr	r0, [r7, #4]
 8005310:	f000 fd48 	bl	8005da4 <HAL_TIMEx_CommutCallback>
#endif /* USE_HAL_TIM_REGISTER_CALLBACKS */
    }
  }
}
 8005314:	bf00      	nop
 8005316:	3710      	adds	r7, #16
 8005318:	46bd      	mov	sp, r7
 800531a:	bd80      	pop	{r7, pc}

0800531c <HAL_TIM_PWM_ConfigChannel>:
  * @retval HAL status
  */
HAL_StatusTypeDef HAL_TIM_PWM_ConfigChannel(TIM_HandleTypeDef *htim,
                                            const TIM_OC_InitTypeDef *sConfig,
                                            uint32_t Channel)
{
 800531c:	b580      	push	{r7, lr}
 800531e:	b086      	sub	sp, #24
 8005320:	af00      	add	r7, sp, #0
 8005322:	60f8      	str	r0, [r7, #12]
 8005324:	60b9      	str	r1, [r7, #8]
 8005326:	607a      	str	r2, [r7, #4]
  HAL_StatusTypeDef status = HAL_OK;
 8005328:	2300      	movs	r3, #0
 800532a:	75fb      	strb	r3, [r7, #23]
  assert_param(IS_TIM_PWM_MODE(sConfig->OCMode));
  assert_param(IS_TIM_OC_POLARITY(sConfig->OCPolarity));
  assert_param(IS_TIM_FAST_STATE(sConfig->OCFastMode));

  /* Process Locked */
  __HAL_LOCK(htim);
 800532c:	68fb      	ldr	r3, [r7, #12]
 800532e:	f893 303c 	ldrb.w	r3, [r3, #60]	@ 0x3c
 8005332:	2b01      	cmp	r3, #1
 8005334:	d101      	bne.n	800533a <HAL_TIM_PWM_ConfigChannel+0x1e>
 8005336:	2302      	movs	r3, #2
 8005338:	e0ae      	b.n	8005498 <HAL_TIM_PWM_ConfigChannel+0x17c>
 800533a:	68fb      	ldr	r3, [r7, #12]
 800533c:	2201      	movs	r2, #1
 800533e:	f883 203c 	strb.w	r2, [r3, #60]	@ 0x3c

  switch (Channel)
 8005342:	687b      	ldr	r3, [r7, #4]
 8005344:	2b0c      	cmp	r3, #12
 8005346:	f200 809f 	bhi.w	8005488 <HAL_TIM_PWM_ConfigChannel+0x16c>
 800534a:	a201      	add	r2, pc, #4	@ (adr r2, 8005350 <HAL_TIM_PWM_ConfigChannel+0x34>)
 800534c:	f852 f023 	ldr.w	pc, [r2, r3, lsl #2]
 8005350:	08005385 	.word	0x08005385
 8005354:	08005489 	.word	0x08005489
 8005358:	08005489 	.word	0x08005489
 800535c:	08005489 	.word	0x08005489
 8005360:	080053c5 	.word	0x080053c5
 8005364:	08005489 	.word	0x08005489
 8005368:	08005489 	.word	0x08005489
 800536c:	08005489 	.word	0x08005489
 8005370:	08005407 	.word	0x08005407
 8005374:	08005489 	.word	0x08005489
 8005378:	08005489 	.word	0x08005489
 800537c:	08005489 	.word	0x08005489
 8005380:	08005447 	.word	0x08005447
    {
      /* Check the parameters */
      assert_param(IS_TIM_CC1_INSTANCE(htim->Instance));

      /* Configure the Channel 1 in PWM mode */
      TIM_OC1_SetConfig(htim->Instance, sConfig);
 8005384:	68fb      	ldr	r3, [r7, #12]
 8005386:	681b      	ldr	r3, [r3, #0]
 8005388:	68b9      	ldr	r1, [r7, #8]
 800538a:	4618      	mov	r0, r3
 800538c:	f000 fa1e 	bl	80057cc <TIM_OC1_SetConfig>

      /* Set the Preload enable bit for channel1 */
      htim->Instance->CCMR1 |= TIM_CCMR1_OC1PE;
 8005390:	68fb      	ldr	r3, [r7, #12]
 8005392:	681b      	ldr	r3, [r3, #0]
 8005394:	699a      	ldr	r2, [r3, #24]
 8005396:	68fb      	ldr	r3, [r7, #12]
 8005398:	681b      	ldr	r3, [r3, #0]
 800539a:	f042 0208 	orr.w	r2, r2, #8
 800539e:	619a      	str	r2, [r3, #24]

      /* Configure the Output Fast mode */
      htim->Instance->CCMR1 &= ~TIM_CCMR1_OC1FE;
 80053a0:	68fb      	ldr	r3, [r7, #12]
 80053a2:	681b      	ldr	r3, [r3, #0]
 80053a4:	699a      	ldr	r2, [r3, #24]
 80053a6:	68fb      	ldr	r3, [r7, #12]
 80053a8:	681b      	ldr	r3, [r3, #0]
 80053aa:	f022 0204 	bic.w	r2, r2, #4
 80053ae:	619a      	str	r2, [r3, #24]
      htim->Instance->CCMR1 |= sConfig->OCFastMode;
 80053b0:	68fb      	ldr	r3, [r7, #12]
 80053b2:	681b      	ldr	r3, [r3, #0]
 80053b4:	6999      	ldr	r1, [r3, #24]
 80053b6:	68bb      	ldr	r3, [r7, #8]
 80053b8:	691a      	ldr	r2, [r3, #16]
 80053ba:	68fb      	ldr	r3, [r7, #12]
 80053bc:	681b      	ldr	r3, [r3, #0]
 80053be:	430a      	orrs	r2, r1
 80053c0:	619a      	str	r2, [r3, #24]
      break;
 80053c2:	e064      	b.n	800548e <HAL_TIM_PWM_ConfigChannel+0x172>
    {
      /* Check the parameters */
      assert_param(IS_TIM_CC2_INSTANCE(htim->Instance));

      /* Configure the Channel 2 in PWM mode */
      TIM_OC2_SetConfig(htim->Instance, sConfig);
 80053c4:	68fb      	ldr	r3, [r7, #12]
 80053c6:	681b      	ldr	r3, [r3, #0]
 80053c8:	68b9      	ldr	r1, [r7, #8]
 80053ca:	4618      	mov	r0, r3
 80053cc:	f000 fa6e 	bl	80058ac <TIM_OC2_SetConfig>

      /* Set the Preload enable bit for channel2 */
      htim->Instance->CCMR1 |= TIM_CCMR1_OC2PE;
 80053d0:	68fb      	ldr	r3, [r7, #12]
 80053d2:	681b      	ldr	r3, [r3, #0]
 80053d4:	699a      	ldr	r2, [r3, #24]
 80053d6:	68fb      	ldr	r3, [r7, #12]
 80053d8:	681b      	ldr	r3, [r3, #0]
 80053da:	f442 6200 	orr.w	r2, r2, #2048	@ 0x800
 80053de:	619a      	str	r2, [r3, #24]

      /* Configure the Output Fast mode */
      htim->Instance->CCMR1 &= ~TIM_CCMR1_OC2FE;
 80053e0:	68fb      	ldr	r3, [r7, #12]
 80053e2:	681b      	ldr	r3, [r3, #0]
 80053e4:	699a      	ldr	r2, [r3, #24]
 80053e6:	68fb      	ldr	r3, [r7, #12]
 80053e8:	681b      	ldr	r3, [r3, #0]
 80053ea:	f422 6280 	bic.w	r2, r2, #1024	@ 0x400
 80053ee:	619a      	str	r2, [r3, #24]
      htim->Instance->CCMR1 |= sConfig->OCFastMode << 8U;
 80053f0:	68fb      	ldr	r3, [r7, #12]
 80053f2:	681b      	ldr	r3, [r3, #0]
 80053f4:	6999      	ldr	r1, [r3, #24]
 80053f6:	68bb      	ldr	r3, [r7, #8]
 80053f8:	691b      	ldr	r3, [r3, #16]
 80053fa:	021a      	lsls	r2, r3, #8
 80053fc:	68fb      	ldr	r3, [r7, #12]
 80053fe:	681b      	ldr	r3, [r3, #0]
 8005400:	430a      	orrs	r2, r1
 8005402:	619a      	str	r2, [r3, #24]
      break;
 8005404:	e043      	b.n	800548e <HAL_TIM_PWM_ConfigChannel+0x172>
    {
      /* Check the parameters */
      assert_param(IS_TIM_CC3_INSTANCE(htim->Instance));

      /* Configure the Channel 3 in PWM mode */
      TIM_OC3_SetConfig(htim->Instance, sConfig);
 8005406:	68fb      	ldr	r3, [r7, #12]
 8005408:	681b      	ldr	r3, [r3, #0]
 800540a:	68b9      	ldr	r1, [r7, #8]
 800540c:	4618      	mov	r0, r3
 800540e:	f000 fac3 	bl	8005998 <TIM_OC3_SetConfig>

      /* Set the Preload enable bit for channel3 */
      htim->Instance->CCMR2 |= TIM_CCMR2_OC3PE;
 8005412:	68fb      	ldr	r3, [r7, #12]
 8005414:	681b      	ldr	r3, [r3, #0]
 8005416:	69da      	ldr	r2, [r3, #28]
 8005418:	68fb      	ldr	r3, [r7, #12]
 800541a:	681b      	ldr	r3, [r3, #0]
 800541c:	f042 0208 	orr.w	r2, r2, #8
 8005420:	61da      	str	r2, [r3, #28]

      /* Configure the Output Fast mode */
      htim->Instance->CCMR2 &= ~TIM_CCMR2_OC3FE;
 8005422:	68fb      	ldr	r3, [r7, #12]
 8005424:	681b      	ldr	r3, [r3, #0]
 8005426:	69da      	ldr	r2, [r3, #28]
 8005428:	68fb      	ldr	r3, [r7, #12]
 800542a:	681b      	ldr	r3, [r3, #0]
 800542c:	f022 0204 	bic.w	r2, r2, #4
 8005430:	61da      	str	r2, [r3, #28]
      htim->Instance->CCMR2 |= sConfig->OCFastMode;
 8005432:	68fb      	ldr	r3, [r7, #12]
 8005434:	681b      	ldr	r3, [r3, #0]
 8005436:	69d9      	ldr	r1, [r3, #28]
 8005438:	68bb      	ldr	r3, [r7, #8]
 800543a:	691a      	ldr	r2, [r3, #16]
 800543c:	68fb      	ldr	r3, [r7, #12]
 800543e:	681b      	ldr	r3, [r3, #0]
 8005440:	430a      	orrs	r2, r1
 8005442:	61da      	str	r2, [r3, #28]
      break;
 8005444:	e023      	b.n	800548e <HAL_TIM_PWM_ConfigChannel+0x172>
    {
      /* Check the parameters */
      assert_param(IS_TIM_CC4_INSTANCE(htim->Instance));

      /* Configure the Channel 4 in PWM mode */
      TIM_OC4_SetConfig(htim->Instance, sConfig);
 8005446:	68fb      	ldr	r3, [r7, #12]
 8005448:	681b      	ldr	r3, [r3, #0]
 800544a:	68b9      	ldr	r1, [r7, #8]
 800544c:	4618      	mov	r0, r3
 800544e:	f000 fb17 	bl	8005a80 <TIM_OC4_SetConfig>

      /* Set the Preload enable bit for channel4 */
      htim->Instance->CCMR2 |= TIM_CCMR2_OC4PE;
 8005452:	68fb      	ldr	r3, [r7, #12]
 8005454:	681b      	ldr	r3, [r3, #0]
 8005456:	69da      	ldr	r2, [r3, #28]
 8005458:	68fb      	ldr	r3, [r7, #12]
 800545a:	681b      	ldr	r3, [r3, #0]
 800545c:	f442 6200 	orr.w	r2, r2, #2048	@ 0x800
 8005460:	61da      	str	r2, [r3, #28]

      /* Configure the Output Fast mode */
      htim->Instance->CCMR2 &= ~TIM_CCMR2_OC4FE;
 8005462:	68fb      	ldr	r3, [r7, #12]
 8005464:	681b      	ldr	r3, [r3, #0]
 8005466:	69da      	ldr	r2, [r3, #28]
 8005468:	68fb      	ldr	r3, [r7, #12]
 800546a:	681b      	ldr	r3, [r3, #0]
 800546c:	f422 6280 	bic.w	r2, r2, #1024	@ 0x400
 8005470:	61da      	str	r2, [r3, #28]
      htim->Instance->CCMR2 |= sConfig->OCFastMode << 8U;
 8005472:	68fb      	ldr	r3, [r7, #12]
 8005474:	681b      	ldr	r3, [r3, #0]
 8005476:	69d9      	ldr	r1, [r3, #28]
 8005478:	68bb      	ldr	r3, [r7, #8]
 800547a:	691b      	ldr	r3, [r3, #16]
 800547c:	021a      	lsls	r2, r3, #8
 800547e:	68fb      	ldr	r3, [r7, #12]
 8005480:	681b      	ldr	r3, [r3, #0]
 8005482:	430a      	orrs	r2, r1
 8005484:	61da      	str	r2, [r3, #28]
      break;
 8005486:	e002      	b.n	800548e <HAL_TIM_PWM_ConfigChannel+0x172>
    }

    default:
      status = HAL_ERROR;
 8005488:	2301      	movs	r3, #1
 800548a:	75fb      	strb	r3, [r7, #23]
      break;
 800548c:	bf00      	nop
  }

  __HAL_UNLOCK(htim);
 800548e:	68fb      	ldr	r3, [r7, #12]
 8005490:	2200      	movs	r2, #0
 8005492:	f883 203c 	strb.w	r2, [r3, #60]	@ 0x3c

  return status;
 8005496:	7dfb      	ldrb	r3, [r7, #23]
}
 8005498:	4618      	mov	r0, r3
 800549a:	3718      	adds	r7, #24
 800549c:	46bd      	mov	sp, r7
 800549e:	bd80      	pop	{r7, pc}

080054a0 <HAL_TIM_ConfigClockSource>:
  * @param  sClockSourceConfig pointer to a TIM_ClockConfigTypeDef structure that
  *         contains the clock source information for the TIM peripheral.
  * @retval HAL status
  */
HAL_StatusTypeDef HAL_TIM_ConfigClockSource(TIM_HandleTypeDef *htim, const TIM_ClockConfigTypeDef *sClockSourceConfig)
{
 80054a0:	b580      	push	{r7, lr}
 80054a2:	b084      	sub	sp, #16
 80054a4:	af00      	add	r7, sp, #0
 80054a6:	6078      	str	r0, [r7, #4]
 80054a8:	6039      	str	r1, [r7, #0]
  HAL_StatusTypeDef status = HAL_OK;
 80054aa:	2300      	movs	r3, #0
 80054ac:	73fb      	strb	r3, [r7, #15]
  uint32_t tmpsmcr;

  /* Process Locked */
  __HAL_LOCK(htim);
 80054ae:	687b      	ldr	r3, [r7, #4]
 80054b0:	f893 303c 	ldrb.w	r3, [r3, #60]	@ 0x3c
 80054b4:	2b01      	cmp	r3, #1
 80054b6:	d101      	bne.n	80054bc <HAL_TIM_ConfigClockSource+0x1c>
 80054b8:	2302      	movs	r3, #2
 80054ba:	e0b4      	b.n	8005626 <HAL_TIM_ConfigClockSource+0x186>
 80054bc:	687b      	ldr	r3, [r7, #4]
 80054be:	2201      	movs	r2, #1
 80054c0:	f883 203c 	strb.w	r2, [r3, #60]	@ 0x3c

  htim->State = HAL_TIM_STATE_BUSY;
 80054c4:	687b      	ldr	r3, [r7, #4]
 80054c6:	2202      	movs	r2, #2
 80054c8:	f883 203d 	strb.w	r2, [r3, #61]	@ 0x3d

  /* Check the parameters */
  assert_param(IS_TIM_CLOCKSOURCE(sClockSourceConfig->ClockSource));

  /* Reset the SMS, TS, ECE, ETPS and ETRF bits */
  tmpsmcr = htim->Instance->SMCR;
 80054cc:	687b      	ldr	r3, [r7, #4]
 80054ce:	681b      	ldr	r3, [r3, #0]
 80054d0:	689b      	ldr	r3, [r3, #8]
 80054d2:	60bb      	str	r3, [r7, #8]
  tmpsmcr &= ~(TIM_SMCR_SMS | TIM_SMCR_TS);
 80054d4:	68bb      	ldr	r3, [r7, #8]
 80054d6:	f023 0377 	bic.w	r3, r3, #119	@ 0x77
 80054da:	60bb      	str	r3, [r7, #8]
  tmpsmcr &= ~(TIM_SMCR_ETF | TIM_SMCR_ETPS | TIM_SMCR_ECE | TIM_SMCR_ETP);
 80054dc:	68bb      	ldr	r3, [r7, #8]
 80054de:	f423 437f 	bic.w	r3, r3, #65280	@ 0xff00
 80054e2:	60bb      	str	r3, [r7, #8]
  htim->Instance->SMCR = tmpsmcr;
 80054e4:	687b      	ldr	r3, [r7, #4]
 80054e6:	681b      	ldr	r3, [r3, #0]
 80054e8:	68ba      	ldr	r2, [r7, #8]
 80054ea:	609a      	str	r2, [r3, #8]

  switch (sClockSourceConfig->ClockSource)
 80054ec:	683b      	ldr	r3, [r7, #0]
 80054ee:	681b      	ldr	r3, [r3, #0]
 80054f0:	f5b3 5f00 	cmp.w	r3, #8192	@ 0x2000
 80054f4:	d03e      	beq.n	8005574 <HAL_TIM_ConfigClockSource+0xd4>
 80054f6:	f5b3 5f00 	cmp.w	r3, #8192	@ 0x2000
 80054fa:	f200 8087 	bhi.w	800560c <HAL_TIM_ConfigClockSource+0x16c>
 80054fe:	f5b3 5f80 	cmp.w	r3, #4096	@ 0x1000
 8005502:	f000 8086 	beq.w	8005612 <HAL_TIM_ConfigClockSource+0x172>
 8005506:	f5b3 5f80 	cmp.w	r3, #4096	@ 0x1000
 800550a:	d87f      	bhi.n	800560c <HAL_TIM_ConfigClockSource+0x16c>
 800550c:	2b70      	cmp	r3, #112	@ 0x70
 800550e:	d01a      	beq.n	8005546 <HAL_TIM_ConfigClockSource+0xa6>
 8005510:	2b70      	cmp	r3, #112	@ 0x70
 8005512:	d87b      	bhi.n	800560c <HAL_TIM_ConfigClockSource+0x16c>
 8005514:	2b60      	cmp	r3, #96	@ 0x60
 8005516:	d050      	beq.n	80055ba <HAL_TIM_ConfigClockSource+0x11a>
 8005518:	2b60      	cmp	r3, #96	@ 0x60
 800551a:	d877      	bhi.n	800560c <HAL_TIM_ConfigClockSource+0x16c>
 800551c:	2b50      	cmp	r3, #80	@ 0x50
 800551e:	d03c      	beq.n	800559a <HAL_TIM_ConfigClockSource+0xfa>
 8005520:	2b50      	cmp	r3, #80	@ 0x50
 8005522:	d873      	bhi.n	800560c <HAL_TIM_ConfigClockSource+0x16c>
 8005524:	2b40      	cmp	r3, #64	@ 0x40
 8005526:	d058      	beq.n	80055da <HAL_TIM_ConfigClockSource+0x13a>
 8005528:	2b40      	cmp	r3, #64	@ 0x40
 800552a:	d86f      	bhi.n	800560c <HAL_TIM_ConfigClockSource+0x16c>
 800552c:	2b30      	cmp	r3, #48	@ 0x30
 800552e:	d064      	beq.n	80055fa <HAL_TIM_ConfigClockSource+0x15a>
 8005530:	2b30      	cmp	r3, #48	@ 0x30
 8005532:	d86b      	bhi.n	800560c <HAL_TIM_ConfigClockSource+0x16c>
 8005534:	2b20      	cmp	r3, #32
 8005536:	d060      	beq.n	80055fa <HAL_TIM_ConfigClockSource+0x15a>
 8005538:	2b20      	cmp	r3, #32
 800553a:	d867      	bhi.n	800560c <HAL_TIM_ConfigClockSource+0x16c>
 800553c:	2b00      	cmp	r3, #0
 800553e:	d05c      	beq.n	80055fa <HAL_TIM_ConfigClockSource+0x15a>
 8005540:	2b10      	cmp	r3, #16
 8005542:	d05a      	beq.n	80055fa <HAL_TIM_ConfigClockSource+0x15a>
 8005544:	e062      	b.n	800560c <HAL_TIM_ConfigClockSource+0x16c>
      assert_param(IS_TIM_CLOCKPRESCALER(sClockSourceConfig->ClockPrescaler));
      assert_param(IS_TIM_CLOCKPOLARITY(sClockSourceConfig->ClockPolarity));
      assert_param(IS_TIM_CLOCKFILTER(sClockSourceConfig->ClockFilter));

      /* Configure the ETR Clock source */
      TIM_ETR_SetConfig(htim->Instance,
 8005546:	687b      	ldr	r3, [r7, #4]
 8005548:	6818      	ldr	r0, [r3, #0]
                        sClockSourceConfig->ClockPrescaler,
 800554a:	683b      	ldr	r3, [r7, #0]
 800554c:	6899      	ldr	r1, [r3, #8]
                        sClockSourceConfig->ClockPolarity,
 800554e:	683b      	ldr	r3, [r7, #0]
 8005550:	685a      	ldr	r2, [r3, #4]
                        sClockSourceConfig->ClockFilter);
 8005552:	683b      	ldr	r3, [r7, #0]
 8005554:	68db      	ldr	r3, [r3, #12]
      TIM_ETR_SetConfig(htim->Instance,
 8005556:	f000 fb63 	bl	8005c20 <TIM_ETR_SetConfig>

      /* Select the External clock mode1 and the ETRF trigger */
      tmpsmcr = htim->Instance->SMCR;
 800555a:	687b      	ldr	r3, [r7, #4]
 800555c:	681b      	ldr	r3, [r3, #0]
 800555e:	689b      	ldr	r3, [r3, #8]
 8005560:	60bb      	str	r3, [r7, #8]
      tmpsmcr |= (TIM_SLAVEMODE_EXTERNAL1 | TIM_CLOCKSOURCE_ETRMODE1);
 8005562:	68bb      	ldr	r3, [r7, #8]
 8005564:	f043 0377 	orr.w	r3, r3, #119	@ 0x77
 8005568:	60bb      	str	r3, [r7, #8]
      /* Write to TIMx SMCR */
      htim->Instance->SMCR = tmpsmcr;
 800556a:	687b      	ldr	r3, [r7, #4]
 800556c:	681b      	ldr	r3, [r3, #0]
 800556e:	68ba      	ldr	r2, [r7, #8]
 8005570:	609a      	str	r2, [r3, #8]
      break;
 8005572:	e04f      	b.n	8005614 <HAL_TIM_ConfigClockSource+0x174>
      assert_param(IS_TIM_CLOCKPRESCALER(sClockSourceConfig->ClockPrescaler));
      assert_param(IS_TIM_CLOCKPOLARITY(sClockSourceConfig->ClockPolarity));
      assert_param(IS_TIM_CLOCKFILTER(sClockSourceConfig->ClockFilter));

      /* Configure the ETR Clock source */
      TIM_ETR_SetConfig(htim->Instance,
 8005574:	687b      	ldr	r3, [r7, #4]
 8005576:	6818      	ldr	r0, [r3, #0]
                        sClockSourceConfig->ClockPrescaler,
 8005578:	683b      	ldr	r3, [r7, #0]
 800557a:	6899      	ldr	r1, [r3, #8]
                        sClockSourceConfig->ClockPolarity,
 800557c:	683b      	ldr	r3, [r7, #0]
 800557e:	685a      	ldr	r2, [r3, #4]
                        sClockSourceConfig->ClockFilter);
 8005580:	683b      	ldr	r3, [r7, #0]
 8005582:	68db      	ldr	r3, [r3, #12]
      TIM_ETR_SetConfig(htim->Instance,
 8005584:	f000 fb4c 	bl	8005c20 <TIM_ETR_SetConfig>
      /* Enable the External clock mode2 */
      htim->Instance->SMCR |= TIM_SMCR_ECE;
 8005588:	687b      	ldr	r3, [r7, #4]
 800558a:	681b      	ldr	r3, [r3, #0]
 800558c:	689a      	ldr	r2, [r3, #8]
 800558e:	687b      	ldr	r3, [r7, #4]
 8005590:	681b      	ldr	r3, [r3, #0]
 8005592:	f442 4280 	orr.w	r2, r2, #16384	@ 0x4000
 8005596:	609a      	str	r2, [r3, #8]
      break;
 8005598:	e03c      	b.n	8005614 <HAL_TIM_ConfigClockSource+0x174>

      /* Check TI1 input conditioning related parameters */
      assert_param(IS_TIM_CLOCKPOLARITY(sClockSourceConfig->ClockPolarity));
      assert_param(IS_TIM_CLOCKFILTER(sClockSourceConfig->ClockFilter));

      TIM_TI1_ConfigInputStage(htim->Instance,
 800559a:	687b      	ldr	r3, [r7, #4]
 800559c:	6818      	ldr	r0, [r3, #0]
                               sClockSourceConfig->ClockPolarity,
 800559e:	683b      	ldr	r3, [r7, #0]
 80055a0:	6859      	ldr	r1, [r3, #4]
                               sClockSourceConfig->ClockFilter);
 80055a2:	683b      	ldr	r3, [r7, #0]
 80055a4:	68db      	ldr	r3, [r3, #12]
      TIM_TI1_ConfigInputStage(htim->Instance,
 80055a6:	461a      	mov	r2, r3
 80055a8:	f000 fac0 	bl	8005b2c <TIM_TI1_ConfigInputStage>
      TIM_ITRx_SetConfig(htim->Instance, TIM_CLOCKSOURCE_TI1);
 80055ac:	687b      	ldr	r3, [r7, #4]
 80055ae:	681b      	ldr	r3, [r3, #0]
 80055b0:	2150      	movs	r1, #80	@ 0x50
 80055b2:	4618      	mov	r0, r3
 80055b4:	f000 fb19 	bl	8005bea <TIM_ITRx_SetConfig>
      break;
 80055b8:	e02c      	b.n	8005614 <HAL_TIM_ConfigClockSource+0x174>

      /* Check TI2 input conditioning related parameters */
      assert_param(IS_TIM_CLOCKPOLARITY(sClockSourceConfig->ClockPolarity));
      assert_param(IS_TIM_CLOCKFILTER(sClockSourceConfig->ClockFilter));

      TIM_TI2_ConfigInputStage(htim->Instance,
 80055ba:	687b      	ldr	r3, [r7, #4]
 80055bc:	6818      	ldr	r0, [r3, #0]
                               sClockSourceConfig->ClockPolarity,
 80055be:	683b      	ldr	r3, [r7, #0]
 80055c0:	6859      	ldr	r1, [r3, #4]
                               sClockSourceConfig->ClockFilter);
 80055c2:	683b      	ldr	r3, [r7, #0]
 80055c4:	68db      	ldr	r3, [r3, #12]
      TIM_TI2_ConfigInputStage(htim->Instance,
 80055c6:	461a      	mov	r2, r3
 80055c8:	f000 fadf 	bl	8005b8a <TIM_TI2_ConfigInputStage>
      TIM_ITRx_SetConfig(htim->Instance, TIM_CLOCKSOURCE_TI2);
 80055cc:	687b      	ldr	r3, [r7, #4]
 80055ce:	681b      	ldr	r3, [r3, #0]
 80055d0:	2160      	movs	r1, #96	@ 0x60
 80055d2:	4618      	mov	r0, r3
 80055d4:	f000 fb09 	bl	8005bea <TIM_ITRx_SetConfig>
      break;
 80055d8:	e01c      	b.n	8005614 <HAL_TIM_ConfigClockSource+0x174>

      /* Check TI1 input conditioning related parameters */
      assert_param(IS_TIM_CLOCKPOLARITY(sClockSourceConfig->ClockPolarity));
      assert_param(IS_TIM_CLOCKFILTER(sClockSourceConfig->ClockFilter));

      TIM_TI1_ConfigInputStage(htim->Instance,
 80055da:	687b      	ldr	r3, [r7, #4]
 80055dc:	6818      	ldr	r0, [r3, #0]
                               sClockSourceConfig->ClockPolarity,
 80055de:	683b      	ldr	r3, [r7, #0]
 80055e0:	6859      	ldr	r1, [r3, #4]
                               sClockSourceConfig->ClockFilter);
 80055e2:	683b      	ldr	r3, [r7, #0]
 80055e4:	68db      	ldr	r3, [r3, #12]
      TIM_TI1_ConfigInputStage(htim->Instance,
 80055e6:	461a      	mov	r2, r3
 80055e8:	f000 faa0 	bl	8005b2c <TIM_TI1_ConfigInputStage>
      TIM_ITRx_SetConfig(htim->Instance, TIM_CLOCKSOURCE_TI1ED);
 80055ec:	687b      	ldr	r3, [r7, #4]
 80055ee:	681b      	ldr	r3, [r3, #0]
 80055f0:	2140      	movs	r1, #64	@ 0x40
 80055f2:	4618      	mov	r0, r3
 80055f4:	f000 faf9 	bl	8005bea <TIM_ITRx_SetConfig>
      break;
 80055f8:	e00c      	b.n	8005614 <HAL_TIM_ConfigClockSource+0x174>
    case TIM_CLOCKSOURCE_ITR3:
    {
      /* Check whether or not the timer instance supports internal trigger input */
      assert_param(IS_TIM_CLOCKSOURCE_ITRX_INSTANCE(htim->Instance));

      TIM_ITRx_SetConfig(htim->Instance, sClockSourceConfig->ClockSource);
 80055fa:	687b      	ldr	r3, [r7, #4]
 80055fc:	681a      	ldr	r2, [r3, #0]
 80055fe:	683b      	ldr	r3, [r7, #0]
 8005600:	681b      	ldr	r3, [r3, #0]
 8005602:	4619      	mov	r1, r3
 8005604:	4610      	mov	r0, r2
 8005606:	f000 faf0 	bl	8005bea <TIM_ITRx_SetConfig>
      break;
 800560a:	e003      	b.n	8005614 <HAL_TIM_ConfigClockSource+0x174>
    }

    default:
      status = HAL_ERROR;
 800560c:	2301      	movs	r3, #1
 800560e:	73fb      	strb	r3, [r7, #15]
      break;
 8005610:	e000      	b.n	8005614 <HAL_TIM_ConfigClockSource+0x174>
      break;
 8005612:	bf00      	nop
  }
  htim->State = HAL_TIM_STATE_READY;
 8005614:	687b      	ldr	r3, [r7, #4]
 8005616:	2201      	movs	r2, #1
 8005618:	f883 203d 	strb.w	r2, [r3, #61]	@ 0x3d

  __HAL_UNLOCK(htim);
 800561c:	687b      	ldr	r3, [r7, #4]
 800561e:	2200      	movs	r2, #0
 8005620:	f883 203c 	strb.w	r2, [r3, #60]	@ 0x3c

  return status;
 8005624:	7bfb      	ldrb	r3, [r7, #15]
}
 8005626:	4618      	mov	r0, r3
 8005628:	3710      	adds	r7, #16
 800562a:	46bd      	mov	sp, r7
 800562c:	bd80      	pop	{r7, pc}

0800562e <HAL_TIM_OC_DelayElapsedCallback>:
  * @brief  Output Compare callback in non-blocking mode
  * @param  htim TIM OC handle
  * @retval None
  */
__weak void HAL_TIM_OC_DelayElapsedCallback(TIM_HandleTypeDef *htim)
{
 800562e:	b480      	push	{r7}
 8005630:	b083      	sub	sp, #12
 8005632:	af00      	add	r7, sp, #0
 8005634:	6078      	str	r0, [r7, #4]
  UNUSED(htim);

  /* NOTE : This function should not be modified, when the callback is needed,
            the HAL_TIM_OC_DelayElapsedCallback could be implemented in the user file
   */
}
 8005636:	bf00      	nop
 8005638:	370c      	adds	r7, #12
 800563a:	46bd      	mov	sp, r7
 800563c:	f85d 7b04 	ldr.w	r7, [sp], #4
 8005640:	4770      	bx	lr

08005642 <HAL_TIM_IC_CaptureCallback>:
  * @brief  Input Capture callback in non-blocking mode
  * @param  htim TIM IC handle
  * @retval None
  */
__weak void HAL_TIM_IC_CaptureCallback(TIM_HandleTypeDef *htim)
{
 8005642:	b480      	push	{r7}
 8005644:	b083      	sub	sp, #12
 8005646:	af00      	add	r7, sp, #0
 8005648:	6078      	str	r0, [r7, #4]
  UNUSED(htim);

  /* NOTE : This function should not be modified, when the callback is needed,
            the HAL_TIM_IC_CaptureCallback could be implemented in the user file
   */
}
 800564a:	bf00      	nop
 800564c:	370c      	adds	r7, #12
 800564e:	46bd      	mov	sp, r7
 8005650:	f85d 7b04 	ldr.w	r7, [sp], #4
 8005654:	4770      	bx	lr

08005656 <HAL_TIM_PWM_PulseFinishedCallback>:
  * @brief  PWM Pulse finished callback in non-blocking mode
  * @param  htim TIM handle
  * @retval None
  */
__weak void HAL_TIM_PWM_PulseFinishedCallback(TIM_HandleTypeDef *htim)
{
 8005656:	b480      	push	{r7}
 8005658:	b083      	sub	sp, #12
 800565a:	af00      	add	r7, sp, #0
 800565c:	6078      	str	r0, [r7, #4]
  UNUSED(htim);

  /* NOTE : This function should not be modified, when the callback is needed,
            the HAL_TIM_PWM_PulseFinishedCallback could be implemented in the user file
   */
}
 800565e:	bf00      	nop
 8005660:	370c      	adds	r7, #12
 8005662:	46bd      	mov	sp, r7
 8005664:	f85d 7b04 	ldr.w	r7, [sp], #4
 8005668:	4770      	bx	lr

0800566a <HAL_TIM_TriggerCallback>:
  * @brief  Hall Trigger detection callback in non-blocking mode
  * @param  htim TIM handle
  * @retval None
  */
__weak void HAL_TIM_TriggerCallback(TIM_HandleTypeDef *htim)
{
 800566a:	b480      	push	{r7}
 800566c:	b083      	sub	sp, #12
 800566e:	af00      	add	r7, sp, #0
 8005670:	6078      	str	r0, [r7, #4]
  UNUSED(htim);

  /* NOTE : This function should not be modified, when the callback is needed,
            the HAL_TIM_TriggerCallback could be implemented in the user file
   */
}
 8005672:	bf00      	nop
 8005674:	370c      	adds	r7, #12
 8005676:	46bd      	mov	sp, r7
 8005678:	f85d 7b04 	ldr.w	r7, [sp], #4
 800567c:	4770      	bx	lr
	...

08005680 <TIM_Base_SetConfig>:
  * @param  TIMx TIM peripheral
  * @param  Structure TIM Base configuration structure
  * @retval None
  */
void TIM_Base_SetConfig(TIM_TypeDef *TIMx, const TIM_Base_InitTypeDef *Structure)
{
 8005680:	b480      	push	{r7}
 8005682:	b085      	sub	sp, #20
 8005684:	af00      	add	r7, sp, #0
 8005686:	6078      	str	r0, [r7, #4]
 8005688:	6039      	str	r1, [r7, #0]
  uint32_t tmpcr1;
  tmpcr1 = TIMx->CR1;
 800568a:	687b      	ldr	r3, [r7, #4]
 800568c:	681b      	ldr	r3, [r3, #0]
 800568e:	60fb      	str	r3, [r7, #12]

  /* Set TIM Time Base Unit parameters ---------------------------------------*/
  if (IS_TIM_COUNTER_MODE_SELECT_INSTANCE(TIMx))
 8005690:	687b      	ldr	r3, [r7, #4]
 8005692:	4a43      	ldr	r2, [pc, #268]	@ (80057a0 <TIM_Base_SetConfig+0x120>)
 8005694:	4293      	cmp	r3, r2
 8005696:	d013      	beq.n	80056c0 <TIM_Base_SetConfig+0x40>
 8005698:	687b      	ldr	r3, [r7, #4]
 800569a:	f1b3 4f80 	cmp.w	r3, #1073741824	@ 0x40000000
 800569e:	d00f      	beq.n	80056c0 <TIM_Base_SetConfig+0x40>
 80056a0:	687b      	ldr	r3, [r7, #4]
 80056a2:	4a40      	ldr	r2, [pc, #256]	@ (80057a4 <TIM_Base_SetConfig+0x124>)
 80056a4:	4293      	cmp	r3, r2
 80056a6:	d00b      	beq.n	80056c0 <TIM_Base_SetConfig+0x40>
 80056a8:	687b      	ldr	r3, [r7, #4]
 80056aa:	4a3f      	ldr	r2, [pc, #252]	@ (80057a8 <TIM_Base_SetConfig+0x128>)
 80056ac:	4293      	cmp	r3, r2
 80056ae:	d007      	beq.n	80056c0 <TIM_Base_SetConfig+0x40>
 80056b0:	687b      	ldr	r3, [r7, #4]
 80056b2:	4a3e      	ldr	r2, [pc, #248]	@ (80057ac <TIM_Base_SetConfig+0x12c>)
 80056b4:	4293      	cmp	r3, r2
 80056b6:	d003      	beq.n	80056c0 <TIM_Base_SetConfig+0x40>
 80056b8:	687b      	ldr	r3, [r7, #4]
 80056ba:	4a3d      	ldr	r2, [pc, #244]	@ (80057b0 <TIM_Base_SetConfig+0x130>)
 80056bc:	4293      	cmp	r3, r2
 80056be:	d108      	bne.n	80056d2 <TIM_Base_SetConfig+0x52>
  {
    /* Select the Counter Mode */
    tmpcr1 &= ~(TIM_CR1_DIR | TIM_CR1_CMS);
 80056c0:	68fb      	ldr	r3, [r7, #12]
 80056c2:	f023 0370 	bic.w	r3, r3, #112	@ 0x70
 80056c6:	60fb      	str	r3, [r7, #12]
    tmpcr1 |= Structure->CounterMode;
 80056c8:	683b      	ldr	r3, [r7, #0]
 80056ca:	685b      	ldr	r3, [r3, #4]
 80056cc:	68fa      	ldr	r2, [r7, #12]
 80056ce:	4313      	orrs	r3, r2
 80056d0:	60fb      	str	r3, [r7, #12]
  }

  if (IS_TIM_CLOCK_DIVISION_INSTANCE(TIMx))
 80056d2:	687b      	ldr	r3, [r7, #4]
 80056d4:	4a32      	ldr	r2, [pc, #200]	@ (80057a0 <TIM_Base_SetConfig+0x120>)
 80056d6:	4293      	cmp	r3, r2
 80056d8:	d02b      	beq.n	8005732 <TIM_Base_SetConfig+0xb2>
 80056da:	687b      	ldr	r3, [r7, #4]
 80056dc:	f1b3 4f80 	cmp.w	r3, #1073741824	@ 0x40000000
 80056e0:	d027      	beq.n	8005732 <TIM_Base_SetConfig+0xb2>
 80056e2:	687b      	ldr	r3, [r7, #4]
 80056e4:	4a2f      	ldr	r2, [pc, #188]	@ (80057a4 <TIM_Base_SetConfig+0x124>)
 80056e6:	4293      	cmp	r3, r2
 80056e8:	d023      	beq.n	8005732 <TIM_Base_SetConfig+0xb2>
 80056ea:	687b      	ldr	r3, [r7, #4]
 80056ec:	4a2e      	ldr	r2, [pc, #184]	@ (80057a8 <TIM_Base_SetConfig+0x128>)
 80056ee:	4293      	cmp	r3, r2
 80056f0:	d01f      	beq.n	8005732 <TIM_Base_SetConfig+0xb2>
 80056f2:	687b      	ldr	r3, [r7, #4]
 80056f4:	4a2d      	ldr	r2, [pc, #180]	@ (80057ac <TIM_Base_SetConfig+0x12c>)
 80056f6:	4293      	cmp	r3, r2
 80056f8:	d01b      	beq.n	8005732 <TIM_Base_SetConfig+0xb2>
 80056fa:	687b      	ldr	r3, [r7, #4]
 80056fc:	4a2c      	ldr	r2, [pc, #176]	@ (80057b0 <TIM_Base_SetConfig+0x130>)
 80056fe:	4293      	cmp	r3, r2
 8005700:	d017      	beq.n	8005732 <TIM_Base_SetConfig+0xb2>
 8005702:	687b      	ldr	r3, [r7, #4]
 8005704:	4a2b      	ldr	r2, [pc, #172]	@ (80057b4 <TIM_Base_SetConfig+0x134>)
 8005706:	4293      	cmp	r3, r2
 8005708:	d013      	beq.n	8005732 <TIM_Base_SetConfig+0xb2>
 800570a:	687b      	ldr	r3, [r7, #4]
 800570c:	4a2a      	ldr	r2, [pc, #168]	@ (80057b8 <TIM_Base_SetConfig+0x138>)
 800570e:	4293      	cmp	r3, r2
 8005710:	d00f      	beq.n	8005732 <TIM_Base_SetConfig+0xb2>
 8005712:	687b      	ldr	r3, [r7, #4]
 8005714:	4a29      	ldr	r2, [pc, #164]	@ (80057bc <TIM_Base_SetConfig+0x13c>)
 8005716:	4293      	cmp	r3, r2
 8005718:	d00b      	beq.n	8005732 <TIM_Base_SetConfig+0xb2>
 800571a:	687b      	ldr	r3, [r7, #4]
 800571c:	4a28      	ldr	r2, [pc, #160]	@ (80057c0 <TIM_Base_SetConfig+0x140>)
 800571e:	4293      	cmp	r3, r2
 8005720:	d007      	beq.n	8005732 <TIM_Base_SetConfig+0xb2>
 8005722:	687b      	ldr	r3, [r7, #4]
 8005724:	4a27      	ldr	r2, [pc, #156]	@ (80057c4 <TIM_Base_SetConfig+0x144>)
 8005726:	4293      	cmp	r3, r2
 8005728:	d003      	beq.n	8005732 <TIM_Base_SetConfig+0xb2>
 800572a:	687b      	ldr	r3, [r7, #4]
 800572c:	4a26      	ldr	r2, [pc, #152]	@ (80057c8 <TIM_Base_SetConfig+0x148>)
 800572e:	4293      	cmp	r3, r2
 8005730:	d108      	bne.n	8005744 <TIM_Base_SetConfig+0xc4>
  {
    /* Set the clock division */
    tmpcr1 &= ~TIM_CR1_CKD;
 8005732:	68fb      	ldr	r3, [r7, #12]
 8005734:	f423 7340 	bic.w	r3, r3, #768	@ 0x300
 8005738:	60fb      	str	r3, [r7, #12]
    tmpcr1 |= (uint32_t)Structure->ClockDivision;
 800573a:	683b      	ldr	r3, [r7, #0]
 800573c:	68db      	ldr	r3, [r3, #12]
 800573e:	68fa      	ldr	r2, [r7, #12]
 8005740:	4313      	orrs	r3, r2
 8005742:	60fb      	str	r3, [r7, #12]
  }

  /* Set the auto-reload preload */
  MODIFY_REG(tmpcr1, TIM_CR1_ARPE, Structure->AutoReloadPreload);
 8005744:	68fb      	ldr	r3, [r7, #12]
 8005746:	f023 0280 	bic.w	r2, r3, #128	@ 0x80
 800574a:	683b      	ldr	r3, [r7, #0]
 800574c:	695b      	ldr	r3, [r3, #20]
 800574e:	4313      	orrs	r3, r2
 8005750:	60fb      	str	r3, [r7, #12]

  /* Set the Autoreload value */
  TIMx->ARR = (uint32_t)Structure->Period ;
 8005752:	683b      	ldr	r3, [r7, #0]
 8005754:	689a      	ldr	r2, [r3, #8]
 8005756:	687b      	ldr	r3, [r7, #4]
 8005758:	62da      	str	r2, [r3, #44]	@ 0x2c

  /* Set the Prescaler value */
  TIMx->PSC = Structure->Prescaler;
 800575a:	683b      	ldr	r3, [r7, #0]
 800575c:	681a      	ldr	r2, [r3, #0]
 800575e:	687b      	ldr	r3, [r7, #4]
 8005760:	629a      	str	r2, [r3, #40]	@ 0x28

  if (IS_TIM_REPETITION_COUNTER_INSTANCE(TIMx))
 8005762:	687b      	ldr	r3, [r7, #4]
 8005764:	4a0e      	ldr	r2, [pc, #56]	@ (80057a0 <TIM_Base_SetConfig+0x120>)
 8005766:	4293      	cmp	r3, r2
 8005768:	d003      	beq.n	8005772 <TIM_Base_SetConfig+0xf2>
 800576a:	687b      	ldr	r3, [r7, #4]
 800576c:	4a10      	ldr	r2, [pc, #64]	@ (80057b0 <TIM_Base_SetConfig+0x130>)
 800576e:	4293      	cmp	r3, r2
 8005770:	d103      	bne.n	800577a <TIM_Base_SetConfig+0xfa>
  {
    /* Set the Repetition Counter value */
    TIMx->RCR = Structure->RepetitionCounter;
 8005772:	683b      	ldr	r3, [r7, #0]
 8005774:	691a      	ldr	r2, [r3, #16]
 8005776:	687b      	ldr	r3, [r7, #4]
 8005778:	631a      	str	r2, [r3, #48]	@ 0x30
  }

  /* Disable Update Event (UEV) with Update Generation (UG)
     by changing Update Request Source (URS) to avoid Update flag (UIF) */
  SET_BIT(TIMx->CR1, TIM_CR1_URS);
 800577a:	687b      	ldr	r3, [r7, #4]
 800577c:	681b      	ldr	r3, [r3, #0]
 800577e:	f043 0204 	orr.w	r2, r3, #4
 8005782:	687b      	ldr	r3, [r7, #4]
 8005784:	601a      	str	r2, [r3, #0]

  /* Generate an update event to reload the Prescaler
     and the repetition counter (only for advanced timer) value immediately */
  TIMx->EGR = TIM_EGR_UG;
 8005786:	687b      	ldr	r3, [r7, #4]
 8005788:	2201      	movs	r2, #1
 800578a:	615a      	str	r2, [r3, #20]

  TIMx->CR1 = tmpcr1;
 800578c:	687b      	ldr	r3, [r7, #4]
 800578e:	68fa      	ldr	r2, [r7, #12]
 8005790:	601a      	str	r2, [r3, #0]
}
 8005792:	bf00      	nop
 8005794:	3714      	adds	r7, #20
 8005796:	46bd      	mov	sp, r7
 8005798:	f85d 7b04 	ldr.w	r7, [sp], #4
 800579c:	4770      	bx	lr
 800579e:	bf00      	nop
 80057a0:	40010000 	.word	0x40010000
 80057a4:	40000400 	.word	0x40000400
 80057a8:	40000800 	.word	0x40000800
 80057ac:	40000c00 	.word	0x40000c00
 80057b0:	40010400 	.word	0x40010400
 80057b4:	40014000 	.word	0x40014000
 80057b8:	40014400 	.word	0x40014400
 80057bc:	40014800 	.word	0x40014800
 80057c0:	40001800 	.word	0x40001800
 80057c4:	40001c00 	.word	0x40001c00
 80057c8:	40002000 	.word	0x40002000

080057cc <TIM_OC1_SetConfig>:
  * @param  TIMx to select the TIM peripheral
  * @param  OC_Config The output configuration structure
  * @retval None
  */
static void TIM_OC1_SetConfig(TIM_TypeDef *TIMx, const TIM_OC_InitTypeDef *OC_Config)
{
 80057cc:	b480      	push	{r7}
 80057ce:	b087      	sub	sp, #28
 80057d0:	af00      	add	r7, sp, #0
 80057d2:	6078      	str	r0, [r7, #4]
 80057d4:	6039      	str	r1, [r7, #0]
  uint32_t tmpccmrx;
  uint32_t tmpccer;
  uint32_t tmpcr2;

  /* Get the TIMx CCER register value */
  tmpccer = TIMx->CCER;
 80057d6:	687b      	ldr	r3, [r7, #4]
 80057d8:	6a1b      	ldr	r3, [r3, #32]
 80057da:	617b      	str	r3, [r7, #20]

  /* Disable the Channel 1: Reset the CC1E Bit */
  TIMx->CCER &= ~TIM_CCER_CC1E;
 80057dc:	687b      	ldr	r3, [r7, #4]
 80057de:	6a1b      	ldr	r3, [r3, #32]
 80057e0:	f023 0201 	bic.w	r2, r3, #1
 80057e4:	687b      	ldr	r3, [r7, #4]
 80057e6:	621a      	str	r2, [r3, #32]

  /* Get the TIMx CR2 register value */
  tmpcr2 =  TIMx->CR2;
 80057e8:	687b      	ldr	r3, [r7, #4]
 80057ea:	685b      	ldr	r3, [r3, #4]
 80057ec:	613b      	str	r3, [r7, #16]

  /* Get the TIMx CCMR1 register value */
  tmpccmrx = TIMx->CCMR1;
 80057ee:	687b      	ldr	r3, [r7, #4]
 80057f0:	699b      	ldr	r3, [r3, #24]
 80057f2:	60fb      	str	r3, [r7, #12]

  /* Reset the Output Compare Mode Bits */
  tmpccmrx &= ~TIM_CCMR1_OC1M;
 80057f4:	68fb      	ldr	r3, [r7, #12]
 80057f6:	f023 0370 	bic.w	r3, r3, #112	@ 0x70
 80057fa:	60fb      	str	r3, [r7, #12]
  tmpccmrx &= ~TIM_CCMR1_CC1S;
 80057fc:	68fb      	ldr	r3, [r7, #12]
 80057fe:	f023 0303 	bic.w	r3, r3, #3
 8005802:	60fb      	str	r3, [r7, #12]
  /* Select the Output Compare Mode */
  tmpccmrx |= OC_Config->OCMode;
 8005804:	683b      	ldr	r3, [r7, #0]
 8005806:	681b      	ldr	r3, [r3, #0]
 8005808:	68fa      	ldr	r2, [r7, #12]
 800580a:	4313      	orrs	r3, r2
 800580c:	60fb      	str	r3, [r7, #12]

  /* Reset the Output Polarity level */
  tmpccer &= ~TIM_CCER_CC1P;
 800580e:	697b      	ldr	r3, [r7, #20]
 8005810:	f023 0302 	bic.w	r3, r3, #2
 8005814:	617b      	str	r3, [r7, #20]
  /* Set the Output Compare Polarity */
  tmpccer |= OC_Config->OCPolarity;
 8005816:	683b      	ldr	r3, [r7, #0]
 8005818:	689b      	ldr	r3, [r3, #8]
 800581a:	697a      	ldr	r2, [r7, #20]
 800581c:	4313      	orrs	r3, r2
 800581e:	617b      	str	r3, [r7, #20]

  if (IS_TIM_CCXN_INSTANCE(TIMx, TIM_CHANNEL_1))
 8005820:	687b      	ldr	r3, [r7, #4]
 8005822:	4a20      	ldr	r2, [pc, #128]	@ (80058a4 <TIM_OC1_SetConfig+0xd8>)
 8005824:	4293      	cmp	r3, r2
 8005826:	d003      	beq.n	8005830 <TIM_OC1_SetConfig+0x64>
 8005828:	687b      	ldr	r3, [r7, #4]
 800582a:	4a1f      	ldr	r2, [pc, #124]	@ (80058a8 <TIM_OC1_SetConfig+0xdc>)
 800582c:	4293      	cmp	r3, r2
 800582e:	d10c      	bne.n	800584a <TIM_OC1_SetConfig+0x7e>
  {
    /* Check parameters */
    assert_param(IS_TIM_OCN_POLARITY(OC_Config->OCNPolarity));

    /* Reset the Output N Polarity level */
    tmpccer &= ~TIM_CCER_CC1NP;
 8005830:	697b      	ldr	r3, [r7, #20]
 8005832:	f023 0308 	bic.w	r3, r3, #8
 8005836:	617b      	str	r3, [r7, #20]
    /* Set the Output N Polarity */
    tmpccer |= OC_Config->OCNPolarity;
 8005838:	683b      	ldr	r3, [r7, #0]
 800583a:	68db      	ldr	r3, [r3, #12]
 800583c:	697a      	ldr	r2, [r7, #20]
 800583e:	4313      	orrs	r3, r2
 8005840:	617b      	str	r3, [r7, #20]
    /* Reset the Output N State */
    tmpccer &= ~TIM_CCER_CC1NE;
 8005842:	697b      	ldr	r3, [r7, #20]
 8005844:	f023 0304 	bic.w	r3, r3, #4
 8005848:	617b      	str	r3, [r7, #20]
  }

  if (IS_TIM_BREAK_INSTANCE(TIMx))
 800584a:	687b      	ldr	r3, [r7, #4]
 800584c:	4a15      	ldr	r2, [pc, #84]	@ (80058a4 <TIM_OC1_SetConfig+0xd8>)
 800584e:	4293      	cmp	r3, r2
 8005850:	d003      	beq.n	800585a <TIM_OC1_SetConfig+0x8e>
 8005852:	687b      	ldr	r3, [r7, #4]
 8005854:	4a14      	ldr	r2, [pc, #80]	@ (80058a8 <TIM_OC1_SetConfig+0xdc>)
 8005856:	4293      	cmp	r3, r2
 8005858:	d111      	bne.n	800587e <TIM_OC1_SetConfig+0xb2>
    /* Check parameters */
    assert_param(IS_TIM_OCNIDLE_STATE(OC_Config->OCNIdleState));
    assert_param(IS_TIM_OCIDLE_STATE(OC_Config->OCIdleState));

    /* Reset the Output Compare and Output Compare N IDLE State */
    tmpcr2 &= ~TIM_CR2_OIS1;
 800585a:	693b      	ldr	r3, [r7, #16]
 800585c:	f423 7380 	bic.w	r3, r3, #256	@ 0x100
 8005860:	613b      	str	r3, [r7, #16]
    tmpcr2 &= ~TIM_CR2_OIS1N;
 8005862:	693b      	ldr	r3, [r7, #16]
 8005864:	f423 7300 	bic.w	r3, r3, #512	@ 0x200
 8005868:	613b      	str	r3, [r7, #16]
    /* Set the Output Idle state */
    tmpcr2 |= OC_Config->OCIdleState;
 800586a:	683b      	ldr	r3, [r7, #0]
 800586c:	695b      	ldr	r3, [r3, #20]
 800586e:	693a      	ldr	r2, [r7, #16]
 8005870:	4313      	orrs	r3, r2
 8005872:	613b      	str	r3, [r7, #16]
    /* Set the Output N Idle state */
    tmpcr2 |= OC_Config->OCNIdleState;
 8005874:	683b      	ldr	r3, [r7, #0]
 8005876:	699b      	ldr	r3, [r3, #24]
 8005878:	693a      	ldr	r2, [r7, #16]
 800587a:	4313      	orrs	r3, r2
 800587c:	613b      	str	r3, [r7, #16]
  }

  /* Write to TIMx CR2 */
  TIMx->CR2 = tmpcr2;
 800587e:	687b      	ldr	r3, [r7, #4]
 8005880:	693a      	ldr	r2, [r7, #16]
 8005882:	605a      	str	r2, [r3, #4]

  /* Write to TIMx CCMR1 */
  TIMx->CCMR1 = tmpccmrx;
 8005884:	687b      	ldr	r3, [r7, #4]
 8005886:	68fa      	ldr	r2, [r7, #12]
 8005888:	619a      	str	r2, [r3, #24]

  /* Set the Capture Compare Register value */
  TIMx->CCR1 = OC_Config->Pulse;
 800588a:	683b      	ldr	r3, [r7, #0]
 800588c:	685a      	ldr	r2, [r3, #4]
 800588e:	687b      	ldr	r3, [r7, #4]
 8005890:	635a      	str	r2, [r3, #52]	@ 0x34

  /* Write to TIMx CCER */
  TIMx->CCER = tmpccer;
 8005892:	687b      	ldr	r3, [r7, #4]
 8005894:	697a      	ldr	r2, [r7, #20]
 8005896:	621a      	str	r2, [r3, #32]
}
 8005898:	bf00      	nop
 800589a:	371c      	adds	r7, #28
 800589c:	46bd      	mov	sp, r7
 800589e:	f85d 7b04 	ldr.w	r7, [sp], #4
 80058a2:	4770      	bx	lr
 80058a4:	40010000 	.word	0x40010000
 80058a8:	40010400 	.word	0x40010400

080058ac <TIM_OC2_SetConfig>:
  * @param  TIMx to select the TIM peripheral
  * @param  OC_Config The output configuration structure
  * @retval None
  */
void TIM_OC2_SetConfig(TIM_TypeDef *TIMx, const TIM_OC_InitTypeDef *OC_Config)
{
 80058ac:	b480      	push	{r7}
 80058ae:	b087      	sub	sp, #28
 80058b0:	af00      	add	r7, sp, #0
 80058b2:	6078      	str	r0, [r7, #4]
 80058b4:	6039      	str	r1, [r7, #0]
  uint32_t tmpccmrx;
  uint32_t tmpccer;
  uint32_t tmpcr2;

  /* Get the TIMx CCER register value */
  tmpccer = TIMx->CCER;
 80058b6:	687b      	ldr	r3, [r7, #4]
 80058b8:	6a1b      	ldr	r3, [r3, #32]
 80058ba:	617b      	str	r3, [r7, #20]

  /* Disable the Channel 2: Reset the CC2E Bit */
  TIMx->CCER &= ~TIM_CCER_CC2E;
 80058bc:	687b      	ldr	r3, [r7, #4]
 80058be:	6a1b      	ldr	r3, [r3, #32]
 80058c0:	f023 0210 	bic.w	r2, r3, #16
 80058c4:	687b      	ldr	r3, [r7, #4]
 80058c6:	621a      	str	r2, [r3, #32]

  /* Get the TIMx CR2 register value */
  tmpcr2 =  TIMx->CR2;
 80058c8:	687b      	ldr	r3, [r7, #4]
 80058ca:	685b      	ldr	r3, [r3, #4]
 80058cc:	613b      	str	r3, [r7, #16]

  /* Get the TIMx CCMR1 register value */
  tmpccmrx = TIMx->CCMR1;
 80058ce:	687b      	ldr	r3, [r7, #4]
 80058d0:	699b      	ldr	r3, [r3, #24]
 80058d2:	60fb      	str	r3, [r7, #12]

  /* Reset the Output Compare mode and Capture/Compare selection Bits */
  tmpccmrx &= ~TIM_CCMR1_OC2M;
 80058d4:	68fb      	ldr	r3, [r7, #12]
 80058d6:	f423 43e0 	bic.w	r3, r3, #28672	@ 0x7000
 80058da:	60fb      	str	r3, [r7, #12]
  tmpccmrx &= ~TIM_CCMR1_CC2S;
 80058dc:	68fb      	ldr	r3, [r7, #12]
 80058de:	f423 7340 	bic.w	r3, r3, #768	@ 0x300
 80058e2:	60fb      	str	r3, [r7, #12]

  /* Select the Output Compare Mode */
  tmpccmrx |= (OC_Config->OCMode << 8U);
 80058e4:	683b      	ldr	r3, [r7, #0]
 80058e6:	681b      	ldr	r3, [r3, #0]
 80058e8:	021b      	lsls	r3, r3, #8
 80058ea:	68fa      	ldr	r2, [r7, #12]
 80058ec:	4313      	orrs	r3, r2
 80058ee:	60fb      	str	r3, [r7, #12]

  /* Reset the Output Polarity level */
  tmpccer &= ~TIM_CCER_CC2P;
 80058f0:	697b      	ldr	r3, [r7, #20]
 80058f2:	f023 0320 	bic.w	r3, r3, #32
 80058f6:	617b      	str	r3, [r7, #20]
  /* Set the Output Compare Polarity */
  tmpccer |= (OC_Config->OCPolarity << 4U);
 80058f8:	683b      	ldr	r3, [r7, #0]
 80058fa:	689b      	ldr	r3, [r3, #8]
 80058fc:	011b      	lsls	r3, r3, #4
 80058fe:	697a      	ldr	r2, [r7, #20]
 8005900:	4313      	orrs	r3, r2
 8005902:	617b      	str	r3, [r7, #20]

  if (IS_TIM_CCXN_INSTANCE(TIMx, TIM_CHANNEL_2))
 8005904:	687b      	ldr	r3, [r7, #4]
 8005906:	4a22      	ldr	r2, [pc, #136]	@ (8005990 <TIM_OC2_SetConfig+0xe4>)
 8005908:	4293      	cmp	r3, r2
 800590a:	d003      	beq.n	8005914 <TIM_OC2_SetConfig+0x68>
 800590c:	687b      	ldr	r3, [r7, #4]
 800590e:	4a21      	ldr	r2, [pc, #132]	@ (8005994 <TIM_OC2_SetConfig+0xe8>)
 8005910:	4293      	cmp	r3, r2
 8005912:	d10d      	bne.n	8005930 <TIM_OC2_SetConfig+0x84>
  {
    assert_param(IS_TIM_OCN_POLARITY(OC_Config->OCNPolarity));

    /* Reset the Output N Polarity level */
    tmpccer &= ~TIM_CCER_CC2NP;
 8005914:	697b      	ldr	r3, [r7, #20]
 8005916:	f023 0380 	bic.w	r3, r3, #128	@ 0x80
 800591a:	617b      	str	r3, [r7, #20]
    /* Set the Output N Polarity */
    tmpccer |= (OC_Config->OCNPolarity << 4U);
 800591c:	683b      	ldr	r3, [r7, #0]
 800591e:	68db      	ldr	r3, [r3, #12]
 8005920:	011b      	lsls	r3, r3, #4
 8005922:	697a      	ldr	r2, [r7, #20]
 8005924:	4313      	orrs	r3, r2
 8005926:	617b      	str	r3, [r7, #20]
    /* Reset the Output N State */
    tmpccer &= ~TIM_CCER_CC2NE;
 8005928:	697b      	ldr	r3, [r7, #20]
 800592a:	f023 0340 	bic.w	r3, r3, #64	@ 0x40
 800592e:	617b      	str	r3, [r7, #20]
  }

  if (IS_TIM_BREAK_INSTANCE(TIMx))
 8005930:	687b      	ldr	r3, [r7, #4]
 8005932:	4a17      	ldr	r2, [pc, #92]	@ (8005990 <TIM_OC2_SetConfig+0xe4>)
 8005934:	4293      	cmp	r3, r2
 8005936:	d003      	beq.n	8005940 <TIM_OC2_SetConfig+0x94>
 8005938:	687b      	ldr	r3, [r7, #4]
 800593a:	4a16      	ldr	r2, [pc, #88]	@ (8005994 <TIM_OC2_SetConfig+0xe8>)
 800593c:	4293      	cmp	r3, r2
 800593e:	d113      	bne.n	8005968 <TIM_OC2_SetConfig+0xbc>
    /* Check parameters */
    assert_param(IS_TIM_OCNIDLE_STATE(OC_Config->OCNIdleState));
    assert_param(IS_TIM_OCIDLE_STATE(OC_Config->OCIdleState));

    /* Reset the Output Compare and Output Compare N IDLE State */
    tmpcr2 &= ~TIM_CR2_OIS2;
 8005940:	693b      	ldr	r3, [r7, #16]
 8005942:	f423 6380 	bic.w	r3, r3, #1024	@ 0x400
 8005946:	613b      	str	r3, [r7, #16]
    tmpcr2 &= ~TIM_CR2_OIS2N;
 8005948:	693b      	ldr	r3, [r7, #16]
 800594a:	f423 6300 	bic.w	r3, r3, #2048	@ 0x800
 800594e:	613b      	str	r3, [r7, #16]
    /* Set the Output Idle state */
    tmpcr2 |= (OC_Config->OCIdleState << 2U);
 8005950:	683b      	ldr	r3, [r7, #0]
 8005952:	695b      	ldr	r3, [r3, #20]
 8005954:	009b      	lsls	r3, r3, #2
 8005956:	693a      	ldr	r2, [r7, #16]
 8005958:	4313      	orrs	r3, r2
 800595a:	613b      	str	r3, [r7, #16]
    /* Set the Output N Idle state */
    tmpcr2 |= (OC_Config->OCNIdleState << 2U);
 800595c:	683b      	ldr	r3, [r7, #0]
 800595e:	699b      	ldr	r3, [r3, #24]
 8005960:	009b      	lsls	r3, r3, #2
 8005962:	693a      	ldr	r2, [r7, #16]
 8005964:	4313      	orrs	r3, r2
 8005966:	613b      	str	r3, [r7, #16]
  }

  /* Write to TIMx CR2 */
  TIMx->CR2 = tmpcr2;
 8005968:	687b      	ldr	r3, [r7, #4]
 800596a:	693a      	ldr	r2, [r7, #16]
 800596c:	605a      	str	r2, [r3, #4]

  /* Write to TIMx CCMR1 */
  TIMx->CCMR1 = tmpccmrx;
 800596e:	687b      	ldr	r3, [r7, #4]
 8005970:	68fa      	ldr	r2, [r7, #12]
 8005972:	619a      	str	r2, [r3, #24]

  /* Set the Capture Compare Register value */
  TIMx->CCR2 = OC_Config->Pulse;
 8005974:	683b      	ldr	r3, [r7, #0]
 8005976:	685a      	ldr	r2, [r3, #4]
 8005978:	687b      	ldr	r3, [r7, #4]
 800597a:	639a      	str	r2, [r3, #56]	@ 0x38

  /* Write to TIMx CCER */
  TIMx->CCER = tmpccer;
 800597c:	687b      	ldr	r3, [r7, #4]
 800597e:	697a      	ldr	r2, [r7, #20]
 8005980:	621a      	str	r2, [r3, #32]
}
 8005982:	bf00      	nop
 8005984:	371c      	adds	r7, #28
 8005986:	46bd      	mov	sp, r7
 8005988:	f85d 7b04 	ldr.w	r7, [sp], #4
 800598c:	4770      	bx	lr
 800598e:	bf00      	nop
 8005990:	40010000 	.word	0x40010000
 8005994:	40010400 	.word	0x40010400

08005998 <TIM_OC3_SetConfig>:
  * @param  TIMx to select the TIM peripheral
  * @param  OC_Config The output configuration structure
  * @retval None
  */
static void TIM_OC3_SetConfig(TIM_TypeDef *TIMx, const TIM_OC_InitTypeDef *OC_Config)
{
 8005998:	b480      	push	{r7}
 800599a:	b087      	sub	sp, #28
 800599c:	af00      	add	r7, sp, #0
 800599e:	6078      	str	r0, [r7, #4]
 80059a0:	6039      	str	r1, [r7, #0]
  uint32_t tmpccmrx;
  uint32_t tmpccer;
  uint32_t tmpcr2;

  /* Get the TIMx CCER register value */
  tmpccer = TIMx->CCER;
 80059a2:	687b      	ldr	r3, [r7, #4]
 80059a4:	6a1b      	ldr	r3, [r3, #32]
 80059a6:	617b      	str	r3, [r7, #20]

  /* Disable the Channel 3: Reset the CC2E Bit */
  TIMx->CCER &= ~TIM_CCER_CC3E;
 80059a8:	687b      	ldr	r3, [r7, #4]
 80059aa:	6a1b      	ldr	r3, [r3, #32]
 80059ac:	f423 7280 	bic.w	r2, r3, #256	@ 0x100
 80059b0:	687b      	ldr	r3, [r7, #4]
 80059b2:	621a      	str	r2, [r3, #32]

  /* Get the TIMx CR2 register value */
  tmpcr2 =  TIMx->CR2;
 80059b4:	687b      	ldr	r3, [r7, #4]
 80059b6:	685b      	ldr	r3, [r3, #4]
 80059b8:	613b      	str	r3, [r7, #16]

  /* Get the TIMx CCMR2 register value */
  tmpccmrx = TIMx->CCMR2;
 80059ba:	687b      	ldr	r3, [r7, #4]
 80059bc:	69db      	ldr	r3, [r3, #28]
 80059be:	60fb      	str	r3, [r7, #12]

  /* Reset the Output Compare mode and Capture/Compare selection Bits */
  tmpccmrx &= ~TIM_CCMR2_OC3M;
 80059c0:	68fb      	ldr	r3, [r7, #12]
 80059c2:	f023 0370 	bic.w	r3, r3, #112	@ 0x70
 80059c6:	60fb      	str	r3, [r7, #12]
  tmpccmrx &= ~TIM_CCMR2_CC3S;
 80059c8:	68fb      	ldr	r3, [r7, #12]
 80059ca:	f023 0303 	bic.w	r3, r3, #3
 80059ce:	60fb      	str	r3, [r7, #12]
  /* Select the Output Compare Mode */
  tmpccmrx |= OC_Config->OCMode;
 80059d0:	683b      	ldr	r3, [r7, #0]
 80059d2:	681b      	ldr	r3, [r3, #0]
 80059d4:	68fa      	ldr	r2, [r7, #12]
 80059d6:	4313      	orrs	r3, r2
 80059d8:	60fb      	str	r3, [r7, #12]

  /* Reset the Output Polarity level */
  tmpccer &= ~TIM_CCER_CC3P;
 80059da:	697b      	ldr	r3, [r7, #20]
 80059dc:	f423 7300 	bic.w	r3, r3, #512	@ 0x200
 80059e0:	617b      	str	r3, [r7, #20]
  /* Set the Output Compare Polarity */
  tmpccer |= (OC_Config->OCPolarity << 8U);
 80059e2:	683b      	ldr	r3, [r7, #0]
 80059e4:	689b      	ldr	r3, [r3, #8]
 80059e6:	021b      	lsls	r3, r3, #8
 80059e8:	697a      	ldr	r2, [r7, #20]
 80059ea:	4313      	orrs	r3, r2
 80059ec:	617b      	str	r3, [r7, #20]

  if (IS_TIM_CCXN_INSTANCE(TIMx, TIM_CHANNEL_3))
 80059ee:	687b      	ldr	r3, [r7, #4]
 80059f0:	4a21      	ldr	r2, [pc, #132]	@ (8005a78 <TIM_OC3_SetConfig+0xe0>)
 80059f2:	4293      	cmp	r3, r2
 80059f4:	d003      	beq.n	80059fe <TIM_OC3_SetConfig+0x66>
 80059f6:	687b      	ldr	r3, [r7, #4]
 80059f8:	4a20      	ldr	r2, [pc, #128]	@ (8005a7c <TIM_OC3_SetConfig+0xe4>)
 80059fa:	4293      	cmp	r3, r2
 80059fc:	d10d      	bne.n	8005a1a <TIM_OC3_SetConfig+0x82>
  {
    assert_param(IS_TIM_OCN_POLARITY(OC_Config->OCNPolarity));

    /* Reset the Output N Polarity level */
    tmpccer &= ~TIM_CCER_CC3NP;
 80059fe:	697b      	ldr	r3, [r7, #20]
 8005a00:	f423 6300 	bic.w	r3, r3, #2048	@ 0x800
 8005a04:	617b      	str	r3, [r7, #20]
    /* Set the Output N Polarity */
    tmpccer |= (OC_Config->OCNPolarity << 8U);
 8005a06:	683b      	ldr	r3, [r7, #0]
 8005a08:	68db      	ldr	r3, [r3, #12]
 8005a0a:	021b      	lsls	r3, r3, #8
 8005a0c:	697a      	ldr	r2, [r7, #20]
 8005a0e:	4313      	orrs	r3, r2
 8005a10:	617b      	str	r3, [r7, #20]
    /* Reset the Output N State */
    tmpccer &= ~TIM_CCER_CC3NE;
 8005a12:	697b      	ldr	r3, [r7, #20]
 8005a14:	f423 6380 	bic.w	r3, r3, #1024	@ 0x400
 8005a18:	617b      	str	r3, [r7, #20]
  }

  if (IS_TIM_BREAK_INSTANCE(TIMx))
 8005a1a:	687b      	ldr	r3, [r7, #4]
 8005a1c:	4a16      	ldr	r2, [pc, #88]	@ (8005a78 <TIM_OC3_SetConfig+0xe0>)
 8005a1e:	4293      	cmp	r3, r2
 8005a20:	d003      	beq.n	8005a2a <TIM_OC3_SetConfig+0x92>
 8005a22:	687b      	ldr	r3, [r7, #4]
 8005a24:	4a15      	ldr	r2, [pc, #84]	@ (8005a7c <TIM_OC3_SetConfig+0xe4>)
 8005a26:	4293      	cmp	r3, r2
 8005a28:	d113      	bne.n	8005a52 <TIM_OC3_SetConfig+0xba>
    /* Check parameters */
    assert_param(IS_TIM_OCNIDLE_STATE(OC_Config->OCNIdleState));
    assert_param(IS_TIM_OCIDLE_STATE(OC_Config->OCIdleState));

    /* Reset the Output Compare and Output Compare N IDLE State */
    tmpcr2 &= ~TIM_CR2_OIS3;
 8005a2a:	693b      	ldr	r3, [r7, #16]
 8005a2c:	f423 5380 	bic.w	r3, r3, #4096	@ 0x1000
 8005a30:	613b      	str	r3, [r7, #16]
    tmpcr2 &= ~TIM_CR2_OIS3N;
 8005a32:	693b      	ldr	r3, [r7, #16]
 8005a34:	f423 5300 	bic.w	r3, r3, #8192	@ 0x2000
 8005a38:	613b      	str	r3, [r7, #16]
    /* Set the Output Idle state */
    tmpcr2 |= (OC_Config->OCIdleState << 4U);
 8005a3a:	683b      	ldr	r3, [r7, #0]
 8005a3c:	695b      	ldr	r3, [r3, #20]
 8005a3e:	011b      	lsls	r3, r3, #4
 8005a40:	693a      	ldr	r2, [r7, #16]
 8005a42:	4313      	orrs	r3, r2
 8005a44:	613b      	str	r3, [r7, #16]
    /* Set the Output N Idle state */
    tmpcr2 |= (OC_Config->OCNIdleState << 4U);
 8005a46:	683b      	ldr	r3, [r7, #0]
 8005a48:	699b      	ldr	r3, [r3, #24]
 8005a4a:	011b      	lsls	r3, r3, #4
 8005a4c:	693a      	ldr	r2, [r7, #16]
 8005a4e:	4313      	orrs	r3, r2
 8005a50:	613b      	str	r3, [r7, #16]
  }

  /* Write to TIMx CR2 */
  TIMx->CR2 = tmpcr2;
 8005a52:	687b      	ldr	r3, [r7, #4]
 8005a54:	693a      	ldr	r2, [r7, #16]
 8005a56:	605a      	str	r2, [r3, #4]

  /* Write to TIMx CCMR2 */
  TIMx->CCMR2 = tmpccmrx;
 8005a58:	687b      	ldr	r3, [r7, #4]
 8005a5a:	68fa      	ldr	r2, [r7, #12]
 8005a5c:	61da      	str	r2, [r3, #28]

  /* Set the Capture Compare Register value */
  TIMx->CCR3 = OC_Config->Pulse;
 8005a5e:	683b      	ldr	r3, [r7, #0]
 8005a60:	685a      	ldr	r2, [r3, #4]
 8005a62:	687b      	ldr	r3, [r7, #4]
 8005a64:	63da      	str	r2, [r3, #60]	@ 0x3c

  /* Write to TIMx CCER */
  TIMx->CCER = tmpccer;
 8005a66:	687b      	ldr	r3, [r7, #4]
 8005a68:	697a      	ldr	r2, [r7, #20]
 8005a6a:	621a      	str	r2, [r3, #32]
}
 8005a6c:	bf00      	nop
 8005a6e:	371c      	adds	r7, #28
 8005a70:	46bd      	mov	sp, r7
 8005a72:	f85d 7b04 	ldr.w	r7, [sp], #4
 8005a76:	4770      	bx	lr
 8005a78:	40010000 	.word	0x40010000
 8005a7c:	40010400 	.word	0x40010400

08005a80 <TIM_OC4_SetConfig>:
  * @param  TIMx to select the TIM peripheral
  * @param  OC_Config The output configuration structure
  * @retval None
  */
static void TIM_OC4_SetConfig(TIM_TypeDef *TIMx, const TIM_OC_InitTypeDef *OC_Config)
{
 8005a80:	b480      	push	{r7}
 8005a82:	b087      	sub	sp, #28
 8005a84:	af00      	add	r7, sp, #0
 8005a86:	6078      	str	r0, [r7, #4]
 8005a88:	6039      	str	r1, [r7, #0]
  uint32_t tmpccmrx;
  uint32_t tmpccer;
  uint32_t tmpcr2;

  /* Get the TIMx CCER register value */
  tmpccer = TIMx->CCER;
 8005a8a:	687b      	ldr	r3, [r7, #4]
 8005a8c:	6a1b      	ldr	r3, [r3, #32]
 8005a8e:	613b      	str	r3, [r7, #16]

  /* Disable the Channel 4: Reset the CC4E Bit */
  TIMx->CCER &= ~TIM_CCER_CC4E;
 8005a90:	687b      	ldr	r3, [r7, #4]
 8005a92:	6a1b      	ldr	r3, [r3, #32]
 8005a94:	f423 5280 	bic.w	r2, r3, #4096	@ 0x1000
 8005a98:	687b      	ldr	r3, [r7, #4]
 8005a9a:	621a      	str	r2, [r3, #32]

  /* Get the TIMx CR2 register value */
  tmpcr2 =  TIMx->CR2;
 8005a9c:	687b      	ldr	r3, [r7, #4]
 8005a9e:	685b      	ldr	r3, [r3, #4]
 8005aa0:	617b      	str	r3, [r7, #20]

  /* Get the TIMx CCMR2 register value */
  tmpccmrx = TIMx->CCMR2;
 8005aa2:	687b      	ldr	r3, [r7, #4]
 8005aa4:	69db      	ldr	r3, [r3, #28]
 8005aa6:	60fb      	str	r3, [r7, #12]

  /* Reset the Output Compare mode and Capture/Compare selection Bits */
  tmpccmrx &= ~TIM_CCMR2_OC4M;
 8005aa8:	68fb      	ldr	r3, [r7, #12]
 8005aaa:	f423 43e0 	bic.w	r3, r3, #28672	@ 0x7000
 8005aae:	60fb      	str	r3, [r7, #12]
  tmpccmrx &= ~TIM_CCMR2_CC4S;
 8005ab0:	68fb      	ldr	r3, [r7, #12]
 8005ab2:	f423 7340 	bic.w	r3, r3, #768	@ 0x300
 8005ab6:	60fb      	str	r3, [r7, #12]

  /* Select the Output Compare Mode */
  tmpccmrx |= (OC_Config->OCMode << 8U);
 8005ab8:	683b      	ldr	r3, [r7, #0]
 8005aba:	681b      	ldr	r3, [r3, #0]
 8005abc:	021b      	lsls	r3, r3, #8
 8005abe:	68fa      	ldr	r2, [r7, #12]
 8005ac0:	4313      	orrs	r3, r2
 8005ac2:	60fb      	str	r3, [r7, #12]

  /* Reset the Output Polarity level */
  tmpccer &= ~TIM_CCER_CC4P;
 8005ac4:	693b      	ldr	r3, [r7, #16]
 8005ac6:	f423 5300 	bic.w	r3, r3, #8192	@ 0x2000
 8005aca:	613b      	str	r3, [r7, #16]
  /* Set the Output Compare Polarity */
  tmpccer |= (OC_Config->OCPolarity << 12U);
 8005acc:	683b      	ldr	r3, [r7, #0]
 8005ace:	689b      	ldr	r3, [r3, #8]
 8005ad0:	031b      	lsls	r3, r3, #12
 8005ad2:	693a      	ldr	r2, [r7, #16]
 8005ad4:	4313      	orrs	r3, r2
 8005ad6:	613b      	str	r3, [r7, #16]

  if (IS_TIM_BREAK_INSTANCE(TIMx))
 8005ad8:	687b      	ldr	r3, [r7, #4]
 8005ada:	4a12      	ldr	r2, [pc, #72]	@ (8005b24 <TIM_OC4_SetConfig+0xa4>)
 8005adc:	4293      	cmp	r3, r2
 8005ade:	d003      	beq.n	8005ae8 <TIM_OC4_SetConfig+0x68>
 8005ae0:	687b      	ldr	r3, [r7, #4]
 8005ae2:	4a11      	ldr	r2, [pc, #68]	@ (8005b28 <TIM_OC4_SetConfig+0xa8>)
 8005ae4:	4293      	cmp	r3, r2
 8005ae6:	d109      	bne.n	8005afc <TIM_OC4_SetConfig+0x7c>
  {
    /* Check parameters */
    assert_param(IS_TIM_OCIDLE_STATE(OC_Config->OCIdleState));

    /* Reset the Output Compare IDLE State */
    tmpcr2 &= ~TIM_CR2_OIS4;
 8005ae8:	697b      	ldr	r3, [r7, #20]
 8005aea:	f423 4380 	bic.w	r3, r3, #16384	@ 0x4000
 8005aee:	617b      	str	r3, [r7, #20]

    /* Set the Output Idle state */
    tmpcr2 |= (OC_Config->OCIdleState << 6U);
 8005af0:	683b      	ldr	r3, [r7, #0]
 8005af2:	695b      	ldr	r3, [r3, #20]
 8005af4:	019b      	lsls	r3, r3, #6
 8005af6:	697a      	ldr	r2, [r7, #20]
 8005af8:	4313      	orrs	r3, r2
 8005afa:	617b      	str	r3, [r7, #20]
  }

  /* Write to TIMx CR2 */
  TIMx->CR2 = tmpcr2;
 8005afc:	687b      	ldr	r3, [r7, #4]
 8005afe:	697a      	ldr	r2, [r7, #20]
 8005b00:	605a      	str	r2, [r3, #4]

  /* Write to TIMx CCMR2 */
  TIMx->CCMR2 = tmpccmrx;
 8005b02:	687b      	ldr	r3, [r7, #4]
 8005b04:	68fa      	ldr	r2, [r7, #12]
 8005b06:	61da      	str	r2, [r3, #28]

  /* Set the Capture Compare Register value */
  TIMx->CCR4 = OC_Config->Pulse;
 8005b08:	683b      	ldr	r3, [r7, #0]
 8005b0a:	685a      	ldr	r2, [r3, #4]
 8005b0c:	687b      	ldr	r3, [r7, #4]
 8005b0e:	641a      	str	r2, [r3, #64]	@ 0x40

  /* Write to TIMx CCER */
  TIMx->CCER = tmpccer;
 8005b10:	687b      	ldr	r3, [r7, #4]
 8005b12:	693a      	ldr	r2, [r7, #16]
 8005b14:	621a      	str	r2, [r3, #32]
}
 8005b16:	bf00      	nop
 8005b18:	371c      	adds	r7, #28
 8005b1a:	46bd      	mov	sp, r7
 8005b1c:	f85d 7b04 	ldr.w	r7, [sp], #4
 8005b20:	4770      	bx	lr
 8005b22:	bf00      	nop
 8005b24:	40010000 	.word	0x40010000
 8005b28:	40010400 	.word	0x40010400

08005b2c <TIM_TI1_ConfigInputStage>:
  * @param  TIM_ICFilter Specifies the Input Capture Filter.
  *          This parameter must be a value between 0x00 and 0x0F.
  * @retval None
  */
static void TIM_TI1_ConfigInputStage(TIM_TypeDef *TIMx, uint32_t TIM_ICPolarity, uint32_t TIM_ICFilter)
{
 8005b2c:	b480      	push	{r7}
 8005b2e:	b087      	sub	sp, #28
 8005b30:	af00      	add	r7, sp, #0
 8005b32:	60f8      	str	r0, [r7, #12]
 8005b34:	60b9      	str	r1, [r7, #8]
 8005b36:	607a      	str	r2, [r7, #4]
  uint32_t tmpccmr1;
  uint32_t tmpccer;

  /* Disable the Channel 1: Reset the CC1E Bit */
  tmpccer = TIMx->CCER;
 8005b38:	68fb      	ldr	r3, [r7, #12]
 8005b3a:	6a1b      	ldr	r3, [r3, #32]
 8005b3c:	617b      	str	r3, [r7, #20]
  TIMx->CCER &= ~TIM_CCER_CC1E;
 8005b3e:	68fb      	ldr	r3, [r7, #12]
 8005b40:	6a1b      	ldr	r3, [r3, #32]
 8005b42:	f023 0201 	bic.w	r2, r3, #1
 8005b46:	68fb      	ldr	r3, [r7, #12]
 8005b48:	621a      	str	r2, [r3, #32]
  tmpccmr1 = TIMx->CCMR1;
 8005b4a:	68fb      	ldr	r3, [r7, #12]
 8005b4c:	699b      	ldr	r3, [r3, #24]
 8005b4e:	613b      	str	r3, [r7, #16]

  /* Set the filter */
  tmpccmr1 &= ~TIM_CCMR1_IC1F;
 8005b50:	693b      	ldr	r3, [r7, #16]
 8005b52:	f023 03f0 	bic.w	r3, r3, #240	@ 0xf0
 8005b56:	613b      	str	r3, [r7, #16]
  tmpccmr1 |= (TIM_ICFilter << 4U);
 8005b58:	687b      	ldr	r3, [r7, #4]
 8005b5a:	011b      	lsls	r3, r3, #4
 8005b5c:	693a      	ldr	r2, [r7, #16]
 8005b5e:	4313      	orrs	r3, r2
 8005b60:	613b      	str	r3, [r7, #16]

  /* Select the Polarity and set the CC1E Bit */
  tmpccer &= ~(TIM_CCER_CC1P | TIM_CCER_CC1NP);
 8005b62:	697b      	ldr	r3, [r7, #20]
 8005b64:	f023 030a 	bic.w	r3, r3, #10
 8005b68:	617b      	str	r3, [r7, #20]
  tmpccer |= TIM_ICPolarity;
 8005b6a:	697a      	ldr	r2, [r7, #20]
 8005b6c:	68bb      	ldr	r3, [r7, #8]
 8005b6e:	4313      	orrs	r3, r2
 8005b70:	617b      	str	r3, [r7, #20]

  /* Write to TIMx CCMR1 and CCER registers */
  TIMx->CCMR1 = tmpccmr1;
 8005b72:	68fb      	ldr	r3, [r7, #12]
 8005b74:	693a      	ldr	r2, [r7, #16]
 8005b76:	619a      	str	r2, [r3, #24]
  TIMx->CCER = tmpccer;
 8005b78:	68fb      	ldr	r3, [r7, #12]
 8005b7a:	697a      	ldr	r2, [r7, #20]
 8005b7c:	621a      	str	r2, [r3, #32]
}
 8005b7e:	bf00      	nop
 8005b80:	371c      	adds	r7, #28
 8005b82:	46bd      	mov	sp, r7
 8005b84:	f85d 7b04 	ldr.w	r7, [sp], #4
 8005b88:	4770      	bx	lr

08005b8a <TIM_TI2_ConfigInputStage>:
  * @param  TIM_ICFilter Specifies the Input Capture Filter.
  *          This parameter must be a value between 0x00 and 0x0F.
  * @retval None
  */
static void TIM_TI2_ConfigInputStage(TIM_TypeDef *TIMx, uint32_t TIM_ICPolarity, uint32_t TIM_ICFilter)
{
 8005b8a:	b480      	push	{r7}
 8005b8c:	b087      	sub	sp, #28
 8005b8e:	af00      	add	r7, sp, #0
 8005b90:	60f8      	str	r0, [r7, #12]
 8005b92:	60b9      	str	r1, [r7, #8]
 8005b94:	607a      	str	r2, [r7, #4]
  uint32_t tmpccmr1;
  uint32_t tmpccer;

  /* Disable the Channel 2: Reset the CC2E Bit */
  tmpccer = TIMx->CCER;
 8005b96:	68fb      	ldr	r3, [r7, #12]
 8005b98:	6a1b      	ldr	r3, [r3, #32]
 8005b9a:	617b      	str	r3, [r7, #20]
  TIMx->CCER &= ~TIM_CCER_CC2E;
 8005b9c:	68fb      	ldr	r3, [r7, #12]
 8005b9e:	6a1b      	ldr	r3, [r3, #32]
 8005ba0:	f023 0210 	bic.w	r2, r3, #16
 8005ba4:	68fb      	ldr	r3, [r7, #12]
 8005ba6:	621a      	str	r2, [r3, #32]
  tmpccmr1 = TIMx->CCMR1;
 8005ba8:	68fb      	ldr	r3, [r7, #12]
 8005baa:	699b      	ldr	r3, [r3, #24]
 8005bac:	613b      	str	r3, [r7, #16]

  /* Set the filter */
  tmpccmr1 &= ~TIM_CCMR1_IC2F;
 8005bae:	693b      	ldr	r3, [r7, #16]
 8005bb0:	f423 4370 	bic.w	r3, r3, #61440	@ 0xf000
 8005bb4:	613b      	str	r3, [r7, #16]
  tmpccmr1 |= (TIM_ICFilter << 12U);
 8005bb6:	687b      	ldr	r3, [r7, #4]
 8005bb8:	031b      	lsls	r3, r3, #12
 8005bba:	693a      	ldr	r2, [r7, #16]
 8005bbc:	4313      	orrs	r3, r2
 8005bbe:	613b      	str	r3, [r7, #16]

  /* Select the Polarity and set the CC2E Bit */
  tmpccer &= ~(TIM_CCER_CC2P | TIM_CCER_CC2NP);
 8005bc0:	697b      	ldr	r3, [r7, #20]
 8005bc2:	f023 03a0 	bic.w	r3, r3, #160	@ 0xa0
 8005bc6:	617b      	str	r3, [r7, #20]
  tmpccer |= (TIM_ICPolarity << 4U);
 8005bc8:	68bb      	ldr	r3, [r7, #8]
 8005bca:	011b      	lsls	r3, r3, #4
 8005bcc:	697a      	ldr	r2, [r7, #20]
 8005bce:	4313      	orrs	r3, r2
 8005bd0:	617b      	str	r3, [r7, #20]

  /* Write to TIMx CCMR1 and CCER registers */
  TIMx->CCMR1 = tmpccmr1 ;
 8005bd2:	68fb      	ldr	r3, [r7, #12]
 8005bd4:	693a      	ldr	r2, [r7, #16]
 8005bd6:	619a      	str	r2, [r3, #24]
  TIMx->CCER = tmpccer;
 8005bd8:	68fb      	ldr	r3, [r7, #12]
 8005bda:	697a      	ldr	r2, [r7, #20]
 8005bdc:	621a      	str	r2, [r3, #32]
}
 8005bde:	bf00      	nop
 8005be0:	371c      	adds	r7, #28
 8005be2:	46bd      	mov	sp, r7
 8005be4:	f85d 7b04 	ldr.w	r7, [sp], #4
 8005be8:	4770      	bx	lr

08005bea <TIM_ITRx_SetConfig>:
  *            @arg TIM_TS_TI2FP2: Filtered Timer Input 2
  *            @arg TIM_TS_ETRF: External Trigger input
  * @retval None
  */
static void TIM_ITRx_SetConfig(TIM_TypeDef *TIMx, uint32_t InputTriggerSource)
{
 8005bea:	b480      	push	{r7}
 8005bec:	b085      	sub	sp, #20
 8005bee:	af00      	add	r7, sp, #0
 8005bf0:	6078      	str	r0, [r7, #4]
 8005bf2:	6039      	str	r1, [r7, #0]
  uint32_t tmpsmcr;

  /* Get the TIMx SMCR register value */
  tmpsmcr = TIMx->SMCR;
 8005bf4:	687b      	ldr	r3, [r7, #4]
 8005bf6:	689b      	ldr	r3, [r3, #8]
 8005bf8:	60fb      	str	r3, [r7, #12]
  /* Reset the TS Bits */
  tmpsmcr &= ~TIM_SMCR_TS;
 8005bfa:	68fb      	ldr	r3, [r7, #12]
 8005bfc:	f023 0370 	bic.w	r3, r3, #112	@ 0x70
 8005c00:	60fb      	str	r3, [r7, #12]
  /* Set the Input Trigger source and the slave mode*/
  tmpsmcr |= (InputTriggerSource | TIM_SLAVEMODE_EXTERNAL1);
 8005c02:	683a      	ldr	r2, [r7, #0]
 8005c04:	68fb      	ldr	r3, [r7, #12]
 8005c06:	4313      	orrs	r3, r2
 8005c08:	f043 0307 	orr.w	r3, r3, #7
 8005c0c:	60fb      	str	r3, [r7, #12]
  /* Write to TIMx SMCR */
  TIMx->SMCR = tmpsmcr;
 8005c0e:	687b      	ldr	r3, [r7, #4]
 8005c10:	68fa      	ldr	r2, [r7, #12]
 8005c12:	609a      	str	r2, [r3, #8]
}
 8005c14:	bf00      	nop
 8005c16:	3714      	adds	r7, #20
 8005c18:	46bd      	mov	sp, r7
 8005c1a:	f85d 7b04 	ldr.w	r7, [sp], #4
 8005c1e:	4770      	bx	lr

08005c20 <TIM_ETR_SetConfig>:
  *          This parameter must be a value between 0x00 and 0x0F
  * @retval None
  */
void TIM_ETR_SetConfig(TIM_TypeDef *TIMx, uint32_t TIM_ExtTRGPrescaler,
                       uint32_t TIM_ExtTRGPolarity, uint32_t ExtTRGFilter)
{
 8005c20:	b480      	push	{r7}
 8005c22:	b087      	sub	sp, #28
 8005c24:	af00      	add	r7, sp, #0
 8005c26:	60f8      	str	r0, [r7, #12]
 8005c28:	60b9      	str	r1, [r7, #8]
 8005c2a:	607a      	str	r2, [r7, #4]
 8005c2c:	603b      	str	r3, [r7, #0]
  uint32_t tmpsmcr;

  tmpsmcr = TIMx->SMCR;
 8005c2e:	68fb      	ldr	r3, [r7, #12]
 8005c30:	689b      	ldr	r3, [r3, #8]
 8005c32:	617b      	str	r3, [r7, #20]

  /* Reset the ETR Bits */
  tmpsmcr &= ~(TIM_SMCR_ETF | TIM_SMCR_ETPS | TIM_SMCR_ECE | TIM_SMCR_ETP);
 8005c34:	697b      	ldr	r3, [r7, #20]
 8005c36:	f423 437f 	bic.w	r3, r3, #65280	@ 0xff00
 8005c3a:	617b      	str	r3, [r7, #20]

  /* Set the Prescaler, the Filter value and the Polarity */
  tmpsmcr |= (uint32_t)(TIM_ExtTRGPrescaler | (TIM_ExtTRGPolarity | (ExtTRGFilter << 8U)));
 8005c3c:	683b      	ldr	r3, [r7, #0]
 8005c3e:	021a      	lsls	r2, r3, #8
 8005c40:	687b      	ldr	r3, [r7, #4]
 8005c42:	431a      	orrs	r2, r3
 8005c44:	68bb      	ldr	r3, [r7, #8]
 8005c46:	4313      	orrs	r3, r2
 8005c48:	697a      	ldr	r2, [r7, #20]
 8005c4a:	4313      	orrs	r3, r2
 8005c4c:	617b      	str	r3, [r7, #20]

  /* Write to TIMx SMCR */
  TIMx->SMCR = tmpsmcr;
 8005c4e:	68fb      	ldr	r3, [r7, #12]
 8005c50:	697a      	ldr	r2, [r7, #20]
 8005c52:	609a      	str	r2, [r3, #8]
}
 8005c54:	bf00      	nop
 8005c56:	371c      	adds	r7, #28
 8005c58:	46bd      	mov	sp, r7
 8005c5a:	f85d 7b04 	ldr.w	r7, [sp], #4
 8005c5e:	4770      	bx	lr

08005c60 <TIM_CCxChannelCmd>:
  * @param  ChannelState specifies the TIM Channel CCxE bit new state.
  *          This parameter can be: TIM_CCx_ENABLE or TIM_CCx_DISABLE.
  * @retval None
  */
void TIM_CCxChannelCmd(TIM_TypeDef *TIMx, uint32_t Channel, uint32_t ChannelState)
{
 8005c60:	b480      	push	{r7}
 8005c62:	b087      	sub	sp, #28
 8005c64:	af00      	add	r7, sp, #0
 8005c66:	60f8      	str	r0, [r7, #12]
 8005c68:	60b9      	str	r1, [r7, #8]
 8005c6a:	607a      	str	r2, [r7, #4]

  /* Check the parameters */
  assert_param(IS_TIM_CC1_INSTANCE(TIMx));
  assert_param(IS_TIM_CHANNELS(Channel));

  tmp = TIM_CCER_CC1E << (Channel & 0x1FU); /* 0x1FU = 31 bits max shift */
 8005c6c:	68bb      	ldr	r3, [r7, #8]
 8005c6e:	f003 031f 	and.w	r3, r3, #31
 8005c72:	2201      	movs	r2, #1
 8005c74:	fa02 f303 	lsl.w	r3, r2, r3
 8005c78:	617b      	str	r3, [r7, #20]

  /* Reset the CCxE Bit */
  TIMx->CCER &= ~tmp;
 8005c7a:	68fb      	ldr	r3, [r7, #12]
 8005c7c:	6a1a      	ldr	r2, [r3, #32]
 8005c7e:	697b      	ldr	r3, [r7, #20]
 8005c80:	43db      	mvns	r3, r3
 8005c82:	401a      	ands	r2, r3
 8005c84:	68fb      	ldr	r3, [r7, #12]
 8005c86:	621a      	str	r2, [r3, #32]

  /* Set or reset the CCxE Bit */
  TIMx->CCER |= (uint32_t)(ChannelState << (Channel & 0x1FU)); /* 0x1FU = 31 bits max shift */
 8005c88:	68fb      	ldr	r3, [r7, #12]
 8005c8a:	6a1a      	ldr	r2, [r3, #32]
 8005c8c:	68bb      	ldr	r3, [r7, #8]
 8005c8e:	f003 031f 	and.w	r3, r3, #31
 8005c92:	6879      	ldr	r1, [r7, #4]
 8005c94:	fa01 f303 	lsl.w	r3, r1, r3
 8005c98:	431a      	orrs	r2, r3
 8005c9a:	68fb      	ldr	r3, [r7, #12]
 8005c9c:	621a      	str	r2, [r3, #32]
}
 8005c9e:	bf00      	nop
 8005ca0:	371c      	adds	r7, #28
 8005ca2:	46bd      	mov	sp, r7
 8005ca4:	f85d 7b04 	ldr.w	r7, [sp], #4
 8005ca8:	4770      	bx	lr
	...

08005cac <HAL_TIMEx_MasterConfigSynchronization>:
  *         mode.
  * @retval HAL status
  */
HAL_StatusTypeDef HAL_TIMEx_MasterConfigSynchronization(TIM_HandleTypeDef *htim,
                                                        const TIM_MasterConfigTypeDef *sMasterConfig)
{
 8005cac:	b480      	push	{r7}
 8005cae:	b085      	sub	sp, #20
 8005cb0:	af00      	add	r7, sp, #0
 8005cb2:	6078      	str	r0, [r7, #4]
 8005cb4:	6039      	str	r1, [r7, #0]
  assert_param(IS_TIM_MASTER_INSTANCE(htim->Instance));
  assert_param(IS_TIM_TRGO_SOURCE(sMasterConfig->MasterOutputTrigger));
  assert_param(IS_TIM_MSM_STATE(sMasterConfig->MasterSlaveMode));

  /* Check input state */
  __HAL_LOCK(htim);
 8005cb6:	687b      	ldr	r3, [r7, #4]
 8005cb8:	f893 303c 	ldrb.w	r3, [r3, #60]	@ 0x3c
 8005cbc:	2b01      	cmp	r3, #1
 8005cbe:	d101      	bne.n	8005cc4 <HAL_TIMEx_MasterConfigSynchronization+0x18>
 8005cc0:	2302      	movs	r3, #2
 8005cc2:	e05a      	b.n	8005d7a <HAL_TIMEx_MasterConfigSynchronization+0xce>
 8005cc4:	687b      	ldr	r3, [r7, #4]
 8005cc6:	2201      	movs	r2, #1
 8005cc8:	f883 203c 	strb.w	r2, [r3, #60]	@ 0x3c

  /* Change the handler state */
  htim->State = HAL_TIM_STATE_BUSY;
 8005ccc:	687b      	ldr	r3, [r7, #4]
 8005cce:	2202      	movs	r2, #2
 8005cd0:	f883 203d 	strb.w	r2, [r3, #61]	@ 0x3d

  /* Get the TIMx CR2 register value */
  tmpcr2 = htim->Instance->CR2;
 8005cd4:	687b      	ldr	r3, [r7, #4]
 8005cd6:	681b      	ldr	r3, [r3, #0]
 8005cd8:	685b      	ldr	r3, [r3, #4]
 8005cda:	60fb      	str	r3, [r7, #12]

  /* Get the TIMx SMCR register value */
  tmpsmcr = htim->Instance->SMCR;
 8005cdc:	687b      	ldr	r3, [r7, #4]
 8005cde:	681b      	ldr	r3, [r3, #0]
 8005ce0:	689b      	ldr	r3, [r3, #8]
 8005ce2:	60bb      	str	r3, [r7, #8]

  /* Reset the MMS Bits */
  tmpcr2 &= ~TIM_CR2_MMS;
 8005ce4:	68fb      	ldr	r3, [r7, #12]
 8005ce6:	f023 0370 	bic.w	r3, r3, #112	@ 0x70
 8005cea:	60fb      	str	r3, [r7, #12]
  /* Select the TRGO source */
  tmpcr2 |=  sMasterConfig->MasterOutputTrigger;
 8005cec:	683b      	ldr	r3, [r7, #0]
 8005cee:	681b      	ldr	r3, [r3, #0]
 8005cf0:	68fa      	ldr	r2, [r7, #12]
 8005cf2:	4313      	orrs	r3, r2
 8005cf4:	60fb      	str	r3, [r7, #12]

  /* Update TIMx CR2 */
  htim->Instance->CR2 = tmpcr2;
 8005cf6:	687b      	ldr	r3, [r7, #4]
 8005cf8:	681b      	ldr	r3, [r3, #0]
 8005cfa:	68fa      	ldr	r2, [r7, #12]
 8005cfc:	605a      	str	r2, [r3, #4]

  if (IS_TIM_SLAVE_INSTANCE(htim->Instance))
 8005cfe:	687b      	ldr	r3, [r7, #4]
 8005d00:	681b      	ldr	r3, [r3, #0]
 8005d02:	4a21      	ldr	r2, [pc, #132]	@ (8005d88 <HAL_TIMEx_MasterConfigSynchronization+0xdc>)
 8005d04:	4293      	cmp	r3, r2
 8005d06:	d022      	beq.n	8005d4e <HAL_TIMEx_MasterConfigSynchronization+0xa2>
 8005d08:	687b      	ldr	r3, [r7, #4]
 8005d0a:	681b      	ldr	r3, [r3, #0]
 8005d0c:	f1b3 4f80 	cmp.w	r3, #1073741824	@ 0x40000000
 8005d10:	d01d      	beq.n	8005d4e <HAL_TIMEx_MasterConfigSynchronization+0xa2>
 8005d12:	687b      	ldr	r3, [r7, #4]
 8005d14:	681b      	ldr	r3, [r3, #0]
 8005d16:	4a1d      	ldr	r2, [pc, #116]	@ (8005d8c <HAL_TIMEx_MasterConfigSynchronization+0xe0>)
 8005d18:	4293      	cmp	r3, r2
 8005d1a:	d018      	beq.n	8005d4e <HAL_TIMEx_MasterConfigSynchronization+0xa2>
 8005d1c:	687b      	ldr	r3, [r7, #4]
 8005d1e:	681b      	ldr	r3, [r3, #0]
 8005d20:	4a1b      	ldr	r2, [pc, #108]	@ (8005d90 <HAL_TIMEx_MasterConfigSynchronization+0xe4>)
 8005d22:	4293      	cmp	r3, r2
 8005d24:	d013      	beq.n	8005d4e <HAL_TIMEx_MasterConfigSynchronization+0xa2>
 8005d26:	687b      	ldr	r3, [r7, #4]
 8005d28:	681b      	ldr	r3, [r3, #0]
 8005d2a:	4a1a      	ldr	r2, [pc, #104]	@ (8005d94 <HAL_TIMEx_MasterConfigSynchronization+0xe8>)
 8005d2c:	4293      	cmp	r3, r2
 8005d2e:	d00e      	beq.n	8005d4e <HAL_TIMEx_MasterConfigSynchronization+0xa2>
 8005d30:	687b      	ldr	r3, [r7, #4]
 8005d32:	681b      	ldr	r3, [r3, #0]
 8005d34:	4a18      	ldr	r2, [pc, #96]	@ (8005d98 <HAL_TIMEx_MasterConfigSynchronization+0xec>)
 8005d36:	4293      	cmp	r3, r2
 8005d38:	d009      	beq.n	8005d4e <HAL_TIMEx_MasterConfigSynchronization+0xa2>
 8005d3a:	687b      	ldr	r3, [r7, #4]
 8005d3c:	681b      	ldr	r3, [r3, #0]
 8005d3e:	4a17      	ldr	r2, [pc, #92]	@ (8005d9c <HAL_TIMEx_MasterConfigSynchronization+0xf0>)
 8005d40:	4293      	cmp	r3, r2
 8005d42:	d004      	beq.n	8005d4e <HAL_TIMEx_MasterConfigSynchronization+0xa2>
 8005d44:	687b      	ldr	r3, [r7, #4]
 8005d46:	681b      	ldr	r3, [r3, #0]
 8005d48:	4a15      	ldr	r2, [pc, #84]	@ (8005da0 <HAL_TIMEx_MasterConfigSynchronization+0xf4>)
 8005d4a:	4293      	cmp	r3, r2
 8005d4c:	d10c      	bne.n	8005d68 <HAL_TIMEx_MasterConfigSynchronization+0xbc>
  {
    /* Reset the MSM Bit */
    tmpsmcr &= ~TIM_SMCR_MSM;
 8005d4e:	68bb      	ldr	r3, [r7, #8]
 8005d50:	f023 0380 	bic.w	r3, r3, #128	@ 0x80
 8005d54:	60bb      	str	r3, [r7, #8]
    /* Set master mode */
    tmpsmcr |= sMasterConfig->MasterSlaveMode;
 8005d56:	683b      	ldr	r3, [r7, #0]
 8005d58:	685b      	ldr	r3, [r3, #4]
 8005d5a:	68ba      	ldr	r2, [r7, #8]
 8005d5c:	4313      	orrs	r3, r2
 8005d5e:	60bb      	str	r3, [r7, #8]

    /* Update TIMx SMCR */
    htim->Instance->SMCR = tmpsmcr;
 8005d60:	687b      	ldr	r3, [r7, #4]
 8005d62:	681b      	ldr	r3, [r3, #0]
 8005d64:	68ba      	ldr	r2, [r7, #8]
 8005d66:	609a      	str	r2, [r3, #8]
  }

  /* Change the htim state */
  htim->State = HAL_TIM_STATE_READY;
 8005d68:	687b      	ldr	r3, [r7, #4]
 8005d6a:	2201      	movs	r2, #1
 8005d6c:	f883 203d 	strb.w	r2, [r3, #61]	@ 0x3d

  __HAL_UNLOCK(htim);
 8005d70:	687b      	ldr	r3, [r7, #4]
 8005d72:	2200      	movs	r2, #0
 8005d74:	f883 203c 	strb.w	r2, [r3, #60]	@ 0x3c

  return HAL_OK;
 8005d78:	2300      	movs	r3, #0
}
 8005d7a:	4618      	mov	r0, r3
 8005d7c:	3714      	adds	r7, #20
 8005d7e:	46bd      	mov	sp, r7
 8005d80:	f85d 7b04 	ldr.w	r7, [sp], #4
 8005d84:	4770      	bx	lr
 8005d86:	bf00      	nop
 8005d88:	40010000 	.word	0x40010000
 8005d8c:	40000400 	.word	0x40000400
 8005d90:	40000800 	.word	0x40000800
 8005d94:	40000c00 	.word	0x40000c00
 8005d98:	40010400 	.word	0x40010400
 8005d9c:	40014000 	.word	0x40014000
 8005da0:	40001800 	.word	0x40001800

08005da4 <HAL_TIMEx_CommutCallback>:
  * @brief  Commutation callback in non-blocking mode
  * @param  htim TIM handle
  * @retval None
  */
__weak void HAL_TIMEx_CommutCallback(TIM_HandleTypeDef *htim)
{
 8005da4:	b480      	push	{r7}
 8005da6:	b083      	sub	sp, #12
 8005da8:	af00      	add	r7, sp, #0
 8005daa:	6078      	str	r0, [r7, #4]
  UNUSED(htim);

  /* NOTE : This function should not be modified, when the callback is needed,
            the HAL_TIMEx_CommutCallback could be implemented in the user file
   */
}
 8005dac:	bf00      	nop
 8005dae:	370c      	adds	r7, #12
 8005db0:	46bd      	mov	sp, r7
 8005db2:	f85d 7b04 	ldr.w	r7, [sp], #4
 8005db6:	4770      	bx	lr

08005db8 <HAL_TIMEx_BreakCallback>:
  * @brief  Break detection callback in non-blocking mode
  * @param  htim TIM handle
  * @retval None
  */
__weak void HAL_TIMEx_BreakCallback(TIM_HandleTypeDef *htim)
{
 8005db8:	b480      	push	{r7}
 8005dba:	b083      	sub	sp, #12
 8005dbc:	af00      	add	r7, sp, #0
 8005dbe:	6078      	str	r0, [r7, #4]
  UNUSED(htim);

  /* NOTE : This function should not be modified, when the callback is needed,
            the HAL_TIMEx_BreakCallback could be implemented in the user file
   */
}
 8005dc0:	bf00      	nop
 8005dc2:	370c      	adds	r7, #12
 8005dc4:	46bd      	mov	sp, r7
 8005dc6:	f85d 7b04 	ldr.w	r7, [sp], #4
 8005dca:	4770      	bx	lr

08005dcc <HAL_UART_Init>:
  * @param  huart  Pointer to a UART_HandleTypeDef structure that contains
  *                the configuration information for the specified UART module.
  * @retval HAL status
  */
HAL_StatusTypeDef HAL_UART_Init(UART_HandleTypeDef *huart)
{
 8005dcc:	b580      	push	{r7, lr}
 8005dce:	b082      	sub	sp, #8
 8005dd0:	af00      	add	r7, sp, #0
 8005dd2:	6078      	str	r0, [r7, #4]
  /* Check the UART handle allocation */
  if (huart == NULL)
 8005dd4:	687b      	ldr	r3, [r7, #4]
 8005dd6:	2b00      	cmp	r3, #0
 8005dd8:	d101      	bne.n	8005dde <HAL_UART_Init+0x12>
  {
    return HAL_ERROR;
 8005dda:	2301      	movs	r3, #1
 8005ddc:	e042      	b.n	8005e64 <HAL_UART_Init+0x98>
    assert_param(IS_UART_INSTANCE(huart->Instance));
  }
  assert_param(IS_UART_WORD_LENGTH(huart->Init.WordLength));
  assert_param(IS_UART_OVERSAMPLING(huart->Init.OverSampling));

  if (huart->gState == HAL_UART_STATE_RESET)
 8005dde:	687b      	ldr	r3, [r7, #4]
 8005de0:	f893 3041 	ldrb.w	r3, [r3, #65]	@ 0x41
 8005de4:	b2db      	uxtb	r3, r3
 8005de6:	2b00      	cmp	r3, #0
 8005de8:	d106      	bne.n	8005df8 <HAL_UART_Init+0x2c>
  {
    /* Allocate lock resource and initialize it */
    huart->Lock = HAL_UNLOCKED;
 8005dea:	687b      	ldr	r3, [r7, #4]
 8005dec:	2200      	movs	r2, #0
 8005dee:	f883 2040 	strb.w	r2, [r3, #64]	@ 0x40

    /* Init the low level hardware */
    huart->MspInitCallback(huart);
#else
    /* Init the low level hardware : GPIO, CLOCK */
    HAL_UART_MspInit(huart);
 8005df2:	6878      	ldr	r0, [r7, #4]
 8005df4:	f7fc fcf6 	bl	80027e4 <HAL_UART_MspInit>
#endif /* (USE_HAL_UART_REGISTER_CALLBACKS) */
  }

  huart->gState = HAL_UART_STATE_BUSY;
 8005df8:	687b      	ldr	r3, [r7, #4]
 8005dfa:	2224      	movs	r2, #36	@ 0x24
 8005dfc:	f883 2041 	strb.w	r2, [r3, #65]	@ 0x41

  /* Disable the peripheral */
  __HAL_UART_DISABLE(huart);
 8005e00:	687b      	ldr	r3, [r7, #4]
 8005e02:	681b      	ldr	r3, [r3, #0]
 8005e04:	68da      	ldr	r2, [r3, #12]
 8005e06:	687b      	ldr	r3, [r7, #4]
 8005e08:	681b      	ldr	r3, [r3, #0]
 8005e0a:	f422 5200 	bic.w	r2, r2, #8192	@ 0x2000
 8005e0e:	60da      	str	r2, [r3, #12]

  /* Set the UART Communication parameters */
  UART_SetConfig(huart);
 8005e10:	6878      	ldr	r0, [r7, #4]
 8005e12:	f000 fd7f 	bl	8006914 <UART_SetConfig>

  /* In asynchronous mode, the following bits must be kept cleared:
     - LINEN and CLKEN bits in the USART_CR2 register,
     - SCEN, HDSEL and IREN  bits in the USART_CR3 register.*/
  CLEAR_BIT(huart->Instance->CR2, (USART_CR2_LINEN | USART_CR2_CLKEN));
 8005e16:	687b      	ldr	r3, [r7, #4]
 8005e18:	681b      	ldr	r3, [r3, #0]
 8005e1a:	691a      	ldr	r2, [r3, #16]
 8005e1c:	687b      	ldr	r3, [r7, #4]
 8005e1e:	681b      	ldr	r3, [r3, #0]
 8005e20:	f422 4290 	bic.w	r2, r2, #18432	@ 0x4800
 8005e24:	611a      	str	r2, [r3, #16]
  CLEAR_BIT(huart->Instance->CR3, (USART_CR3_SCEN | USART_CR3_HDSEL | USART_CR3_IREN));
 8005e26:	687b      	ldr	r3, [r7, #4]
 8005e28:	681b      	ldr	r3, [r3, #0]
 8005e2a:	695a      	ldr	r2, [r3, #20]
 8005e2c:	687b      	ldr	r3, [r7, #4]
 8005e2e:	681b      	ldr	r3, [r3, #0]
 8005e30:	f022 022a 	bic.w	r2, r2, #42	@ 0x2a
 8005e34:	615a      	str	r2, [r3, #20]

  /* Enable the peripheral */
  __HAL_UART_ENABLE(huart);
 8005e36:	687b      	ldr	r3, [r7, #4]
 8005e38:	681b      	ldr	r3, [r3, #0]
 8005e3a:	68da      	ldr	r2, [r3, #12]
 8005e3c:	687b      	ldr	r3, [r7, #4]
 8005e3e:	681b      	ldr	r3, [r3, #0]
 8005e40:	f442 5200 	orr.w	r2, r2, #8192	@ 0x2000
 8005e44:	60da      	str	r2, [r3, #12]

  /* Initialize the UART state */
  huart->ErrorCode = HAL_UART_ERROR_NONE;
 8005e46:	687b      	ldr	r3, [r7, #4]
 8005e48:	2200      	movs	r2, #0
 8005e4a:	645a      	str	r2, [r3, #68]	@ 0x44
  huart->gState = HAL_UART_STATE_READY;
 8005e4c:	687b      	ldr	r3, [r7, #4]
 8005e4e:	2220      	movs	r2, #32
 8005e50:	f883 2041 	strb.w	r2, [r3, #65]	@ 0x41
  huart->RxState = HAL_UART_STATE_READY;
 8005e54:	687b      	ldr	r3, [r7, #4]
 8005e56:	2220      	movs	r2, #32
 8005e58:	f883 2042 	strb.w	r2, [r3, #66]	@ 0x42
  huart->RxEventType = HAL_UART_RXEVENT_TC;
 8005e5c:	687b      	ldr	r3, [r7, #4]
 8005e5e:	2200      	movs	r2, #0
 8005e60:	635a      	str	r2, [r3, #52]	@ 0x34

  return HAL_OK;
 8005e62:	2300      	movs	r3, #0
}
 8005e64:	4618      	mov	r0, r3
 8005e66:	3708      	adds	r7, #8
 8005e68:	46bd      	mov	sp, r7
 8005e6a:	bd80      	pop	{r7, pc}

08005e6c <HAL_UART_Transmit>:
  * @param  Size  Amount of data elements (u8 or u16) to be sent
  * @param  Timeout Timeout duration
  * @retval HAL status
  */
HAL_StatusTypeDef HAL_UART_Transmit(UART_HandleTypeDef *huart, const uint8_t *pData, uint16_t Size, uint32_t Timeout)
{
 8005e6c:	b580      	push	{r7, lr}
 8005e6e:	b08a      	sub	sp, #40	@ 0x28
 8005e70:	af02      	add	r7, sp, #8
 8005e72:	60f8      	str	r0, [r7, #12]
 8005e74:	60b9      	str	r1, [r7, #8]
 8005e76:	603b      	str	r3, [r7, #0]
 8005e78:	4613      	mov	r3, r2
 8005e7a:	80fb      	strh	r3, [r7, #6]
  const uint8_t  *pdata8bits;
  const uint16_t *pdata16bits;
  uint32_t tickstart = 0U;
 8005e7c:	2300      	movs	r3, #0
 8005e7e:	617b      	str	r3, [r7, #20]

  /* Check that a Tx process is not already ongoing */
  if (huart->gState == HAL_UART_STATE_READY)
 8005e80:	68fb      	ldr	r3, [r7, #12]
 8005e82:	f893 3041 	ldrb.w	r3, [r3, #65]	@ 0x41
 8005e86:	b2db      	uxtb	r3, r3
 8005e88:	2b20      	cmp	r3, #32
 8005e8a:	d175      	bne.n	8005f78 <HAL_UART_Transmit+0x10c>
  {
    if ((pData == NULL) || (Size == 0U))
 8005e8c:	68bb      	ldr	r3, [r7, #8]
 8005e8e:	2b00      	cmp	r3, #0
 8005e90:	d002      	beq.n	8005e98 <HAL_UART_Transmit+0x2c>
 8005e92:	88fb      	ldrh	r3, [r7, #6]
 8005e94:	2b00      	cmp	r3, #0
 8005e96:	d101      	bne.n	8005e9c <HAL_UART_Transmit+0x30>
    {
      return  HAL_ERROR;
 8005e98:	2301      	movs	r3, #1
 8005e9a:	e06e      	b.n	8005f7a <HAL_UART_Transmit+0x10e>
    }

    huart->ErrorCode = HAL_UART_ERROR_NONE;
 8005e9c:	68fb      	ldr	r3, [r7, #12]
 8005e9e:	2200      	movs	r2, #0
 8005ea0:	645a      	str	r2, [r3, #68]	@ 0x44
    huart->gState = HAL_UART_STATE_BUSY_TX;
 8005ea2:	68fb      	ldr	r3, [r7, #12]
 8005ea4:	2221      	movs	r2, #33	@ 0x21
 8005ea6:	f883 2041 	strb.w	r2, [r3, #65]	@ 0x41

    /* Init tickstart for timeout management */
    tickstart = HAL_GetTick();
 8005eaa:	f7fc fd7b 	bl	80029a4 <HAL_GetTick>
 8005eae:	6178      	str	r0, [r7, #20]

    huart->TxXferSize = Size;
 8005eb0:	68fb      	ldr	r3, [r7, #12]
 8005eb2:	88fa      	ldrh	r2, [r7, #6]
 8005eb4:	849a      	strh	r2, [r3, #36]	@ 0x24
    huart->TxXferCount = Size;
 8005eb6:	68fb      	ldr	r3, [r7, #12]
 8005eb8:	88fa      	ldrh	r2, [r7, #6]
 8005eba:	84da      	strh	r2, [r3, #38]	@ 0x26

    /* In case of 9bits/No Parity transfer, pData needs to be handled as a uint16_t pointer */
    if ((huart->Init.WordLength == UART_WORDLENGTH_9B) && (huart->Init.Parity == UART_PARITY_NONE))
 8005ebc:	68fb      	ldr	r3, [r7, #12]
 8005ebe:	689b      	ldr	r3, [r3, #8]
 8005ec0:	f5b3 5f80 	cmp.w	r3, #4096	@ 0x1000
 8005ec4:	d108      	bne.n	8005ed8 <HAL_UART_Transmit+0x6c>
 8005ec6:	68fb      	ldr	r3, [r7, #12]
 8005ec8:	691b      	ldr	r3, [r3, #16]
 8005eca:	2b00      	cmp	r3, #0
 8005ecc:	d104      	bne.n	8005ed8 <HAL_UART_Transmit+0x6c>
    {
      pdata8bits  = NULL;
 8005ece:	2300      	movs	r3, #0
 8005ed0:	61fb      	str	r3, [r7, #28]
      pdata16bits = (const uint16_t *) pData;
 8005ed2:	68bb      	ldr	r3, [r7, #8]
 8005ed4:	61bb      	str	r3, [r7, #24]
 8005ed6:	e003      	b.n	8005ee0 <HAL_UART_Transmit+0x74>
    }
    else
    {
      pdata8bits  = pData;
 8005ed8:	68bb      	ldr	r3, [r7, #8]
 8005eda:	61fb      	str	r3, [r7, #28]
      pdata16bits = NULL;
 8005edc:	2300      	movs	r3, #0
 8005ede:	61bb      	str	r3, [r7, #24]
    }

    while (huart->TxXferCount > 0U)
 8005ee0:	e02e      	b.n	8005f40 <HAL_UART_Transmit+0xd4>
    {
      if (UART_WaitOnFlagUntilTimeout(huart, UART_FLAG_TXE, RESET, tickstart, Timeout) != HAL_OK)
 8005ee2:	683b      	ldr	r3, [r7, #0]
 8005ee4:	9300      	str	r3, [sp, #0]
 8005ee6:	697b      	ldr	r3, [r7, #20]
 8005ee8:	2200      	movs	r2, #0
 8005eea:	2180      	movs	r1, #128	@ 0x80
 8005eec:	68f8      	ldr	r0, [r7, #12]
 8005eee:	f000 fb1d 	bl	800652c <UART_WaitOnFlagUntilTimeout>
 8005ef2:	4603      	mov	r3, r0
 8005ef4:	2b00      	cmp	r3, #0
 8005ef6:	d005      	beq.n	8005f04 <HAL_UART_Transmit+0x98>
      {
        huart->gState = HAL_UART_STATE_READY;
 8005ef8:	68fb      	ldr	r3, [r7, #12]
 8005efa:	2220      	movs	r2, #32
 8005efc:	f883 2041 	strb.w	r2, [r3, #65]	@ 0x41

        return HAL_TIMEOUT;
 8005f00:	2303      	movs	r3, #3
 8005f02:	e03a      	b.n	8005f7a <HAL_UART_Transmit+0x10e>
      }
      if (pdata8bits == NULL)
 8005f04:	69fb      	ldr	r3, [r7, #28]
 8005f06:	2b00      	cmp	r3, #0
 8005f08:	d10b      	bne.n	8005f22 <HAL_UART_Transmit+0xb6>
      {
        huart->Instance->DR = (uint16_t)(*pdata16bits & 0x01FFU);
 8005f0a:	69bb      	ldr	r3, [r7, #24]
 8005f0c:	881b      	ldrh	r3, [r3, #0]
 8005f0e:	461a      	mov	r2, r3
 8005f10:	68fb      	ldr	r3, [r7, #12]
 8005f12:	681b      	ldr	r3, [r3, #0]
 8005f14:	f3c2 0208 	ubfx	r2, r2, #0, #9
 8005f18:	605a      	str	r2, [r3, #4]
        pdata16bits++;
 8005f1a:	69bb      	ldr	r3, [r7, #24]
 8005f1c:	3302      	adds	r3, #2
 8005f1e:	61bb      	str	r3, [r7, #24]
 8005f20:	e007      	b.n	8005f32 <HAL_UART_Transmit+0xc6>
      }
      else
      {
        huart->Instance->DR = (uint8_t)(*pdata8bits & 0xFFU);
 8005f22:	69fb      	ldr	r3, [r7, #28]
 8005f24:	781a      	ldrb	r2, [r3, #0]
 8005f26:	68fb      	ldr	r3, [r7, #12]
 8005f28:	681b      	ldr	r3, [r3, #0]
 8005f2a:	605a      	str	r2, [r3, #4]
        pdata8bits++;
 8005f2c:	69fb      	ldr	r3, [r7, #28]
 8005f2e:	3301      	adds	r3, #1
 8005f30:	61fb      	str	r3, [r7, #28]
      }
      huart->TxXferCount--;
 8005f32:	68fb      	ldr	r3, [r7, #12]
 8005f34:	8cdb      	ldrh	r3, [r3, #38]	@ 0x26
 8005f36:	b29b      	uxth	r3, r3
 8005f38:	3b01      	subs	r3, #1
 8005f3a:	b29a      	uxth	r2, r3
 8005f3c:	68fb      	ldr	r3, [r7, #12]
 8005f3e:	84da      	strh	r2, [r3, #38]	@ 0x26
    while (huart->TxXferCount > 0U)
 8005f40:	68fb      	ldr	r3, [r7, #12]
 8005f42:	8cdb      	ldrh	r3, [r3, #38]	@ 0x26
 8005f44:	b29b      	uxth	r3, r3
 8005f46:	2b00      	cmp	r3, #0
 8005f48:	d1cb      	bne.n	8005ee2 <HAL_UART_Transmit+0x76>
    }

    if (UART_WaitOnFlagUntilTimeout(huart, UART_FLAG_TC, RESET, tickstart, Timeout) != HAL_OK)
 8005f4a:	683b      	ldr	r3, [r7, #0]
 8005f4c:	9300      	str	r3, [sp, #0]
 8005f4e:	697b      	ldr	r3, [r7, #20]
 8005f50:	2200      	movs	r2, #0
 8005f52:	2140      	movs	r1, #64	@ 0x40
 8005f54:	68f8      	ldr	r0, [r7, #12]
 8005f56:	f000 fae9 	bl	800652c <UART_WaitOnFlagUntilTimeout>
 8005f5a:	4603      	mov	r3, r0
 8005f5c:	2b00      	cmp	r3, #0
 8005f5e:	d005      	beq.n	8005f6c <HAL_UART_Transmit+0x100>
    {
      huart->gState = HAL_UART_STATE_READY;
 8005f60:	68fb      	ldr	r3, [r7, #12]
 8005f62:	2220      	movs	r2, #32
 8005f64:	f883 2041 	strb.w	r2, [r3, #65]	@ 0x41

      return HAL_TIMEOUT;
 8005f68:	2303      	movs	r3, #3
 8005f6a:	e006      	b.n	8005f7a <HAL_UART_Transmit+0x10e>
    }

    /* At end of Tx process, restore huart->gState to Ready */
    huart->gState = HAL_UART_STATE_READY;
 8005f6c:	68fb      	ldr	r3, [r7, #12]
 8005f6e:	2220      	movs	r2, #32
 8005f70:	f883 2041 	strb.w	r2, [r3, #65]	@ 0x41

    return HAL_OK;
 8005f74:	2300      	movs	r3, #0
 8005f76:	e000      	b.n	8005f7a <HAL_UART_Transmit+0x10e>
  }
  else
  {
    return HAL_BUSY;
 8005f78:	2302      	movs	r3, #2
  }
}
 8005f7a:	4618      	mov	r0, r3
 8005f7c:	3720      	adds	r7, #32
 8005f7e:	46bd      	mov	sp, r7
 8005f80:	bd80      	pop	{r7, pc}
	...

08005f84 <HAL_UART_IRQHandler>:
  * @param  huart  Pointer to a UART_HandleTypeDef structure that contains
  *                the configuration information for the specified UART module.
  * @retval None
  */
void HAL_UART_IRQHandler(UART_HandleTypeDef *huart)
{
 8005f84:	b580      	push	{r7, lr}
 8005f86:	b0ba      	sub	sp, #232	@ 0xe8
 8005f88:	af00      	add	r7, sp, #0
 8005f8a:	6078      	str	r0, [r7, #4]
  uint32_t isrflags   = READ_REG(huart->Instance->SR);
 8005f8c:	687b      	ldr	r3, [r7, #4]
 8005f8e:	681b      	ldr	r3, [r3, #0]
 8005f90:	681b      	ldr	r3, [r3, #0]
 8005f92:	f8c7 30e4 	str.w	r3, [r7, #228]	@ 0xe4
  uint32_t cr1its     = READ_REG(huart->Instance->CR1);
 8005f96:	687b      	ldr	r3, [r7, #4]
 8005f98:	681b      	ldr	r3, [r3, #0]
 8005f9a:	68db      	ldr	r3, [r3, #12]
 8005f9c:	f8c7 30e0 	str.w	r3, [r7, #224]	@ 0xe0
  uint32_t cr3its     = READ_REG(huart->Instance->CR3);
 8005fa0:	687b      	ldr	r3, [r7, #4]
 8005fa2:	681b      	ldr	r3, [r3, #0]
 8005fa4:	695b      	ldr	r3, [r3, #20]
 8005fa6:	f8c7 30dc 	str.w	r3, [r7, #220]	@ 0xdc
  uint32_t errorflags = 0x00U;
 8005faa:	2300      	movs	r3, #0
 8005fac:	f8c7 30d8 	str.w	r3, [r7, #216]	@ 0xd8
  uint32_t dmarequest = 0x00U;
 8005fb0:	2300      	movs	r3, #0
 8005fb2:	f8c7 30d4 	str.w	r3, [r7, #212]	@ 0xd4

  /* If no error occurs */
  errorflags = (isrflags & (uint32_t)(USART_SR_PE | USART_SR_FE | USART_SR_ORE | USART_SR_NE));
 8005fb6:	f8d7 30e4 	ldr.w	r3, [r7, #228]	@ 0xe4
 8005fba:	f003 030f 	and.w	r3, r3, #15
 8005fbe:	f8c7 30d8 	str.w	r3, [r7, #216]	@ 0xd8
  if (errorflags == RESET)
 8005fc2:	f8d7 30d8 	ldr.w	r3, [r7, #216]	@ 0xd8
 8005fc6:	2b00      	cmp	r3, #0
 8005fc8:	d10f      	bne.n	8005fea <HAL_UART_IRQHandler+0x66>
  {
    /* UART in mode Receiver -------------------------------------------------*/
    if (((isrflags & USART_SR_RXNE) != RESET) && ((cr1its & USART_CR1_RXNEIE) != RESET))
 8005fca:	f8d7 30e4 	ldr.w	r3, [r7, #228]	@ 0xe4
 8005fce:	f003 0320 	and.w	r3, r3, #32
 8005fd2:	2b00      	cmp	r3, #0
 8005fd4:	d009      	beq.n	8005fea <HAL_UART_IRQHandler+0x66>
 8005fd6:	f8d7 30e0 	ldr.w	r3, [r7, #224]	@ 0xe0
 8005fda:	f003 0320 	and.w	r3, r3, #32
 8005fde:	2b00      	cmp	r3, #0
 8005fe0:	d003      	beq.n	8005fea <HAL_UART_IRQHandler+0x66>
    {
      UART_Receive_IT(huart);
 8005fe2:	6878      	ldr	r0, [r7, #4]
 8005fe4:	f000 fbd7 	bl	8006796 <UART_Receive_IT>
      return;
 8005fe8:	e273      	b.n	80064d2 <HAL_UART_IRQHandler+0x54e>
    }
  }

  /* If some errors occur */
  if ((errorflags != RESET) && (((cr3its & USART_CR3_EIE) != RESET)
 8005fea:	f8d7 30d8 	ldr.w	r3, [r7, #216]	@ 0xd8
 8005fee:	2b00      	cmp	r3, #0
 8005ff0:	f000 80de 	beq.w	80061b0 <HAL_UART_IRQHandler+0x22c>
 8005ff4:	f8d7 30dc 	ldr.w	r3, [r7, #220]	@ 0xdc
 8005ff8:	f003 0301 	and.w	r3, r3, #1
 8005ffc:	2b00      	cmp	r3, #0
 8005ffe:	d106      	bne.n	800600e <HAL_UART_IRQHandler+0x8a>
                                || ((cr1its & (USART_CR1_RXNEIE | USART_CR1_PEIE)) != RESET)))
 8006000:	f8d7 30e0 	ldr.w	r3, [r7, #224]	@ 0xe0
 8006004:	f403 7390 	and.w	r3, r3, #288	@ 0x120
 8006008:	2b00      	cmp	r3, #0
 800600a:	f000 80d1 	beq.w	80061b0 <HAL_UART_IRQHandler+0x22c>
  {
    /* UART parity error interrupt occurred ----------------------------------*/
    if (((isrflags & USART_SR_PE) != RESET) && ((cr1its & USART_CR1_PEIE) != RESET))
 800600e:	f8d7 30e4 	ldr.w	r3, [r7, #228]	@ 0xe4
 8006012:	f003 0301 	and.w	r3, r3, #1
 8006016:	2b00      	cmp	r3, #0
 8006018:	d00b      	beq.n	8006032 <HAL_UART_IRQHandler+0xae>
 800601a:	f8d7 30e0 	ldr.w	r3, [r7, #224]	@ 0xe0
 800601e:	f403 7380 	and.w	r3, r3, #256	@ 0x100
 8006022:	2b00      	cmp	r3, #0
 8006024:	d005      	beq.n	8006032 <HAL_UART_IRQHandler+0xae>
    {
      huart->ErrorCode |= HAL_UART_ERROR_PE;
 8006026:	687b      	ldr	r3, [r7, #4]
 8006028:	6c5b      	ldr	r3, [r3, #68]	@ 0x44
 800602a:	f043 0201 	orr.w	r2, r3, #1
 800602e:	687b      	ldr	r3, [r7, #4]
 8006030:	645a      	str	r2, [r3, #68]	@ 0x44
    }

    /* UART noise error interrupt occurred -----------------------------------*/
    if (((isrflags & USART_SR_NE) != RESET) && ((cr3its & USART_CR3_EIE) != RESET))
 8006032:	f8d7 30e4 	ldr.w	r3, [r7, #228]	@ 0xe4
 8006036:	f003 0304 	and.w	r3, r3, #4
 800603a:	2b00      	cmp	r3, #0
 800603c:	d00b      	beq.n	8006056 <HAL_UART_IRQHandler+0xd2>
 800603e:	f8d7 30dc 	ldr.w	r3, [r7, #220]	@ 0xdc
 8006042:	f003 0301 	and.w	r3, r3, #1
 8006046:	2b00      	cmp	r3, #0
 8006048:	d005      	beq.n	8006056 <HAL_UART_IRQHandler+0xd2>
    {
      huart->ErrorCode |= HAL_UART_ERROR_NE;
 800604a:	687b      	ldr	r3, [r7, #4]
 800604c:	6c5b      	ldr	r3, [r3, #68]	@ 0x44
 800604e:	f043 0202 	orr.w	r2, r3, #2
 8006052:	687b      	ldr	r3, [r7, #4]
 8006054:	645a      	str	r2, [r3, #68]	@ 0x44
    }

    /* UART frame error interrupt occurred -----------------------------------*/
    if (((isrflags & USART_SR_FE) != RESET) && ((cr3its & USART_CR3_EIE) != RESET))
 8006056:	f8d7 30e4 	ldr.w	r3, [r7, #228]	@ 0xe4
 800605a:	f003 0302 	and.w	r3, r3, #2
 800605e:	2b00      	cmp	r3, #0
 8006060:	d00b      	beq.n	800607a <HAL_UART_IRQHandler+0xf6>
 8006062:	f8d7 30dc 	ldr.w	r3, [r7, #220]	@ 0xdc
 8006066:	f003 0301 	and.w	r3, r3, #1
 800606a:	2b00      	cmp	r3, #0
 800606c:	d005      	beq.n	800607a <HAL_UART_IRQHandler+0xf6>
    {
      huart->ErrorCode |= HAL_UART_ERROR_FE;
 800606e:	687b      	ldr	r3, [r7, #4]
 8006070:	6c5b      	ldr	r3, [r3, #68]	@ 0x44
 8006072:	f043 0204 	orr.w	r2, r3, #4
 8006076:	687b      	ldr	r3, [r7, #4]
 8006078:	645a      	str	r2, [r3, #68]	@ 0x44
    }

    /* UART Over-Run interrupt occurred --------------------------------------*/
    if (((isrflags & USART_SR_ORE) != RESET) && (((cr1its & USART_CR1_RXNEIE) != RESET)
 800607a:	f8d7 30e4 	ldr.w	r3, [r7, #228]	@ 0xe4
 800607e:	f003 0308 	and.w	r3, r3, #8
 8006082:	2b00      	cmp	r3, #0
 8006084:	d011      	beq.n	80060aa <HAL_UART_IRQHandler+0x126>
 8006086:	f8d7 30e0 	ldr.w	r3, [r7, #224]	@ 0xe0
 800608a:	f003 0320 	and.w	r3, r3, #32
 800608e:	2b00      	cmp	r3, #0
 8006090:	d105      	bne.n	800609e <HAL_UART_IRQHandler+0x11a>
                                                 || ((cr3its & USART_CR3_EIE) != RESET)))
 8006092:	f8d7 30dc 	ldr.w	r3, [r7, #220]	@ 0xdc
 8006096:	f003 0301 	and.w	r3, r3, #1
 800609a:	2b00      	cmp	r3, #0
 800609c:	d005      	beq.n	80060aa <HAL_UART_IRQHandler+0x126>
    {
      huart->ErrorCode |= HAL_UART_ERROR_ORE;
 800609e:	687b      	ldr	r3, [r7, #4]
 80060a0:	6c5b      	ldr	r3, [r3, #68]	@ 0x44
 80060a2:	f043 0208 	orr.w	r2, r3, #8
 80060a6:	687b      	ldr	r3, [r7, #4]
 80060a8:	645a      	str	r2, [r3, #68]	@ 0x44
    }

    /* Call UART Error Call back function if need be --------------------------*/
    if (huart->ErrorCode != HAL_UART_ERROR_NONE)
 80060aa:	687b      	ldr	r3, [r7, #4]
 80060ac:	6c5b      	ldr	r3, [r3, #68]	@ 0x44
 80060ae:	2b00      	cmp	r3, #0
 80060b0:	f000 820a 	beq.w	80064c8 <HAL_UART_IRQHandler+0x544>
    {
      /* UART in mode Receiver -----------------------------------------------*/
      if (((isrflags & USART_SR_RXNE) != RESET) && ((cr1its & USART_CR1_RXNEIE) != RESET))
 80060b4:	f8d7 30e4 	ldr.w	r3, [r7, #228]	@ 0xe4
 80060b8:	f003 0320 	and.w	r3, r3, #32
 80060bc:	2b00      	cmp	r3, #0
 80060be:	d008      	beq.n	80060d2 <HAL_UART_IRQHandler+0x14e>
 80060c0:	f8d7 30e0 	ldr.w	r3, [r7, #224]	@ 0xe0
 80060c4:	f003 0320 	and.w	r3, r3, #32
 80060c8:	2b00      	cmp	r3, #0
 80060ca:	d002      	beq.n	80060d2 <HAL_UART_IRQHandler+0x14e>
      {
        UART_Receive_IT(huart);
 80060cc:	6878      	ldr	r0, [r7, #4]
 80060ce:	f000 fb62 	bl	8006796 <UART_Receive_IT>
      }

      /* If Overrun error occurs, or if any error occurs in DMA mode reception,
         consider error as blocking */
      dmarequest = HAL_IS_BIT_SET(huart->Instance->CR3, USART_CR3_DMAR);
 80060d2:	687b      	ldr	r3, [r7, #4]
 80060d4:	681b      	ldr	r3, [r3, #0]
 80060d6:	695b      	ldr	r3, [r3, #20]
 80060d8:	f003 0340 	and.w	r3, r3, #64	@ 0x40
 80060dc:	2b40      	cmp	r3, #64	@ 0x40
 80060de:	bf0c      	ite	eq
 80060e0:	2301      	moveq	r3, #1
 80060e2:	2300      	movne	r3, #0
 80060e4:	b2db      	uxtb	r3, r3
 80060e6:	f8c7 30d4 	str.w	r3, [r7, #212]	@ 0xd4
      if (((huart->ErrorCode & HAL_UART_ERROR_ORE) != RESET) || dmarequest)
 80060ea:	687b      	ldr	r3, [r7, #4]
 80060ec:	6c5b      	ldr	r3, [r3, #68]	@ 0x44
 80060ee:	f003 0308 	and.w	r3, r3, #8
 80060f2:	2b00      	cmp	r3, #0
 80060f4:	d103      	bne.n	80060fe <HAL_UART_IRQHandler+0x17a>
 80060f6:	f8d7 30d4 	ldr.w	r3, [r7, #212]	@ 0xd4
 80060fa:	2b00      	cmp	r3, #0
 80060fc:	d04f      	beq.n	800619e <HAL_UART_IRQHandler+0x21a>
      {
        /* Blocking error : transfer is aborted
           Set the UART state ready to be able to start again the process,
           Disable Rx Interrupts, and disable Rx DMA request, if ongoing */
        UART_EndRxTransfer(huart);
 80060fe:	6878      	ldr	r0, [r7, #4]
 8006100:	f000 fa6d 	bl	80065de <UART_EndRxTransfer>

        /* Disable the UART DMA Rx request if enabled */
        if (HAL_IS_BIT_SET(huart->Instance->CR3, USART_CR3_DMAR))
 8006104:	687b      	ldr	r3, [r7, #4]
 8006106:	681b      	ldr	r3, [r3, #0]
 8006108:	695b      	ldr	r3, [r3, #20]
 800610a:	f003 0340 	and.w	r3, r3, #64	@ 0x40
 800610e:	2b40      	cmp	r3, #64	@ 0x40
 8006110:	d141      	bne.n	8006196 <HAL_UART_IRQHandler+0x212>
        {
          ATOMIC_CLEAR_BIT(huart->Instance->CR3, USART_CR3_DMAR);
 8006112:	687b      	ldr	r3, [r7, #4]
 8006114:	681b      	ldr	r3, [r3, #0]
 8006116:	3314      	adds	r3, #20
 8006118:	f8c7 309c 	str.w	r3, [r7, #156]	@ 0x9c
   __ASM volatile ("ldrex %0, %1" : "=r" (result) : "Q" (*addr) );
 800611c:	f8d7 309c 	ldr.w	r3, [r7, #156]	@ 0x9c
 8006120:	e853 3f00 	ldrex	r3, [r3]
 8006124:	f8c7 3098 	str.w	r3, [r7, #152]	@ 0x98
   return(result);
 8006128:	f8d7 3098 	ldr.w	r3, [r7, #152]	@ 0x98
 800612c:	f023 0340 	bic.w	r3, r3, #64	@ 0x40
 8006130:	f8c7 30d0 	str.w	r3, [r7, #208]	@ 0xd0
 8006134:	687b      	ldr	r3, [r7, #4]
 8006136:	681b      	ldr	r3, [r3, #0]
 8006138:	3314      	adds	r3, #20
 800613a:	f8d7 20d0 	ldr.w	r2, [r7, #208]	@ 0xd0
 800613e:	f8c7 20a8 	str.w	r2, [r7, #168]	@ 0xa8
 8006142:	f8c7 30a4 	str.w	r3, [r7, #164]	@ 0xa4
   __ASM volatile ("strex %0, %2, %1" : "=&r" (result), "=Q" (*addr) : "r" (value) );
 8006146:	f8d7 10a4 	ldr.w	r1, [r7, #164]	@ 0xa4
 800614a:	f8d7 20a8 	ldr.w	r2, [r7, #168]	@ 0xa8
 800614e:	e841 2300 	strex	r3, r2, [r1]
 8006152:	f8c7 30a0 	str.w	r3, [r7, #160]	@ 0xa0
   return(result);
 8006156:	f8d7 30a0 	ldr.w	r3, [r7, #160]	@ 0xa0
 800615a:	2b00      	cmp	r3, #0
 800615c:	d1d9      	bne.n	8006112 <HAL_UART_IRQHandler+0x18e>

          /* Abort the UART DMA Rx stream */
          if (huart->hdmarx != NULL)
 800615e:	687b      	ldr	r3, [r7, #4]
 8006160:	6bdb      	ldr	r3, [r3, #60]	@ 0x3c
 8006162:	2b00      	cmp	r3, #0
 8006164:	d013      	beq.n	800618e <HAL_UART_IRQHandler+0x20a>
          {
            /* Set the UART DMA Abort callback :
               will lead to call HAL_UART_ErrorCallback() at end of DMA abort procedure */
            huart->hdmarx->XferAbortCallback = UART_DMAAbortOnError;
 8006166:	687b      	ldr	r3, [r7, #4]
 8006168:	6bdb      	ldr	r3, [r3, #60]	@ 0x3c
 800616a:	4a8a      	ldr	r2, [pc, #552]	@ (8006394 <HAL_UART_IRQHandler+0x410>)
 800616c:	651a      	str	r2, [r3, #80]	@ 0x50
            if (HAL_DMA_Abort_IT(huart->hdmarx) != HAL_OK)
 800616e:	687b      	ldr	r3, [r7, #4]
 8006170:	6bdb      	ldr	r3, [r3, #60]	@ 0x3c
 8006172:	4618      	mov	r0, r3
 8006174:	f7fc fda3 	bl	8002cbe <HAL_DMA_Abort_IT>
 8006178:	4603      	mov	r3, r0
 800617a:	2b00      	cmp	r3, #0
 800617c:	d016      	beq.n	80061ac <HAL_UART_IRQHandler+0x228>
            {
              /* Call Directly XferAbortCallback function in case of error */
              huart->hdmarx->XferAbortCallback(huart->hdmarx);
 800617e:	687b      	ldr	r3, [r7, #4]
 8006180:	6bdb      	ldr	r3, [r3, #60]	@ 0x3c
 8006182:	6d1b      	ldr	r3, [r3, #80]	@ 0x50
 8006184:	687a      	ldr	r2, [r7, #4]
 8006186:	6bd2      	ldr	r2, [r2, #60]	@ 0x3c
 8006188:	4610      	mov	r0, r2
 800618a:	4798      	blx	r3
        if (HAL_IS_BIT_SET(huart->Instance->CR3, USART_CR3_DMAR))
 800618c:	e00e      	b.n	80061ac <HAL_UART_IRQHandler+0x228>
#if (USE_HAL_UART_REGISTER_CALLBACKS == 1)
            /*Call registered error callback*/
            huart->ErrorCallback(huart);
#else
            /*Call legacy weak error callback*/
            HAL_UART_ErrorCallback(huart);
 800618e:	6878      	ldr	r0, [r7, #4]
 8006190:	f000 f9b6 	bl	8006500 <HAL_UART_ErrorCallback>
        if (HAL_IS_BIT_SET(huart->Instance->CR3, USART_CR3_DMAR))
 8006194:	e00a      	b.n	80061ac <HAL_UART_IRQHandler+0x228>
#if (USE_HAL_UART_REGISTER_CALLBACKS == 1)
          /*Call registered error callback*/
          huart->ErrorCallback(huart);
#else
          /*Call legacy weak error callback*/
          HAL_UART_ErrorCallback(huart);
 8006196:	6878      	ldr	r0, [r7, #4]
 8006198:	f000 f9b2 	bl	8006500 <HAL_UART_ErrorCallback>
        if (HAL_IS_BIT_SET(huart->Instance->CR3, USART_CR3_DMAR))
 800619c:	e006      	b.n	80061ac <HAL_UART_IRQHandler+0x228>
#if (USE_HAL_UART_REGISTER_CALLBACKS == 1)
        /*Call registered error callback*/
        huart->ErrorCallback(huart);
#else
        /*Call legacy weak error callback*/
        HAL_UART_ErrorCallback(huart);
 800619e:	6878      	ldr	r0, [r7, #4]
 80061a0:	f000 f9ae 	bl	8006500 <HAL_UART_ErrorCallback>
#endif /* USE_HAL_UART_REGISTER_CALLBACKS */

        huart->ErrorCode = HAL_UART_ERROR_NONE;
 80061a4:	687b      	ldr	r3, [r7, #4]
 80061a6:	2200      	movs	r2, #0
 80061a8:	645a      	str	r2, [r3, #68]	@ 0x44
      }
    }
    return;
 80061aa:	e18d      	b.n	80064c8 <HAL_UART_IRQHandler+0x544>
        if (HAL_IS_BIT_SET(huart->Instance->CR3, USART_CR3_DMAR))
 80061ac:	bf00      	nop
    return;
 80061ae:	e18b      	b.n	80064c8 <HAL_UART_IRQHandler+0x544>
  } /* End if some error occurs */

  /* Check current reception Mode :
     If Reception till IDLE event has been selected : */
  if ((huart->ReceptionType == HAL_UART_RECEPTION_TOIDLE)
 80061b0:	687b      	ldr	r3, [r7, #4]
 80061b2:	6b1b      	ldr	r3, [r3, #48]	@ 0x30
 80061b4:	2b01      	cmp	r3, #1
 80061b6:	f040 8167 	bne.w	8006488 <HAL_UART_IRQHandler+0x504>
      && ((isrflags & USART_SR_IDLE) != 0U)
 80061ba:	f8d7 30e4 	ldr.w	r3, [r7, #228]	@ 0xe4
 80061be:	f003 0310 	and.w	r3, r3, #16
 80061c2:	2b00      	cmp	r3, #0
 80061c4:	f000 8160 	beq.w	8006488 <HAL_UART_IRQHandler+0x504>
      && ((cr1its & USART_CR1_IDLEIE) != 0U))
 80061c8:	f8d7 30e0 	ldr.w	r3, [r7, #224]	@ 0xe0
 80061cc:	f003 0310 	and.w	r3, r3, #16
 80061d0:	2b00      	cmp	r3, #0
 80061d2:	f000 8159 	beq.w	8006488 <HAL_UART_IRQHandler+0x504>
  {
    __HAL_UART_CLEAR_IDLEFLAG(huart);
 80061d6:	2300      	movs	r3, #0
 80061d8:	60bb      	str	r3, [r7, #8]
 80061da:	687b      	ldr	r3, [r7, #4]
 80061dc:	681b      	ldr	r3, [r3, #0]
 80061de:	681b      	ldr	r3, [r3, #0]
 80061e0:	60bb      	str	r3, [r7, #8]
 80061e2:	687b      	ldr	r3, [r7, #4]
 80061e4:	681b      	ldr	r3, [r3, #0]
 80061e6:	685b      	ldr	r3, [r3, #4]
 80061e8:	60bb      	str	r3, [r7, #8]
 80061ea:	68bb      	ldr	r3, [r7, #8]

    /* Check if DMA mode is enabled in UART */
    if (HAL_IS_BIT_SET(huart->Instance->CR3, USART_CR3_DMAR))
 80061ec:	687b      	ldr	r3, [r7, #4]
 80061ee:	681b      	ldr	r3, [r3, #0]
 80061f0:	695b      	ldr	r3, [r3, #20]
 80061f2:	f003 0340 	and.w	r3, r3, #64	@ 0x40
 80061f6:	2b40      	cmp	r3, #64	@ 0x40
 80061f8:	f040 80ce 	bne.w	8006398 <HAL_UART_IRQHandler+0x414>
    {
      /* DMA mode enabled */
      /* Check received length : If all expected data are received, do nothing,
         (DMA cplt callback will be called).
         Otherwise, if at least one data has already been received, IDLE event is to be notified to user */
      uint16_t nb_remaining_rx_data = (uint16_t) __HAL_DMA_GET_COUNTER(huart->hdmarx);
 80061fc:	687b      	ldr	r3, [r7, #4]
 80061fe:	6bdb      	ldr	r3, [r3, #60]	@ 0x3c
 8006200:	681b      	ldr	r3, [r3, #0]
 8006202:	685b      	ldr	r3, [r3, #4]
 8006204:	f8a7 30be 	strh.w	r3, [r7, #190]	@ 0xbe
      if ((nb_remaining_rx_data > 0U)
 8006208:	f8b7 30be 	ldrh.w	r3, [r7, #190]	@ 0xbe
 800620c:	2b00      	cmp	r3, #0
 800620e:	f000 80a9 	beq.w	8006364 <HAL_UART_IRQHandler+0x3e0>
          && (nb_remaining_rx_data < huart->RxXferSize))
 8006212:	687b      	ldr	r3, [r7, #4]
 8006214:	8d9b      	ldrh	r3, [r3, #44]	@ 0x2c
 8006216:	f8b7 20be 	ldrh.w	r2, [r7, #190]	@ 0xbe
 800621a:	429a      	cmp	r2, r3
 800621c:	f080 80a2 	bcs.w	8006364 <HAL_UART_IRQHandler+0x3e0>
      {
        /* Reception is not complete */
        huart->RxXferCount = nb_remaining_rx_data;
 8006220:	687b      	ldr	r3, [r7, #4]
 8006222:	f8b7 20be 	ldrh.w	r2, [r7, #190]	@ 0xbe
 8006226:	85da      	strh	r2, [r3, #46]	@ 0x2e

        /* In Normal mode, end DMA xfer and HAL UART Rx process*/
        if (huart->hdmarx->Init.Mode != DMA_CIRCULAR)
 8006228:	687b      	ldr	r3, [r7, #4]
 800622a:	6bdb      	ldr	r3, [r3, #60]	@ 0x3c
 800622c:	69db      	ldr	r3, [r3, #28]
 800622e:	f5b3 7f80 	cmp.w	r3, #256	@ 0x100
 8006232:	f000 8088 	beq.w	8006346 <HAL_UART_IRQHandler+0x3c2>
        {
          /* Disable PE and ERR (Frame error, noise error, overrun error) interrupts */
          ATOMIC_CLEAR_BIT(huart->Instance->CR1, USART_CR1_PEIE);
 8006236:	687b      	ldr	r3, [r7, #4]
 8006238:	681b      	ldr	r3, [r3, #0]
 800623a:	330c      	adds	r3, #12
 800623c:	f8c7 3088 	str.w	r3, [r7, #136]	@ 0x88
   __ASM volatile ("ldrex %0, %1" : "=r" (result) : "Q" (*addr) );
 8006240:	f8d7 3088 	ldr.w	r3, [r7, #136]	@ 0x88
 8006244:	e853 3f00 	ldrex	r3, [r3]
 8006248:	f8c7 3084 	str.w	r3, [r7, #132]	@ 0x84
   return(result);
 800624c:	f8d7 3084 	ldr.w	r3, [r7, #132]	@ 0x84
 8006250:	f423 7380 	bic.w	r3, r3, #256	@ 0x100
 8006254:	f8c7 30b8 	str.w	r3, [r7, #184]	@ 0xb8
 8006258:	687b      	ldr	r3, [r7, #4]
 800625a:	681b      	ldr	r3, [r3, #0]
 800625c:	330c      	adds	r3, #12
 800625e:	f8d7 20b8 	ldr.w	r2, [r7, #184]	@ 0xb8
 8006262:	f8c7 2094 	str.w	r2, [r7, #148]	@ 0x94
 8006266:	f8c7 3090 	str.w	r3, [r7, #144]	@ 0x90
   __ASM volatile ("strex %0, %2, %1" : "=&r" (result), "=Q" (*addr) : "r" (value) );
 800626a:	f8d7 1090 	ldr.w	r1, [r7, #144]	@ 0x90
 800626e:	f8d7 2094 	ldr.w	r2, [r7, #148]	@ 0x94
 8006272:	e841 2300 	strex	r3, r2, [r1]
 8006276:	f8c7 308c 	str.w	r3, [r7, #140]	@ 0x8c
   return(result);
 800627a:	f8d7 308c 	ldr.w	r3, [r7, #140]	@ 0x8c
 800627e:	2b00      	cmp	r3, #0
 8006280:	d1d9      	bne.n	8006236 <HAL_UART_IRQHandler+0x2b2>
          ATOMIC_CLEAR_BIT(huart->Instance->CR3, USART_CR3_EIE);
 8006282:	687b      	ldr	r3, [r7, #4]
 8006284:	681b      	ldr	r3, [r3, #0]
 8006286:	3314      	adds	r3, #20
 8006288:	677b      	str	r3, [r7, #116]	@ 0x74
   __ASM volatile ("ldrex %0, %1" : "=r" (result) : "Q" (*addr) );
 800628a:	6f7b      	ldr	r3, [r7, #116]	@ 0x74
 800628c:	e853 3f00 	ldrex	r3, [r3]
 8006290:	673b      	str	r3, [r7, #112]	@ 0x70
   return(result);
 8006292:	6f3b      	ldr	r3, [r7, #112]	@ 0x70
 8006294:	f023 0301 	bic.w	r3, r3, #1
 8006298:	f8c7 30b4 	str.w	r3, [r7, #180]	@ 0xb4
 800629c:	687b      	ldr	r3, [r7, #4]
 800629e:	681b      	ldr	r3, [r3, #0]
 80062a0:	3314      	adds	r3, #20
 80062a2:	f8d7 20b4 	ldr.w	r2, [r7, #180]	@ 0xb4
 80062a6:	f8c7 2080 	str.w	r2, [r7, #128]	@ 0x80
 80062aa:	67fb      	str	r3, [r7, #124]	@ 0x7c
   __ASM volatile ("strex %0, %2, %1" : "=&r" (result), "=Q" (*addr) : "r" (value) );
 80062ac:	6ff9      	ldr	r1, [r7, #124]	@ 0x7c
 80062ae:	f8d7 2080 	ldr.w	r2, [r7, #128]	@ 0x80
 80062b2:	e841 2300 	strex	r3, r2, [r1]
 80062b6:	67bb      	str	r3, [r7, #120]	@ 0x78
   return(result);
 80062b8:	6fbb      	ldr	r3, [r7, #120]	@ 0x78
 80062ba:	2b00      	cmp	r3, #0
 80062bc:	d1e1      	bne.n	8006282 <HAL_UART_IRQHandler+0x2fe>

          /* Disable the DMA transfer for the receiver request by resetting the DMAR bit
             in the UART CR3 register */
          ATOMIC_CLEAR_BIT(huart->Instance->CR3, USART_CR3_DMAR);
 80062be:	687b      	ldr	r3, [r7, #4]
 80062c0:	681b      	ldr	r3, [r3, #0]
 80062c2:	3314      	adds	r3, #20
 80062c4:	663b      	str	r3, [r7, #96]	@ 0x60
   __ASM volatile ("ldrex %0, %1" : "=r" (result) : "Q" (*addr) );
 80062c6:	6e3b      	ldr	r3, [r7, #96]	@ 0x60
 80062c8:	e853 3f00 	ldrex	r3, [r3]
 80062cc:	65fb      	str	r3, [r7, #92]	@ 0x5c
   return(result);
 80062ce:	6dfb      	ldr	r3, [r7, #92]	@ 0x5c
 80062d0:	f023 0340 	bic.w	r3, r3, #64	@ 0x40
 80062d4:	f8c7 30b0 	str.w	r3, [r7, #176]	@ 0xb0
 80062d8:	687b      	ldr	r3, [r7, #4]
 80062da:	681b      	ldr	r3, [r3, #0]
 80062dc:	3314      	adds	r3, #20
 80062de:	f8d7 20b0 	ldr.w	r2, [r7, #176]	@ 0xb0
 80062e2:	66fa      	str	r2, [r7, #108]	@ 0x6c
 80062e4:	66bb      	str	r3, [r7, #104]	@ 0x68
   __ASM volatile ("strex %0, %2, %1" : "=&r" (result), "=Q" (*addr) : "r" (value) );
 80062e6:	6eb9      	ldr	r1, [r7, #104]	@ 0x68
 80062e8:	6efa      	ldr	r2, [r7, #108]	@ 0x6c
 80062ea:	e841 2300 	strex	r3, r2, [r1]
 80062ee:	667b      	str	r3, [r7, #100]	@ 0x64
   return(result);
 80062f0:	6e7b      	ldr	r3, [r7, #100]	@ 0x64
 80062f2:	2b00      	cmp	r3, #0
 80062f4:	d1e3      	bne.n	80062be <HAL_UART_IRQHandler+0x33a>

          /* At end of Rx process, restore huart->RxState to Ready */
          huart->RxState = HAL_UART_STATE_READY;
 80062f6:	687b      	ldr	r3, [r7, #4]
 80062f8:	2220      	movs	r2, #32
 80062fa:	f883 2042 	strb.w	r2, [r3, #66]	@ 0x42
          huart->ReceptionType = HAL_UART_RECEPTION_STANDARD;
 80062fe:	687b      	ldr	r3, [r7, #4]
 8006300:	2200      	movs	r2, #0
 8006302:	631a      	str	r2, [r3, #48]	@ 0x30

          ATOMIC_CLEAR_BIT(huart->Instance->CR1, USART_CR1_IDLEIE);
 8006304:	687b      	ldr	r3, [r7, #4]
 8006306:	681b      	ldr	r3, [r3, #0]
 8006308:	330c      	adds	r3, #12
 800630a:	64fb      	str	r3, [r7, #76]	@ 0x4c
   __ASM volatile ("ldrex %0, %1" : "=r" (result) : "Q" (*addr) );
 800630c:	6cfb      	ldr	r3, [r7, #76]	@ 0x4c
 800630e:	e853 3f00 	ldrex	r3, [r3]
 8006312:	64bb      	str	r3, [r7, #72]	@ 0x48
   return(result);
 8006314:	6cbb      	ldr	r3, [r7, #72]	@ 0x48
 8006316:	f023 0310 	bic.w	r3, r3, #16
 800631a:	f8c7 30ac 	str.w	r3, [r7, #172]	@ 0xac
 800631e:	687b      	ldr	r3, [r7, #4]
 8006320:	681b      	ldr	r3, [r3, #0]
 8006322:	330c      	adds	r3, #12
 8006324:	f8d7 20ac 	ldr.w	r2, [r7, #172]	@ 0xac
 8006328:	65ba      	str	r2, [r7, #88]	@ 0x58
 800632a:	657b      	str	r3, [r7, #84]	@ 0x54
   __ASM volatile ("strex %0, %2, %1" : "=&r" (result), "=Q" (*addr) : "r" (value) );
 800632c:	6d79      	ldr	r1, [r7, #84]	@ 0x54
 800632e:	6dba      	ldr	r2, [r7, #88]	@ 0x58
 8006330:	e841 2300 	strex	r3, r2, [r1]
 8006334:	653b      	str	r3, [r7, #80]	@ 0x50
   return(result);
 8006336:	6d3b      	ldr	r3, [r7, #80]	@ 0x50
 8006338:	2b00      	cmp	r3, #0
 800633a:	d1e3      	bne.n	8006304 <HAL_UART_IRQHandler+0x380>

          /* Last bytes received, so no need as the abort is immediate */
          (void)HAL_DMA_Abort(huart->hdmarx);
 800633c:	687b      	ldr	r3, [r7, #4]
 800633e:	6bdb      	ldr	r3, [r3, #60]	@ 0x3c
 8006340:	4618      	mov	r0, r3
 8006342:	f7fc fc4c 	bl	8002bde <HAL_DMA_Abort>
        }

        /* Initialize type of RxEvent that correspond to RxEvent callback execution;
        In this case, Rx Event type is Idle Event */
        huart->RxEventType = HAL_UART_RXEVENT_IDLE;
 8006346:	687b      	ldr	r3, [r7, #4]
 8006348:	2202      	movs	r2, #2
 800634a:	635a      	str	r2, [r3, #52]	@ 0x34
#if (USE_HAL_UART_REGISTER_CALLBACKS == 1)
        /*Call registered Rx Event callback*/
        huart->RxEventCallback(huart, (huart->RxXferSize - huart->RxXferCount));
#else
        /*Call legacy weak Rx Event callback*/
        HAL_UARTEx_RxEventCallback(huart, (huart->RxXferSize - huart->RxXferCount));
 800634c:	687b      	ldr	r3, [r7, #4]
 800634e:	8d9a      	ldrh	r2, [r3, #44]	@ 0x2c
 8006350:	687b      	ldr	r3, [r7, #4]
 8006352:	8ddb      	ldrh	r3, [r3, #46]	@ 0x2e
 8006354:	b29b      	uxth	r3, r3
 8006356:	1ad3      	subs	r3, r2, r3
 8006358:	b29b      	uxth	r3, r3
 800635a:	4619      	mov	r1, r3
 800635c:	6878      	ldr	r0, [r7, #4]
 800635e:	f000 f8d9 	bl	8006514 <HAL_UARTEx_RxEventCallback>
            HAL_UARTEx_RxEventCallback(huart, huart->RxXferSize);
#endif /* (USE_HAL_UART_REGISTER_CALLBACKS) */
          }
        }
      }
      return;
 8006362:	e0b3      	b.n	80064cc <HAL_UART_IRQHandler+0x548>
        if (nb_remaining_rx_data == huart->RxXferSize)
 8006364:	687b      	ldr	r3, [r7, #4]
 8006366:	8d9b      	ldrh	r3, [r3, #44]	@ 0x2c
 8006368:	f8b7 20be 	ldrh.w	r2, [r7, #190]	@ 0xbe
 800636c:	429a      	cmp	r2, r3
 800636e:	f040 80ad 	bne.w	80064cc <HAL_UART_IRQHandler+0x548>
          if (huart->hdmarx->Init.Mode == DMA_CIRCULAR)
 8006372:	687b      	ldr	r3, [r7, #4]
 8006374:	6bdb      	ldr	r3, [r3, #60]	@ 0x3c
 8006376:	69db      	ldr	r3, [r3, #28]
 8006378:	f5b3 7f80 	cmp.w	r3, #256	@ 0x100
 800637c:	f040 80a6 	bne.w	80064cc <HAL_UART_IRQHandler+0x548>
            huart->RxEventType = HAL_UART_RXEVENT_IDLE;
 8006380:	687b      	ldr	r3, [r7, #4]
 8006382:	2202      	movs	r2, #2
 8006384:	635a      	str	r2, [r3, #52]	@ 0x34
            HAL_UARTEx_RxEventCallback(huart, huart->RxXferSize);
 8006386:	687b      	ldr	r3, [r7, #4]
 8006388:	8d9b      	ldrh	r3, [r3, #44]	@ 0x2c
 800638a:	4619      	mov	r1, r3
 800638c:	6878      	ldr	r0, [r7, #4]
 800638e:	f000 f8c1 	bl	8006514 <HAL_UARTEx_RxEventCallback>
      return;
 8006392:	e09b      	b.n	80064cc <HAL_UART_IRQHandler+0x548>
 8006394:	080066a5 	.word	0x080066a5
    else
    {
      /* DMA mode not enabled */
      /* Check received length : If all expected data are received, do nothing.
         Otherwise, if at least one data has already been received, IDLE event is to be notified to user */
      uint16_t nb_rx_data = huart->RxXferSize - huart->RxXferCount;
 8006398:	687b      	ldr	r3, [r7, #4]
 800639a:	8d9a      	ldrh	r2, [r3, #44]	@ 0x2c
 800639c:	687b      	ldr	r3, [r7, #4]
 800639e:	8ddb      	ldrh	r3, [r3, #46]	@ 0x2e
 80063a0:	b29b      	uxth	r3, r3
 80063a2:	1ad3      	subs	r3, r2, r3
 80063a4:	f8a7 30ce 	strh.w	r3, [r7, #206]	@ 0xce
      if ((huart->RxXferCount > 0U)
 80063a8:	687b      	ldr	r3, [r7, #4]
 80063aa:	8ddb      	ldrh	r3, [r3, #46]	@ 0x2e
 80063ac:	b29b      	uxth	r3, r3
 80063ae:	2b00      	cmp	r3, #0
 80063b0:	f000 808e 	beq.w	80064d0 <HAL_UART_IRQHandler+0x54c>
          && (nb_rx_data > 0U))
 80063b4:	f8b7 30ce 	ldrh.w	r3, [r7, #206]	@ 0xce
 80063b8:	2b00      	cmp	r3, #0
 80063ba:	f000 8089 	beq.w	80064d0 <HAL_UART_IRQHandler+0x54c>
      {
        /* Disable the UART Parity Error Interrupt and RXNE interrupts */
        ATOMIC_CLEAR_BIT(huart->Instance->CR1, (USART_CR1_RXNEIE | USART_CR1_PEIE));
 80063be:	687b      	ldr	r3, [r7, #4]
 80063c0:	681b      	ldr	r3, [r3, #0]
 80063c2:	330c      	adds	r3, #12
 80063c4:	63bb      	str	r3, [r7, #56]	@ 0x38
   __ASM volatile ("ldrex %0, %1" : "=r" (result) : "Q" (*addr) );
 80063c6:	6bbb      	ldr	r3, [r7, #56]	@ 0x38
 80063c8:	e853 3f00 	ldrex	r3, [r3]
 80063cc:	637b      	str	r3, [r7, #52]	@ 0x34
   return(result);
 80063ce:	6b7b      	ldr	r3, [r7, #52]	@ 0x34
 80063d0:	f423 7390 	bic.w	r3, r3, #288	@ 0x120
 80063d4:	f8c7 30c8 	str.w	r3, [r7, #200]	@ 0xc8
 80063d8:	687b      	ldr	r3, [r7, #4]
 80063da:	681b      	ldr	r3, [r3, #0]
 80063dc:	330c      	adds	r3, #12
 80063de:	f8d7 20c8 	ldr.w	r2, [r7, #200]	@ 0xc8
 80063e2:	647a      	str	r2, [r7, #68]	@ 0x44
 80063e4:	643b      	str	r3, [r7, #64]	@ 0x40
   __ASM volatile ("strex %0, %2, %1" : "=&r" (result), "=Q" (*addr) : "r" (value) );
 80063e6:	6c39      	ldr	r1, [r7, #64]	@ 0x40
 80063e8:	6c7a      	ldr	r2, [r7, #68]	@ 0x44
 80063ea:	e841 2300 	strex	r3, r2, [r1]
 80063ee:	63fb      	str	r3, [r7, #60]	@ 0x3c
   return(result);
 80063f0:	6bfb      	ldr	r3, [r7, #60]	@ 0x3c
 80063f2:	2b00      	cmp	r3, #0
 80063f4:	d1e3      	bne.n	80063be <HAL_UART_IRQHandler+0x43a>

        /* Disable the UART Error Interrupt: (Frame error, noise error, overrun error) */
        ATOMIC_CLEAR_BIT(huart->Instance->CR3, USART_CR3_EIE);
 80063f6:	687b      	ldr	r3, [r7, #4]
 80063f8:	681b      	ldr	r3, [r3, #0]
 80063fa:	3314      	adds	r3, #20
 80063fc:	627b      	str	r3, [r7, #36]	@ 0x24
   __ASM volatile ("ldrex %0, %1" : "=r" (result) : "Q" (*addr) );
 80063fe:	6a7b      	ldr	r3, [r7, #36]	@ 0x24
 8006400:	e853 3f00 	ldrex	r3, [r3]
 8006404:	623b      	str	r3, [r7, #32]
   return(result);
 8006406:	6a3b      	ldr	r3, [r7, #32]
 8006408:	f023 0301 	bic.w	r3, r3, #1
 800640c:	f8c7 30c4 	str.w	r3, [r7, #196]	@ 0xc4
 8006410:	687b      	ldr	r3, [r7, #4]
 8006412:	681b      	ldr	r3, [r3, #0]
 8006414:	3314      	adds	r3, #20
 8006416:	f8d7 20c4 	ldr.w	r2, [r7, #196]	@ 0xc4
 800641a:	633a      	str	r2, [r7, #48]	@ 0x30
 800641c:	62fb      	str	r3, [r7, #44]	@ 0x2c
   __ASM volatile ("strex %0, %2, %1" : "=&r" (result), "=Q" (*addr) : "r" (value) );
 800641e:	6af9      	ldr	r1, [r7, #44]	@ 0x2c
 8006420:	6b3a      	ldr	r2, [r7, #48]	@ 0x30
 8006422:	e841 2300 	strex	r3, r2, [r1]
 8006426:	62bb      	str	r3, [r7, #40]	@ 0x28
   return(result);
 8006428:	6abb      	ldr	r3, [r7, #40]	@ 0x28
 800642a:	2b00      	cmp	r3, #0
 800642c:	d1e3      	bne.n	80063f6 <HAL_UART_IRQHandler+0x472>

        /* Rx process is completed, restore huart->RxState to Ready */
        huart->RxState = HAL_UART_STATE_READY;
 800642e:	687b      	ldr	r3, [r7, #4]
 8006430:	2220      	movs	r2, #32
 8006432:	f883 2042 	strb.w	r2, [r3, #66]	@ 0x42
        huart->ReceptionType = HAL_UART_RECEPTION_STANDARD;
 8006436:	687b      	ldr	r3, [r7, #4]
 8006438:	2200      	movs	r2, #0
 800643a:	631a      	str	r2, [r3, #48]	@ 0x30

        ATOMIC_CLEAR_BIT(huart->Instance->CR1, USART_CR1_IDLEIE);
 800643c:	687b      	ldr	r3, [r7, #4]
 800643e:	681b      	ldr	r3, [r3, #0]
 8006440:	330c      	adds	r3, #12
 8006442:	613b      	str	r3, [r7, #16]
   __ASM volatile ("ldrex %0, %1" : "=r" (result) : "Q" (*addr) );
 8006444:	693b      	ldr	r3, [r7, #16]
 8006446:	e853 3f00 	ldrex	r3, [r3]
 800644a:	60fb      	str	r3, [r7, #12]
   return(result);
 800644c:	68fb      	ldr	r3, [r7, #12]
 800644e:	f023 0310 	bic.w	r3, r3, #16
 8006452:	f8c7 30c0 	str.w	r3, [r7, #192]	@ 0xc0
 8006456:	687b      	ldr	r3, [r7, #4]
 8006458:	681b      	ldr	r3, [r3, #0]
 800645a:	330c      	adds	r3, #12
 800645c:	f8d7 20c0 	ldr.w	r2, [r7, #192]	@ 0xc0
 8006460:	61fa      	str	r2, [r7, #28]
 8006462:	61bb      	str	r3, [r7, #24]
   __ASM volatile ("strex %0, %2, %1" : "=&r" (result), "=Q" (*addr) : "r" (value) );
 8006464:	69b9      	ldr	r1, [r7, #24]
 8006466:	69fa      	ldr	r2, [r7, #28]
 8006468:	e841 2300 	strex	r3, r2, [r1]
 800646c:	617b      	str	r3, [r7, #20]
   return(result);
 800646e:	697b      	ldr	r3, [r7, #20]
 8006470:	2b00      	cmp	r3, #0
 8006472:	d1e3      	bne.n	800643c <HAL_UART_IRQHandler+0x4b8>

        /* Initialize type of RxEvent that correspond to RxEvent callback execution;
           In this case, Rx Event type is Idle Event */
        huart->RxEventType = HAL_UART_RXEVENT_IDLE;
 8006474:	687b      	ldr	r3, [r7, #4]
 8006476:	2202      	movs	r2, #2
 8006478:	635a      	str	r2, [r3, #52]	@ 0x34
#if (USE_HAL_UART_REGISTER_CALLBACKS == 1)
        /*Call registered Rx complete callback*/
        huart->RxEventCallback(huart, nb_rx_data);
#else
        /*Call legacy weak Rx Event callback*/
        HAL_UARTEx_RxEventCallback(huart, nb_rx_data);
 800647a:	f8b7 30ce 	ldrh.w	r3, [r7, #206]	@ 0xce
 800647e:	4619      	mov	r1, r3
 8006480:	6878      	ldr	r0, [r7, #4]
 8006482:	f000 f847 	bl	8006514 <HAL_UARTEx_RxEventCallback>
#endif /* USE_HAL_UART_REGISTER_CALLBACKS */
      }
      return;
 8006486:	e023      	b.n	80064d0 <HAL_UART_IRQHandler+0x54c>
    }
  }

  /* UART in mode Transmitter ------------------------------------------------*/
  if (((isrflags & USART_SR_TXE) != RESET) && ((cr1its & USART_CR1_TXEIE) != RESET))
 8006488:	f8d7 30e4 	ldr.w	r3, [r7, #228]	@ 0xe4
 800648c:	f003 0380 	and.w	r3, r3, #128	@ 0x80
 8006490:	2b00      	cmp	r3, #0
 8006492:	d009      	beq.n	80064a8 <HAL_UART_IRQHandler+0x524>
 8006494:	f8d7 30e0 	ldr.w	r3, [r7, #224]	@ 0xe0
 8006498:	f003 0380 	and.w	r3, r3, #128	@ 0x80
 800649c:	2b00      	cmp	r3, #0
 800649e:	d003      	beq.n	80064a8 <HAL_UART_IRQHandler+0x524>
  {
    UART_Transmit_IT(huart);
 80064a0:	6878      	ldr	r0, [r7, #4]
 80064a2:	f000 f910 	bl	80066c6 <UART_Transmit_IT>
    return;
 80064a6:	e014      	b.n	80064d2 <HAL_UART_IRQHandler+0x54e>
  }

  /* UART in mode Transmitter end --------------------------------------------*/
  if (((isrflags & USART_SR_TC) != RESET) && ((cr1its & USART_CR1_TCIE) != RESET))
 80064a8:	f8d7 30e4 	ldr.w	r3, [r7, #228]	@ 0xe4
 80064ac:	f003 0340 	and.w	r3, r3, #64	@ 0x40
 80064b0:	2b00      	cmp	r3, #0
 80064b2:	d00e      	beq.n	80064d2 <HAL_UART_IRQHandler+0x54e>
 80064b4:	f8d7 30e0 	ldr.w	r3, [r7, #224]	@ 0xe0
 80064b8:	f003 0340 	and.w	r3, r3, #64	@ 0x40
 80064bc:	2b00      	cmp	r3, #0
 80064be:	d008      	beq.n	80064d2 <HAL_UART_IRQHandler+0x54e>
  {
    UART_EndTransmit_IT(huart);
 80064c0:	6878      	ldr	r0, [r7, #4]
 80064c2:	f000 f950 	bl	8006766 <UART_EndTransmit_IT>
    return;
 80064c6:	e004      	b.n	80064d2 <HAL_UART_IRQHandler+0x54e>
    return;
 80064c8:	bf00      	nop
 80064ca:	e002      	b.n	80064d2 <HAL_UART_IRQHandler+0x54e>
      return;
 80064cc:	bf00      	nop
 80064ce:	e000      	b.n	80064d2 <HAL_UART_IRQHandler+0x54e>
      return;
 80064d0:	bf00      	nop
  }
}
 80064d2:	37e8      	adds	r7, #232	@ 0xe8
 80064d4:	46bd      	mov	sp, r7
 80064d6:	bd80      	pop	{r7, pc}

080064d8 <HAL_UART_TxCpltCallback>:
  * @param  huart  Pointer to a UART_HandleTypeDef structure that contains
  *                the configuration information for the specified UART module.
  * @retval None
  */
__weak void HAL_UART_TxCpltCallback(UART_HandleTypeDef *huart)
{
 80064d8:	b480      	push	{r7}
 80064da:	b083      	sub	sp, #12
 80064dc:	af00      	add	r7, sp, #0
 80064de:	6078      	str	r0, [r7, #4]
  /* Prevent unused argument(s) compilation warning */
  UNUSED(huart);
  /* NOTE: This function should not be modified, when the callback is needed,
           the HAL_UART_TxCpltCallback could be implemented in the user file
   */
}
 80064e0:	bf00      	nop
 80064e2:	370c      	adds	r7, #12
 80064e4:	46bd      	mov	sp, r7
 80064e6:	f85d 7b04 	ldr.w	r7, [sp], #4
 80064ea:	4770      	bx	lr

080064ec <HAL_UART_RxCpltCallback>:
  * @param  huart  Pointer to a UART_HandleTypeDef structure that contains
  *                the configuration information for the specified UART module.
  * @retval None
  */
__weak void HAL_UART_RxCpltCallback(UART_HandleTypeDef *huart)
{
 80064ec:	b480      	push	{r7}
 80064ee:	b083      	sub	sp, #12
 80064f0:	af00      	add	r7, sp, #0
 80064f2:	6078      	str	r0, [r7, #4]
  /* Prevent unused argument(s) compilation warning */
  UNUSED(huart);
  /* NOTE: This function should not be modified, when the callback is needed,
           the HAL_UART_RxCpltCallback could be implemented in the user file
   */
}
 80064f4:	bf00      	nop
 80064f6:	370c      	adds	r7, #12
 80064f8:	46bd      	mov	sp, r7
 80064fa:	f85d 7b04 	ldr.w	r7, [sp], #4
 80064fe:	4770      	bx	lr

08006500 <HAL_UART_ErrorCallback>:
  * @param  huart  Pointer to a UART_HandleTypeDef structure that contains
  *                the configuration information for the specified UART module.
  * @retval None
  */
__weak void HAL_UART_ErrorCallback(UART_HandleTypeDef *huart)
{
 8006500:	b480      	push	{r7}
 8006502:	b083      	sub	sp, #12
 8006504:	af00      	add	r7, sp, #0
 8006506:	6078      	str	r0, [r7, #4]
  /* Prevent unused argument(s) compilation warning */
  UNUSED(huart);
  /* NOTE: This function should not be modified, when the callback is needed,
           the HAL_UART_ErrorCallback could be implemented in the user file
   */
}
 8006508:	bf00      	nop
 800650a:	370c      	adds	r7, #12
 800650c:	46bd      	mov	sp, r7
 800650e:	f85d 7b04 	ldr.w	r7, [sp], #4
 8006512:	4770      	bx	lr

08006514 <HAL_UARTEx_RxEventCallback>:
  * @param  Size  Number of data available in application reception buffer (indicates a position in
  *               reception buffer until which, data are available)
  * @retval None
  */
__weak void HAL_UARTEx_RxEventCallback(UART_HandleTypeDef *huart, uint16_t Size)
{
 8006514:	b480      	push	{r7}
 8006516:	b083      	sub	sp, #12
 8006518:	af00      	add	r7, sp, #0
 800651a:	6078      	str	r0, [r7, #4]
 800651c:	460b      	mov	r3, r1
 800651e:	807b      	strh	r3, [r7, #2]
  UNUSED(Size);

  /* NOTE : This function should not be modified, when the callback is needed,
            the HAL_UARTEx_RxEventCallback can be implemented in the user file.
   */
}
 8006520:	bf00      	nop
 8006522:	370c      	adds	r7, #12
 8006524:	46bd      	mov	sp, r7
 8006526:	f85d 7b04 	ldr.w	r7, [sp], #4
 800652a:	4770      	bx	lr

0800652c <UART_WaitOnFlagUntilTimeout>:
  * @param  Timeout Timeout duration
  * @retval HAL status
  */
static HAL_StatusTypeDef UART_WaitOnFlagUntilTimeout(UART_HandleTypeDef *huart, uint32_t Flag, FlagStatus Status,
                                                     uint32_t Tickstart, uint32_t Timeout)
{
 800652c:	b580      	push	{r7, lr}
 800652e:	b086      	sub	sp, #24
 8006530:	af00      	add	r7, sp, #0
 8006532:	60f8      	str	r0, [r7, #12]
 8006534:	60b9      	str	r1, [r7, #8]
 8006536:	603b      	str	r3, [r7, #0]
 8006538:	4613      	mov	r3, r2
 800653a:	71fb      	strb	r3, [r7, #7]
  /* Wait until flag is set */
  while ((__HAL_UART_GET_FLAG(huart, Flag) ? SET : RESET) == Status)
 800653c:	e03b      	b.n	80065b6 <UART_WaitOnFlagUntilTimeout+0x8a>
  {
    /* Check for the Timeout */
    if (Timeout != HAL_MAX_DELAY)
 800653e:	6a3b      	ldr	r3, [r7, #32]
 8006540:	f1b3 3fff 	cmp.w	r3, #4294967295
 8006544:	d037      	beq.n	80065b6 <UART_WaitOnFlagUntilTimeout+0x8a>
    {
      if (((HAL_GetTick() - Tickstart) > Timeout) || (Timeout == 0U))
 8006546:	f7fc fa2d 	bl	80029a4 <HAL_GetTick>
 800654a:	4602      	mov	r2, r0
 800654c:	683b      	ldr	r3, [r7, #0]
 800654e:	1ad3      	subs	r3, r2, r3
 8006550:	6a3a      	ldr	r2, [r7, #32]
 8006552:	429a      	cmp	r2, r3
 8006554:	d302      	bcc.n	800655c <UART_WaitOnFlagUntilTimeout+0x30>
 8006556:	6a3b      	ldr	r3, [r7, #32]
 8006558:	2b00      	cmp	r3, #0
 800655a:	d101      	bne.n	8006560 <UART_WaitOnFlagUntilTimeout+0x34>
      {

        return HAL_TIMEOUT;
 800655c:	2303      	movs	r3, #3
 800655e:	e03a      	b.n	80065d6 <UART_WaitOnFlagUntilTimeout+0xaa>
      }

      if ((READ_BIT(huart->Instance->CR1, USART_CR1_RE) != 0U) && (Flag != UART_FLAG_TXE) && (Flag != UART_FLAG_TC))
 8006560:	68fb      	ldr	r3, [r7, #12]
 8006562:	681b      	ldr	r3, [r3, #0]
 8006564:	68db      	ldr	r3, [r3, #12]
 8006566:	f003 0304 	and.w	r3, r3, #4
 800656a:	2b00      	cmp	r3, #0
 800656c:	d023      	beq.n	80065b6 <UART_WaitOnFlagUntilTimeout+0x8a>
 800656e:	68bb      	ldr	r3, [r7, #8]
 8006570:	2b80      	cmp	r3, #128	@ 0x80
 8006572:	d020      	beq.n	80065b6 <UART_WaitOnFlagUntilTimeout+0x8a>
 8006574:	68bb      	ldr	r3, [r7, #8]
 8006576:	2b40      	cmp	r3, #64	@ 0x40
 8006578:	d01d      	beq.n	80065b6 <UART_WaitOnFlagUntilTimeout+0x8a>
      {
        if (__HAL_UART_GET_FLAG(huart, UART_FLAG_ORE) == SET)
 800657a:	68fb      	ldr	r3, [r7, #12]
 800657c:	681b      	ldr	r3, [r3, #0]
 800657e:	681b      	ldr	r3, [r3, #0]
 8006580:	f003 0308 	and.w	r3, r3, #8
 8006584:	2b08      	cmp	r3, #8
 8006586:	d116      	bne.n	80065b6 <UART_WaitOnFlagUntilTimeout+0x8a>
        {
          /* Clear Overrun Error flag*/
          __HAL_UART_CLEAR_OREFLAG(huart);
 8006588:	2300      	movs	r3, #0
 800658a:	617b      	str	r3, [r7, #20]
 800658c:	68fb      	ldr	r3, [r7, #12]
 800658e:	681b      	ldr	r3, [r3, #0]
 8006590:	681b      	ldr	r3, [r3, #0]
 8006592:	617b      	str	r3, [r7, #20]
 8006594:	68fb      	ldr	r3, [r7, #12]
 8006596:	681b      	ldr	r3, [r3, #0]
 8006598:	685b      	ldr	r3, [r3, #4]
 800659a:	617b      	str	r3, [r7, #20]
 800659c:	697b      	ldr	r3, [r7, #20]

          /* Blocking error : transfer is aborted
          Set the UART state ready to be able to start again the process,
          Disable Rx Interrupts if ongoing */
          UART_EndRxTransfer(huart);
 800659e:	68f8      	ldr	r0, [r7, #12]
 80065a0:	f000 f81d 	bl	80065de <UART_EndRxTransfer>

          huart->ErrorCode = HAL_UART_ERROR_ORE;
 80065a4:	68fb      	ldr	r3, [r7, #12]
 80065a6:	2208      	movs	r2, #8
 80065a8:	645a      	str	r2, [r3, #68]	@ 0x44

          /* Process Unlocked */
          __HAL_UNLOCK(huart);
 80065aa:	68fb      	ldr	r3, [r7, #12]
 80065ac:	2200      	movs	r2, #0
 80065ae:	f883 2040 	strb.w	r2, [r3, #64]	@ 0x40

          return HAL_ERROR;
 80065b2:	2301      	movs	r3, #1
 80065b4:	e00f      	b.n	80065d6 <UART_WaitOnFlagUntilTimeout+0xaa>
  while ((__HAL_UART_GET_FLAG(huart, Flag) ? SET : RESET) == Status)
 80065b6:	68fb      	ldr	r3, [r7, #12]
 80065b8:	681b      	ldr	r3, [r3, #0]
 80065ba:	681a      	ldr	r2, [r3, #0]
 80065bc:	68bb      	ldr	r3, [r7, #8]
 80065be:	4013      	ands	r3, r2
 80065c0:	68ba      	ldr	r2, [r7, #8]
 80065c2:	429a      	cmp	r2, r3
 80065c4:	bf0c      	ite	eq
 80065c6:	2301      	moveq	r3, #1
 80065c8:	2300      	movne	r3, #0
 80065ca:	b2db      	uxtb	r3, r3
 80065cc:	461a      	mov	r2, r3
 80065ce:	79fb      	ldrb	r3, [r7, #7]
 80065d0:	429a      	cmp	r2, r3
 80065d2:	d0b4      	beq.n	800653e <UART_WaitOnFlagUntilTimeout+0x12>
        }
      }
    }
  }
  return HAL_OK;
 80065d4:	2300      	movs	r3, #0
}
 80065d6:	4618      	mov	r0, r3
 80065d8:	3718      	adds	r7, #24
 80065da:	46bd      	mov	sp, r7
 80065dc:	bd80      	pop	{r7, pc}

080065de <UART_EndRxTransfer>:
  * @brief  End ongoing Rx transfer on UART peripheral (following error detection or Reception completion).
  * @param  huart UART handle.
  * @retval None
  */
static void UART_EndRxTransfer(UART_HandleTypeDef *huart)
{
 80065de:	b480      	push	{r7}
 80065e0:	b095      	sub	sp, #84	@ 0x54
 80065e2:	af00      	add	r7, sp, #0
 80065e4:	6078      	str	r0, [r7, #4]
  /* Disable RXNE, PE and ERR (Frame error, noise error, overrun error) interrupts */
  ATOMIC_CLEAR_BIT(huart->Instance->CR1, (USART_CR1_RXNEIE | USART_CR1_PEIE));
 80065e6:	687b      	ldr	r3, [r7, #4]
 80065e8:	681b      	ldr	r3, [r3, #0]
 80065ea:	330c      	adds	r3, #12
 80065ec:	637b      	str	r3, [r7, #52]	@ 0x34
   __ASM volatile ("ldrex %0, %1" : "=r" (result) : "Q" (*addr) );
 80065ee:	6b7b      	ldr	r3, [r7, #52]	@ 0x34
 80065f0:	e853 3f00 	ldrex	r3, [r3]
 80065f4:	633b      	str	r3, [r7, #48]	@ 0x30
   return(result);
 80065f6:	6b3b      	ldr	r3, [r7, #48]	@ 0x30
 80065f8:	f423 7390 	bic.w	r3, r3, #288	@ 0x120
 80065fc:	64fb      	str	r3, [r7, #76]	@ 0x4c
 80065fe:	687b      	ldr	r3, [r7, #4]
 8006600:	681b      	ldr	r3, [r3, #0]
 8006602:	330c      	adds	r3, #12
 8006604:	6cfa      	ldr	r2, [r7, #76]	@ 0x4c
 8006606:	643a      	str	r2, [r7, #64]	@ 0x40
 8006608:	63fb      	str	r3, [r7, #60]	@ 0x3c
   __ASM volatile ("strex %0, %2, %1" : "=&r" (result), "=Q" (*addr) : "r" (value) );
 800660a:	6bf9      	ldr	r1, [r7, #60]	@ 0x3c
 800660c:	6c3a      	ldr	r2, [r7, #64]	@ 0x40
 800660e:	e841 2300 	strex	r3, r2, [r1]
 8006612:	63bb      	str	r3, [r7, #56]	@ 0x38
   return(result);
 8006614:	6bbb      	ldr	r3, [r7, #56]	@ 0x38
 8006616:	2b00      	cmp	r3, #0
 8006618:	d1e5      	bne.n	80065e6 <UART_EndRxTransfer+0x8>
  ATOMIC_CLEAR_BIT(huart->Instance->CR3, USART_CR3_EIE);
 800661a:	687b      	ldr	r3, [r7, #4]
 800661c:	681b      	ldr	r3, [r3, #0]
 800661e:	3314      	adds	r3, #20
 8006620:	623b      	str	r3, [r7, #32]
   __ASM volatile ("ldrex %0, %1" : "=r" (result) : "Q" (*addr) );
 8006622:	6a3b      	ldr	r3, [r7, #32]
 8006624:	e853 3f00 	ldrex	r3, [r3]
 8006628:	61fb      	str	r3, [r7, #28]
   return(result);
 800662a:	69fb      	ldr	r3, [r7, #28]
 800662c:	f023 0301 	bic.w	r3, r3, #1
 8006630:	64bb      	str	r3, [r7, #72]	@ 0x48
 8006632:	687b      	ldr	r3, [r7, #4]
 8006634:	681b      	ldr	r3, [r3, #0]
 8006636:	3314      	adds	r3, #20
 8006638:	6cba      	ldr	r2, [r7, #72]	@ 0x48
 800663a:	62fa      	str	r2, [r7, #44]	@ 0x2c
 800663c:	62bb      	str	r3, [r7, #40]	@ 0x28
   __ASM volatile ("strex %0, %2, %1" : "=&r" (result), "=Q" (*addr) : "r" (value) );
 800663e:	6ab9      	ldr	r1, [r7, #40]	@ 0x28
 8006640:	6afa      	ldr	r2, [r7, #44]	@ 0x2c
 8006642:	e841 2300 	strex	r3, r2, [r1]
 8006646:	627b      	str	r3, [r7, #36]	@ 0x24
   return(result);
 8006648:	6a7b      	ldr	r3, [r7, #36]	@ 0x24
 800664a:	2b00      	cmp	r3, #0
 800664c:	d1e5      	bne.n	800661a <UART_EndRxTransfer+0x3c>

  /* In case of reception waiting for IDLE event, disable also the IDLE IE interrupt source */
  if (huart->ReceptionType == HAL_UART_RECEPTION_TOIDLE)
 800664e:	687b      	ldr	r3, [r7, #4]
 8006650:	6b1b      	ldr	r3, [r3, #48]	@ 0x30
 8006652:	2b01      	cmp	r3, #1
 8006654:	d119      	bne.n	800668a <UART_EndRxTransfer+0xac>
  {
    ATOMIC_CLEAR_BIT(huart->Instance->CR1, USART_CR1_IDLEIE);
 8006656:	687b      	ldr	r3, [r7, #4]
 8006658:	681b      	ldr	r3, [r3, #0]
 800665a:	330c      	adds	r3, #12
 800665c:	60fb      	str	r3, [r7, #12]
   __ASM volatile ("ldrex %0, %1" : "=r" (result) : "Q" (*addr) );
 800665e:	68fb      	ldr	r3, [r7, #12]
 8006660:	e853 3f00 	ldrex	r3, [r3]
 8006664:	60bb      	str	r3, [r7, #8]
   return(result);
 8006666:	68bb      	ldr	r3, [r7, #8]
 8006668:	f023 0310 	bic.w	r3, r3, #16
 800666c:	647b      	str	r3, [r7, #68]	@ 0x44
 800666e:	687b      	ldr	r3, [r7, #4]
 8006670:	681b      	ldr	r3, [r3, #0]
 8006672:	330c      	adds	r3, #12
 8006674:	6c7a      	ldr	r2, [r7, #68]	@ 0x44
 8006676:	61ba      	str	r2, [r7, #24]
 8006678:	617b      	str	r3, [r7, #20]
   __ASM volatile ("strex %0, %2, %1" : "=&r" (result), "=Q" (*addr) : "r" (value) );
 800667a:	6979      	ldr	r1, [r7, #20]
 800667c:	69ba      	ldr	r2, [r7, #24]
 800667e:	e841 2300 	strex	r3, r2, [r1]
 8006682:	613b      	str	r3, [r7, #16]
   return(result);
 8006684:	693b      	ldr	r3, [r7, #16]
 8006686:	2b00      	cmp	r3, #0
 8006688:	d1e5      	bne.n	8006656 <UART_EndRxTransfer+0x78>
  }

  /* At end of Rx process, restore huart->RxState to Ready */
  huart->RxState = HAL_UART_STATE_READY;
 800668a:	687b      	ldr	r3, [r7, #4]
 800668c:	2220      	movs	r2, #32
 800668e:	f883 2042 	strb.w	r2, [r3, #66]	@ 0x42
  huart->ReceptionType = HAL_UART_RECEPTION_STANDARD;
 8006692:	687b      	ldr	r3, [r7, #4]
 8006694:	2200      	movs	r2, #0
 8006696:	631a      	str	r2, [r3, #48]	@ 0x30
}
 8006698:	bf00      	nop
 800669a:	3754      	adds	r7, #84	@ 0x54
 800669c:	46bd      	mov	sp, r7
 800669e:	f85d 7b04 	ldr.w	r7, [sp], #4
 80066a2:	4770      	bx	lr

080066a4 <UART_DMAAbortOnError>:
  * @param  hdma  Pointer to a DMA_HandleTypeDef structure that contains
  *               the configuration information for the specified DMA module.
  * @retval None
  */
static void UART_DMAAbortOnError(DMA_HandleTypeDef *hdma)
{
 80066a4:	b580      	push	{r7, lr}
 80066a6:	b084      	sub	sp, #16
 80066a8:	af00      	add	r7, sp, #0
 80066aa:	6078      	str	r0, [r7, #4]
  UART_HandleTypeDef *huart = (UART_HandleTypeDef *)((DMA_HandleTypeDef *)hdma)->Parent;
 80066ac:	687b      	ldr	r3, [r7, #4]
 80066ae:	6b9b      	ldr	r3, [r3, #56]	@ 0x38
 80066b0:	60fb      	str	r3, [r7, #12]
  huart->RxXferCount = 0x00U;
 80066b2:	68fb      	ldr	r3, [r7, #12]
 80066b4:	2200      	movs	r2, #0
 80066b6:	85da      	strh	r2, [r3, #46]	@ 0x2e
#if (USE_HAL_UART_REGISTER_CALLBACKS == 1)
  /*Call registered error callback*/
  huart->ErrorCallback(huart);
#else
  /*Call legacy weak error callback*/
  HAL_UART_ErrorCallback(huart);
 80066b8:	68f8      	ldr	r0, [r7, #12]
 80066ba:	f7ff ff21 	bl	8006500 <HAL_UART_ErrorCallback>
#endif /* USE_HAL_UART_REGISTER_CALLBACKS */
}
 80066be:	bf00      	nop
 80066c0:	3710      	adds	r7, #16
 80066c2:	46bd      	mov	sp, r7
 80066c4:	bd80      	pop	{r7, pc}

080066c6 <UART_Transmit_IT>:
  * @param  huart  Pointer to a UART_HandleTypeDef structure that contains
  *                the configuration information for the specified UART module.
  * @retval HAL status
  */
static HAL_StatusTypeDef UART_Transmit_IT(UART_HandleTypeDef *huart)
{
 80066c6:	b480      	push	{r7}
 80066c8:	b085      	sub	sp, #20
 80066ca:	af00      	add	r7, sp, #0
 80066cc:	6078      	str	r0, [r7, #4]
  const uint16_t *tmp;

  /* Check that a Tx process is ongoing */
  if (huart->gState == HAL_UART_STATE_BUSY_TX)
 80066ce:	687b      	ldr	r3, [r7, #4]
 80066d0:	f893 3041 	ldrb.w	r3, [r3, #65]	@ 0x41
 80066d4:	b2db      	uxtb	r3, r3
 80066d6:	2b21      	cmp	r3, #33	@ 0x21
 80066d8:	d13e      	bne.n	8006758 <UART_Transmit_IT+0x92>
  {
    if ((huart->Init.WordLength == UART_WORDLENGTH_9B) && (huart->Init.Parity == UART_PARITY_NONE))
 80066da:	687b      	ldr	r3, [r7, #4]
 80066dc:	689b      	ldr	r3, [r3, #8]
 80066de:	f5b3 5f80 	cmp.w	r3, #4096	@ 0x1000
 80066e2:	d114      	bne.n	800670e <UART_Transmit_IT+0x48>
 80066e4:	687b      	ldr	r3, [r7, #4]
 80066e6:	691b      	ldr	r3, [r3, #16]
 80066e8:	2b00      	cmp	r3, #0
 80066ea:	d110      	bne.n	800670e <UART_Transmit_IT+0x48>
    {
      tmp = (const uint16_t *) huart->pTxBuffPtr;
 80066ec:	687b      	ldr	r3, [r7, #4]
 80066ee:	6a1b      	ldr	r3, [r3, #32]
 80066f0:	60fb      	str	r3, [r7, #12]
      huart->Instance->DR = (uint16_t)(*tmp & (uint16_t)0x01FF);
 80066f2:	68fb      	ldr	r3, [r7, #12]
 80066f4:	881b      	ldrh	r3, [r3, #0]
 80066f6:	461a      	mov	r2, r3
 80066f8:	687b      	ldr	r3, [r7, #4]
 80066fa:	681b      	ldr	r3, [r3, #0]
 80066fc:	f3c2 0208 	ubfx	r2, r2, #0, #9
 8006700:	605a      	str	r2, [r3, #4]
      huart->pTxBuffPtr += 2U;
 8006702:	687b      	ldr	r3, [r7, #4]
 8006704:	6a1b      	ldr	r3, [r3, #32]
 8006706:	1c9a      	adds	r2, r3, #2
 8006708:	687b      	ldr	r3, [r7, #4]
 800670a:	621a      	str	r2, [r3, #32]
 800670c:	e008      	b.n	8006720 <UART_Transmit_IT+0x5a>
    }
    else
    {
      huart->Instance->DR = (uint8_t)(*huart->pTxBuffPtr++ & (uint8_t)0x00FF);
 800670e:	687b      	ldr	r3, [r7, #4]
 8006710:	6a1b      	ldr	r3, [r3, #32]
 8006712:	1c59      	adds	r1, r3, #1
 8006714:	687a      	ldr	r2, [r7, #4]
 8006716:	6211      	str	r1, [r2, #32]
 8006718:	781a      	ldrb	r2, [r3, #0]
 800671a:	687b      	ldr	r3, [r7, #4]
 800671c:	681b      	ldr	r3, [r3, #0]
 800671e:	605a      	str	r2, [r3, #4]
    }

    if (--huart->TxXferCount == 0U)
 8006720:	687b      	ldr	r3, [r7, #4]
 8006722:	8cdb      	ldrh	r3, [r3, #38]	@ 0x26
 8006724:	b29b      	uxth	r3, r3
 8006726:	3b01      	subs	r3, #1
 8006728:	b29b      	uxth	r3, r3
 800672a:	687a      	ldr	r2, [r7, #4]
 800672c:	4619      	mov	r1, r3
 800672e:	84d1      	strh	r1, [r2, #38]	@ 0x26
 8006730:	2b00      	cmp	r3, #0
 8006732:	d10f      	bne.n	8006754 <UART_Transmit_IT+0x8e>
    {
      /* Disable the UART Transmit Data Register Empty Interrupt */
      __HAL_UART_DISABLE_IT(huart, UART_IT_TXE);
 8006734:	687b      	ldr	r3, [r7, #4]
 8006736:	681b      	ldr	r3, [r3, #0]
 8006738:	68da      	ldr	r2, [r3, #12]
 800673a:	687b      	ldr	r3, [r7, #4]
 800673c:	681b      	ldr	r3, [r3, #0]
 800673e:	f022 0280 	bic.w	r2, r2, #128	@ 0x80
 8006742:	60da      	str	r2, [r3, #12]

      /* Enable the UART Transmit Complete Interrupt */
      __HAL_UART_ENABLE_IT(huart, UART_IT_TC);
 8006744:	687b      	ldr	r3, [r7, #4]
 8006746:	681b      	ldr	r3, [r3, #0]
 8006748:	68da      	ldr	r2, [r3, #12]
 800674a:	687b      	ldr	r3, [r7, #4]
 800674c:	681b      	ldr	r3, [r3, #0]
 800674e:	f042 0240 	orr.w	r2, r2, #64	@ 0x40
 8006752:	60da      	str	r2, [r3, #12]
    }
    return HAL_OK;
 8006754:	2300      	movs	r3, #0
 8006756:	e000      	b.n	800675a <UART_Transmit_IT+0x94>
  }
  else
  {
    return HAL_BUSY;
 8006758:	2302      	movs	r3, #2
  }
}
 800675a:	4618      	mov	r0, r3
 800675c:	3714      	adds	r7, #20
 800675e:	46bd      	mov	sp, r7
 8006760:	f85d 7b04 	ldr.w	r7, [sp], #4
 8006764:	4770      	bx	lr

08006766 <UART_EndTransmit_IT>:
  * @param  huart  Pointer to a UART_HandleTypeDef structure that contains
  *                the configuration information for the specified UART module.
  * @retval HAL status
  */
static HAL_StatusTypeDef UART_EndTransmit_IT(UART_HandleTypeDef *huart)
{
 8006766:	b580      	push	{r7, lr}
 8006768:	b082      	sub	sp, #8
 800676a:	af00      	add	r7, sp, #0
 800676c:	6078      	str	r0, [r7, #4]
  /* Disable the UART Transmit Complete Interrupt */
  __HAL_UART_DISABLE_IT(huart, UART_IT_TC);
 800676e:	687b      	ldr	r3, [r7, #4]
 8006770:	681b      	ldr	r3, [r3, #0]
 8006772:	68da      	ldr	r2, [r3, #12]
 8006774:	687b      	ldr	r3, [r7, #4]
 8006776:	681b      	ldr	r3, [r3, #0]
 8006778:	f022 0240 	bic.w	r2, r2, #64	@ 0x40
 800677c:	60da      	str	r2, [r3, #12]

  /* Tx process is ended, restore huart->gState to Ready */
  huart->gState = HAL_UART_STATE_READY;
 800677e:	687b      	ldr	r3, [r7, #4]
 8006780:	2220      	movs	r2, #32
 8006782:	f883 2041 	strb.w	r2, [r3, #65]	@ 0x41
#if (USE_HAL_UART_REGISTER_CALLBACKS == 1)
  /*Call registered Tx complete callback*/
  huart->TxCpltCallback(huart);
#else
  /*Call legacy weak Tx complete callback*/
  HAL_UART_TxCpltCallback(huart);
 8006786:	6878      	ldr	r0, [r7, #4]
 8006788:	f7ff fea6 	bl	80064d8 <HAL_UART_TxCpltCallback>
#endif /* USE_HAL_UART_REGISTER_CALLBACKS */

  return HAL_OK;
 800678c:	2300      	movs	r3, #0
}
 800678e:	4618      	mov	r0, r3
 8006790:	3708      	adds	r7, #8
 8006792:	46bd      	mov	sp, r7
 8006794:	bd80      	pop	{r7, pc}

08006796 <UART_Receive_IT>:
  * @param  huart  Pointer to a UART_HandleTypeDef structure that contains
  *                the configuration information for the specified UART module.
  * @retval HAL status
  */
static HAL_StatusTypeDef UART_Receive_IT(UART_HandleTypeDef *huart)
{
 8006796:	b580      	push	{r7, lr}
 8006798:	b08c      	sub	sp, #48	@ 0x30
 800679a:	af00      	add	r7, sp, #0
 800679c:	6078      	str	r0, [r7, #4]
  uint8_t  *pdata8bits = NULL;
 800679e:	2300      	movs	r3, #0
 80067a0:	62fb      	str	r3, [r7, #44]	@ 0x2c
  uint16_t *pdata16bits = NULL;
 80067a2:	2300      	movs	r3, #0
 80067a4:	62bb      	str	r3, [r7, #40]	@ 0x28

  /* Check that a Rx process is ongoing */
  if (huart->RxState == HAL_UART_STATE_BUSY_RX)
 80067a6:	687b      	ldr	r3, [r7, #4]
 80067a8:	f893 3042 	ldrb.w	r3, [r3, #66]	@ 0x42
 80067ac:	b2db      	uxtb	r3, r3
 80067ae:	2b22      	cmp	r3, #34	@ 0x22
 80067b0:	f040 80aa 	bne.w	8006908 <UART_Receive_IT+0x172>
  {
    if ((huart->Init.WordLength == UART_WORDLENGTH_9B) && (huart->Init.Parity == UART_PARITY_NONE))
 80067b4:	687b      	ldr	r3, [r7, #4]
 80067b6:	689b      	ldr	r3, [r3, #8]
 80067b8:	f5b3 5f80 	cmp.w	r3, #4096	@ 0x1000
 80067bc:	d115      	bne.n	80067ea <UART_Receive_IT+0x54>
 80067be:	687b      	ldr	r3, [r7, #4]
 80067c0:	691b      	ldr	r3, [r3, #16]
 80067c2:	2b00      	cmp	r3, #0
 80067c4:	d111      	bne.n	80067ea <UART_Receive_IT+0x54>
    {
      /* Unused pdata8bits */
      UNUSED(pdata8bits);
      pdata16bits = (uint16_t *) huart->pRxBuffPtr;
 80067c6:	687b      	ldr	r3, [r7, #4]
 80067c8:	6a9b      	ldr	r3, [r3, #40]	@ 0x28
 80067ca:	62bb      	str	r3, [r7, #40]	@ 0x28
      *pdata16bits = (uint16_t)(huart->Instance->DR & (uint16_t)0x01FF);
 80067cc:	687b      	ldr	r3, [r7, #4]
 80067ce:	681b      	ldr	r3, [r3, #0]
 80067d0:	685b      	ldr	r3, [r3, #4]
 80067d2:	b29b      	uxth	r3, r3
 80067d4:	f3c3 0308 	ubfx	r3, r3, #0, #9
 80067d8:	b29a      	uxth	r2, r3
 80067da:	6abb      	ldr	r3, [r7, #40]	@ 0x28
 80067dc:	801a      	strh	r2, [r3, #0]
      huart->pRxBuffPtr += 2U;
 80067de:	687b      	ldr	r3, [r7, #4]
 80067e0:	6a9b      	ldr	r3, [r3, #40]	@ 0x28
 80067e2:	1c9a      	adds	r2, r3, #2
 80067e4:	687b      	ldr	r3, [r7, #4]
 80067e6:	629a      	str	r2, [r3, #40]	@ 0x28
 80067e8:	e024      	b.n	8006834 <UART_Receive_IT+0x9e>
    }
    else
    {
      pdata8bits = (uint8_t *) huart->pRxBuffPtr;
 80067ea:	687b      	ldr	r3, [r7, #4]
 80067ec:	6a9b      	ldr	r3, [r3, #40]	@ 0x28
 80067ee:	62fb      	str	r3, [r7, #44]	@ 0x2c
      /* Unused pdata16bits */
      UNUSED(pdata16bits);

      if ((huart->Init.WordLength == UART_WORDLENGTH_9B) || ((huart->Init.WordLength == UART_WORDLENGTH_8B) && (huart->Init.Parity == UART_PARITY_NONE)))
 80067f0:	687b      	ldr	r3, [r7, #4]
 80067f2:	689b      	ldr	r3, [r3, #8]
 80067f4:	f5b3 5f80 	cmp.w	r3, #4096	@ 0x1000
 80067f8:	d007      	beq.n	800680a <UART_Receive_IT+0x74>
 80067fa:	687b      	ldr	r3, [r7, #4]
 80067fc:	689b      	ldr	r3, [r3, #8]
 80067fe:	2b00      	cmp	r3, #0
 8006800:	d10a      	bne.n	8006818 <UART_Receive_IT+0x82>
 8006802:	687b      	ldr	r3, [r7, #4]
 8006804:	691b      	ldr	r3, [r3, #16]
 8006806:	2b00      	cmp	r3, #0
 8006808:	d106      	bne.n	8006818 <UART_Receive_IT+0x82>
      {
        *pdata8bits = (uint8_t)(huart->Instance->DR & (uint8_t)0x00FF);
 800680a:	687b      	ldr	r3, [r7, #4]
 800680c:	681b      	ldr	r3, [r3, #0]
 800680e:	685b      	ldr	r3, [r3, #4]
 8006810:	b2da      	uxtb	r2, r3
 8006812:	6afb      	ldr	r3, [r7, #44]	@ 0x2c
 8006814:	701a      	strb	r2, [r3, #0]
 8006816:	e008      	b.n	800682a <UART_Receive_IT+0x94>
      }
      else
      {
        *pdata8bits = (uint8_t)(huart->Instance->DR & (uint8_t)0x007F);
 8006818:	687b      	ldr	r3, [r7, #4]
 800681a:	681b      	ldr	r3, [r3, #0]
 800681c:	685b      	ldr	r3, [r3, #4]
 800681e:	b2db      	uxtb	r3, r3
 8006820:	f003 037f 	and.w	r3, r3, #127	@ 0x7f
 8006824:	b2da      	uxtb	r2, r3
 8006826:	6afb      	ldr	r3, [r7, #44]	@ 0x2c
 8006828:	701a      	strb	r2, [r3, #0]
      }
      huart->pRxBuffPtr += 1U;
 800682a:	687b      	ldr	r3, [r7, #4]
 800682c:	6a9b      	ldr	r3, [r3, #40]	@ 0x28
 800682e:	1c5a      	adds	r2, r3, #1
 8006830:	687b      	ldr	r3, [r7, #4]
 8006832:	629a      	str	r2, [r3, #40]	@ 0x28
    }

    if (--huart->RxXferCount == 0U)
 8006834:	687b      	ldr	r3, [r7, #4]
 8006836:	8ddb      	ldrh	r3, [r3, #46]	@ 0x2e
 8006838:	b29b      	uxth	r3, r3
 800683a:	3b01      	subs	r3, #1
 800683c:	b29b      	uxth	r3, r3
 800683e:	687a      	ldr	r2, [r7, #4]
 8006840:	4619      	mov	r1, r3
 8006842:	85d1      	strh	r1, [r2, #46]	@ 0x2e
 8006844:	2b00      	cmp	r3, #0
 8006846:	d15d      	bne.n	8006904 <UART_Receive_IT+0x16e>
    {
      /* Disable the UART Data Register not empty Interrupt */
      __HAL_UART_DISABLE_IT(huart, UART_IT_RXNE);
 8006848:	687b      	ldr	r3, [r7, #4]
 800684a:	681b      	ldr	r3, [r3, #0]
 800684c:	68da      	ldr	r2, [r3, #12]
 800684e:	687b      	ldr	r3, [r7, #4]
 8006850:	681b      	ldr	r3, [r3, #0]
 8006852:	f022 0220 	bic.w	r2, r2, #32
 8006856:	60da      	str	r2, [r3, #12]

      /* Disable the UART Parity Error Interrupt */
      __HAL_UART_DISABLE_IT(huart, UART_IT_PE);
 8006858:	687b      	ldr	r3, [r7, #4]
 800685a:	681b      	ldr	r3, [r3, #0]
 800685c:	68da      	ldr	r2, [r3, #12]
 800685e:	687b      	ldr	r3, [r7, #4]
 8006860:	681b      	ldr	r3, [r3, #0]
 8006862:	f422 7280 	bic.w	r2, r2, #256	@ 0x100
 8006866:	60da      	str	r2, [r3, #12]

      /* Disable the UART Error Interrupt: (Frame error, noise error, overrun error) */
      __HAL_UART_DISABLE_IT(huart, UART_IT_ERR);
 8006868:	687b      	ldr	r3, [r7, #4]
 800686a:	681b      	ldr	r3, [r3, #0]
 800686c:	695a      	ldr	r2, [r3, #20]
 800686e:	687b      	ldr	r3, [r7, #4]
 8006870:	681b      	ldr	r3, [r3, #0]
 8006872:	f022 0201 	bic.w	r2, r2, #1
 8006876:	615a      	str	r2, [r3, #20]

      /* Rx process is completed, restore huart->RxState to Ready */
      huart->RxState = HAL_UART_STATE_READY;
 8006878:	687b      	ldr	r3, [r7, #4]
 800687a:	2220      	movs	r2, #32
 800687c:	f883 2042 	strb.w	r2, [r3, #66]	@ 0x42

      /* Initialize type of RxEvent to Transfer Complete */
      huart->RxEventType = HAL_UART_RXEVENT_TC;
 8006880:	687b      	ldr	r3, [r7, #4]
 8006882:	2200      	movs	r2, #0
 8006884:	635a      	str	r2, [r3, #52]	@ 0x34

      /* Check current reception Mode :
         If Reception till IDLE event has been selected : */
      if (huart->ReceptionType == HAL_UART_RECEPTION_TOIDLE)
 8006886:	687b      	ldr	r3, [r7, #4]
 8006888:	6b1b      	ldr	r3, [r3, #48]	@ 0x30
 800688a:	2b01      	cmp	r3, #1
 800688c:	d135      	bne.n	80068fa <UART_Receive_IT+0x164>
      {
        /* Set reception type to Standard */
        huart->ReceptionType = HAL_UART_RECEPTION_STANDARD;
 800688e:	687b      	ldr	r3, [r7, #4]
 8006890:	2200      	movs	r2, #0
 8006892:	631a      	str	r2, [r3, #48]	@ 0x30

        /* Disable IDLE interrupt */
        ATOMIC_CLEAR_BIT(huart->Instance->CR1, USART_CR1_IDLEIE);
 8006894:	687b      	ldr	r3, [r7, #4]
 8006896:	681b      	ldr	r3, [r3, #0]
 8006898:	330c      	adds	r3, #12
 800689a:	617b      	str	r3, [r7, #20]
   __ASM volatile ("ldrex %0, %1" : "=r" (result) : "Q" (*addr) );
 800689c:	697b      	ldr	r3, [r7, #20]
 800689e:	e853 3f00 	ldrex	r3, [r3]
 80068a2:	613b      	str	r3, [r7, #16]
   return(result);
 80068a4:	693b      	ldr	r3, [r7, #16]
 80068a6:	f023 0310 	bic.w	r3, r3, #16
 80068aa:	627b      	str	r3, [r7, #36]	@ 0x24
 80068ac:	687b      	ldr	r3, [r7, #4]
 80068ae:	681b      	ldr	r3, [r3, #0]
 80068b0:	330c      	adds	r3, #12
 80068b2:	6a7a      	ldr	r2, [r7, #36]	@ 0x24
 80068b4:	623a      	str	r2, [r7, #32]
 80068b6:	61fb      	str	r3, [r7, #28]
   __ASM volatile ("strex %0, %2, %1" : "=&r" (result), "=Q" (*addr) : "r" (value) );
 80068b8:	69f9      	ldr	r1, [r7, #28]
 80068ba:	6a3a      	ldr	r2, [r7, #32]
 80068bc:	e841 2300 	strex	r3, r2, [r1]
 80068c0:	61bb      	str	r3, [r7, #24]
   return(result);
 80068c2:	69bb      	ldr	r3, [r7, #24]
 80068c4:	2b00      	cmp	r3, #0
 80068c6:	d1e5      	bne.n	8006894 <UART_Receive_IT+0xfe>

        /* Check if IDLE flag is set */
        if (__HAL_UART_GET_FLAG(huart, UART_FLAG_IDLE))
 80068c8:	687b      	ldr	r3, [r7, #4]
 80068ca:	681b      	ldr	r3, [r3, #0]
 80068cc:	681b      	ldr	r3, [r3, #0]
 80068ce:	f003 0310 	and.w	r3, r3, #16
 80068d2:	2b10      	cmp	r3, #16
 80068d4:	d10a      	bne.n	80068ec <UART_Receive_IT+0x156>
        {
          /* Clear IDLE flag in ISR */
          __HAL_UART_CLEAR_IDLEFLAG(huart);
 80068d6:	2300      	movs	r3, #0
 80068d8:	60fb      	str	r3, [r7, #12]
 80068da:	687b      	ldr	r3, [r7, #4]
 80068dc:	681b      	ldr	r3, [r3, #0]
 80068de:	681b      	ldr	r3, [r3, #0]
 80068e0:	60fb      	str	r3, [r7, #12]
 80068e2:	687b      	ldr	r3, [r7, #4]
 80068e4:	681b      	ldr	r3, [r3, #0]
 80068e6:	685b      	ldr	r3, [r3, #4]
 80068e8:	60fb      	str	r3, [r7, #12]
 80068ea:	68fb      	ldr	r3, [r7, #12]
#if (USE_HAL_UART_REGISTER_CALLBACKS == 1)
        /*Call registered Rx Event callback*/
        huart->RxEventCallback(huart, huart->RxXferSize);
#else
        /*Call legacy weak Rx Event callback*/
        HAL_UARTEx_RxEventCallback(huart, huart->RxXferSize);
 80068ec:	687b      	ldr	r3, [r7, #4]
 80068ee:	8d9b      	ldrh	r3, [r3, #44]	@ 0x2c
 80068f0:	4619      	mov	r1, r3
 80068f2:	6878      	ldr	r0, [r7, #4]
 80068f4:	f7ff fe0e 	bl	8006514 <HAL_UARTEx_RxEventCallback>
 80068f8:	e002      	b.n	8006900 <UART_Receive_IT+0x16a>
#if (USE_HAL_UART_REGISTER_CALLBACKS == 1)
        /*Call registered Rx complete callback*/
        huart->RxCpltCallback(huart);
#else
        /*Call legacy weak Rx complete callback*/
        HAL_UART_RxCpltCallback(huart);
 80068fa:	6878      	ldr	r0, [r7, #4]
 80068fc:	f7ff fdf6 	bl	80064ec <HAL_UART_RxCpltCallback>
#endif /* USE_HAL_UART_REGISTER_CALLBACKS */
      }

      return HAL_OK;
 8006900:	2300      	movs	r3, #0
 8006902:	e002      	b.n	800690a <UART_Receive_IT+0x174>
    }
    return HAL_OK;
 8006904:	2300      	movs	r3, #0
 8006906:	e000      	b.n	800690a <UART_Receive_IT+0x174>
  }
  else
  {
    return HAL_BUSY;
 8006908:	2302      	movs	r3, #2
  }
}
 800690a:	4618      	mov	r0, r3
 800690c:	3730      	adds	r7, #48	@ 0x30
 800690e:	46bd      	mov	sp, r7
 8006910:	bd80      	pop	{r7, pc}
	...

08006914 <UART_SetConfig>:
  * @param  huart  Pointer to a UART_HandleTypeDef structure that contains
  *                the configuration information for the specified UART module.
  * @retval None
  */
static void UART_SetConfig(UART_HandleTypeDef *huart)
{
 8006914:	e92d 4fb0 	stmdb	sp!, {r4, r5, r7, r8, r9, sl, fp, lr}
 8006918:	b0c0      	sub	sp, #256	@ 0x100
 800691a:	af00      	add	r7, sp, #0
 800691c:	f8c7 00f4 	str.w	r0, [r7, #244]	@ 0xf4
  assert_param(IS_UART_MODE(huart->Init.Mode));

  /*-------------------------- USART CR2 Configuration -----------------------*/
  /* Configure the UART Stop Bits: Set STOP[13:12] bits
     according to huart->Init.StopBits value */
  MODIFY_REG(huart->Instance->CR2, USART_CR2_STOP, huart->Init.StopBits);
 8006920:	f8d7 30f4 	ldr.w	r3, [r7, #244]	@ 0xf4
 8006924:	681b      	ldr	r3, [r3, #0]
 8006926:	691b      	ldr	r3, [r3, #16]
 8006928:	f423 5040 	bic.w	r0, r3, #12288	@ 0x3000
 800692c:	f8d7 30f4 	ldr.w	r3, [r7, #244]	@ 0xf4
 8006930:	68d9      	ldr	r1, [r3, #12]
 8006932:	f8d7 30f4 	ldr.w	r3, [r7, #244]	@ 0xf4
 8006936:	681a      	ldr	r2, [r3, #0]
 8006938:	ea40 0301 	orr.w	r3, r0, r1
 800693c:	6113      	str	r3, [r2, #16]
     Set the M bits according to huart->Init.WordLength value
     Set PCE and PS bits according to huart->Init.Parity value
     Set TE and RE bits according to huart->Init.Mode value
     Set OVER8 bit according to huart->Init.OverSampling value */

  tmpreg = (uint32_t)huart->Init.WordLength | huart->Init.Parity | huart->Init.Mode | huart->Init.OverSampling;
 800693e:	f8d7 30f4 	ldr.w	r3, [r7, #244]	@ 0xf4
 8006942:	689a      	ldr	r2, [r3, #8]
 8006944:	f8d7 30f4 	ldr.w	r3, [r7, #244]	@ 0xf4
 8006948:	691b      	ldr	r3, [r3, #16]
 800694a:	431a      	orrs	r2, r3
 800694c:	f8d7 30f4 	ldr.w	r3, [r7, #244]	@ 0xf4
 8006950:	695b      	ldr	r3, [r3, #20]
 8006952:	431a      	orrs	r2, r3
 8006954:	f8d7 30f4 	ldr.w	r3, [r7, #244]	@ 0xf4
 8006958:	69db      	ldr	r3, [r3, #28]
 800695a:	4313      	orrs	r3, r2
 800695c:	f8c7 30f8 	str.w	r3, [r7, #248]	@ 0xf8
  MODIFY_REG(huart->Instance->CR1,
 8006960:	f8d7 30f4 	ldr.w	r3, [r7, #244]	@ 0xf4
 8006964:	681b      	ldr	r3, [r3, #0]
 8006966:	68db      	ldr	r3, [r3, #12]
 8006968:	f423 4116 	bic.w	r1, r3, #38400	@ 0x9600
 800696c:	f021 010c 	bic.w	r1, r1, #12
 8006970:	f8d7 30f4 	ldr.w	r3, [r7, #244]	@ 0xf4
 8006974:	681a      	ldr	r2, [r3, #0]
 8006976:	f8d7 30f8 	ldr.w	r3, [r7, #248]	@ 0xf8
 800697a:	430b      	orrs	r3, r1
 800697c:	60d3      	str	r3, [r2, #12]
             (uint32_t)(USART_CR1_M | USART_CR1_PCE | USART_CR1_PS | USART_CR1_TE | USART_CR1_RE | USART_CR1_OVER8),
             tmpreg);

  /*-------------------------- USART CR3 Configuration -----------------------*/
  /* Configure the UART HFC: Set CTSE and RTSE bits according to huart->Init.HwFlowCtl value */
  MODIFY_REG(huart->Instance->CR3, (USART_CR3_RTSE | USART_CR3_CTSE), huart->Init.HwFlowCtl);
 800697e:	f8d7 30f4 	ldr.w	r3, [r7, #244]	@ 0xf4
 8006982:	681b      	ldr	r3, [r3, #0]
 8006984:	695b      	ldr	r3, [r3, #20]
 8006986:	f423 7040 	bic.w	r0, r3, #768	@ 0x300
 800698a:	f8d7 30f4 	ldr.w	r3, [r7, #244]	@ 0xf4
 800698e:	6999      	ldr	r1, [r3, #24]
 8006990:	f8d7 30f4 	ldr.w	r3, [r7, #244]	@ 0xf4
 8006994:	681a      	ldr	r2, [r3, #0]
 8006996:	ea40 0301 	orr.w	r3, r0, r1
 800699a:	6153      	str	r3, [r2, #20]
    if ((huart->Instance == USART1) || (huart->Instance == USART6) || (huart->Instance == UART9) || (huart->Instance == UART10))
    {
      pclk = HAL_RCC_GetPCLK2Freq();
    }
#elif defined(USART6)
    if ((huart->Instance == USART1) || (huart->Instance == USART6))
 800699c:	f8d7 30f4 	ldr.w	r3, [r7, #244]	@ 0xf4
 80069a0:	681a      	ldr	r2, [r3, #0]
 80069a2:	4b8f      	ldr	r3, [pc, #572]	@ (8006be0 <UART_SetConfig+0x2cc>)
 80069a4:	429a      	cmp	r2, r3
 80069a6:	d005      	beq.n	80069b4 <UART_SetConfig+0xa0>
 80069a8:	f8d7 30f4 	ldr.w	r3, [r7, #244]	@ 0xf4
 80069ac:	681a      	ldr	r2, [r3, #0]
 80069ae:	4b8d      	ldr	r3, [pc, #564]	@ (8006be4 <UART_SetConfig+0x2d0>)
 80069b0:	429a      	cmp	r2, r3
 80069b2:	d104      	bne.n	80069be <UART_SetConfig+0xaa>
    {
      pclk = HAL_RCC_GetPCLK2Freq();
 80069b4:	f7fe f9cc 	bl	8004d50 <HAL_RCC_GetPCLK2Freq>
 80069b8:	f8c7 00fc 	str.w	r0, [r7, #252]	@ 0xfc
 80069bc:	e003      	b.n	80069c6 <UART_SetConfig+0xb2>
      pclk = HAL_RCC_GetPCLK2Freq();
    }
#endif /* USART6 */
    else
    {
      pclk = HAL_RCC_GetPCLK1Freq();
 80069be:	f7fe f9b3 	bl	8004d28 <HAL_RCC_GetPCLK1Freq>
 80069c2:	f8c7 00fc 	str.w	r0, [r7, #252]	@ 0xfc
    }
  /*-------------------------- USART BRR Configuration ---------------------*/
  if (huart->Init.OverSampling == UART_OVERSAMPLING_8)
 80069c6:	f8d7 30f4 	ldr.w	r3, [r7, #244]	@ 0xf4
 80069ca:	69db      	ldr	r3, [r3, #28]
 80069cc:	f5b3 4f00 	cmp.w	r3, #32768	@ 0x8000
 80069d0:	f040 810c 	bne.w	8006bec <UART_SetConfig+0x2d8>
  {
    huart->Instance->BRR = UART_BRR_SAMPLING8(pclk, huart->Init.BaudRate);
 80069d4:	f8d7 30fc 	ldr.w	r3, [r7, #252]	@ 0xfc
 80069d8:	2200      	movs	r2, #0
 80069da:	f8c7 30e8 	str.w	r3, [r7, #232]	@ 0xe8
 80069de:	f8c7 20ec 	str.w	r2, [r7, #236]	@ 0xec
 80069e2:	e9d7 453a 	ldrd	r4, r5, [r7, #232]	@ 0xe8
 80069e6:	4622      	mov	r2, r4
 80069e8:	462b      	mov	r3, r5
 80069ea:	1891      	adds	r1, r2, r2
 80069ec:	65b9      	str	r1, [r7, #88]	@ 0x58
 80069ee:	415b      	adcs	r3, r3
 80069f0:	65fb      	str	r3, [r7, #92]	@ 0x5c
 80069f2:	e9d7 2316 	ldrd	r2, r3, [r7, #88]	@ 0x58
 80069f6:	4621      	mov	r1, r4
 80069f8:	eb12 0801 	adds.w	r8, r2, r1
 80069fc:	4629      	mov	r1, r5
 80069fe:	eb43 0901 	adc.w	r9, r3, r1
 8006a02:	f04f 0200 	mov.w	r2, #0
 8006a06:	f04f 0300 	mov.w	r3, #0
 8006a0a:	ea4f 03c9 	mov.w	r3, r9, lsl #3
 8006a0e:	ea43 7358 	orr.w	r3, r3, r8, lsr #29
 8006a12:	ea4f 02c8 	mov.w	r2, r8, lsl #3
 8006a16:	4690      	mov	r8, r2
 8006a18:	4699      	mov	r9, r3
 8006a1a:	4623      	mov	r3, r4
 8006a1c:	eb18 0303 	adds.w	r3, r8, r3
 8006a20:	f8c7 30e0 	str.w	r3, [r7, #224]	@ 0xe0
 8006a24:	462b      	mov	r3, r5
 8006a26:	eb49 0303 	adc.w	r3, r9, r3
 8006a2a:	f8c7 30e4 	str.w	r3, [r7, #228]	@ 0xe4
 8006a2e:	f8d7 30f4 	ldr.w	r3, [r7, #244]	@ 0xf4
 8006a32:	685b      	ldr	r3, [r3, #4]
 8006a34:	2200      	movs	r2, #0
 8006a36:	f8c7 30d8 	str.w	r3, [r7, #216]	@ 0xd8
 8006a3a:	f8c7 20dc 	str.w	r2, [r7, #220]	@ 0xdc
 8006a3e:	e9d7 1236 	ldrd	r1, r2, [r7, #216]	@ 0xd8
 8006a42:	460b      	mov	r3, r1
 8006a44:	18db      	adds	r3, r3, r3
 8006a46:	653b      	str	r3, [r7, #80]	@ 0x50
 8006a48:	4613      	mov	r3, r2
 8006a4a:	eb42 0303 	adc.w	r3, r2, r3
 8006a4e:	657b      	str	r3, [r7, #84]	@ 0x54
 8006a50:	e9d7 2314 	ldrd	r2, r3, [r7, #80]	@ 0x50
 8006a54:	e9d7 0138 	ldrd	r0, r1, [r7, #224]	@ 0xe0
 8006a58:	f7fa f840 	bl	8000adc <__aeabi_uldivmod>
 8006a5c:	4602      	mov	r2, r0
 8006a5e:	460b      	mov	r3, r1
 8006a60:	4b61      	ldr	r3, [pc, #388]	@ (8006be8 <UART_SetConfig+0x2d4>)
 8006a62:	fba3 2302 	umull	r2, r3, r3, r2
 8006a66:	095b      	lsrs	r3, r3, #5
 8006a68:	011c      	lsls	r4, r3, #4
 8006a6a:	f8d7 30fc 	ldr.w	r3, [r7, #252]	@ 0xfc
 8006a6e:	2200      	movs	r2, #0
 8006a70:	f8c7 30d0 	str.w	r3, [r7, #208]	@ 0xd0
 8006a74:	f8c7 20d4 	str.w	r2, [r7, #212]	@ 0xd4
 8006a78:	e9d7 8934 	ldrd	r8, r9, [r7, #208]	@ 0xd0
 8006a7c:	4642      	mov	r2, r8
 8006a7e:	464b      	mov	r3, r9
 8006a80:	1891      	adds	r1, r2, r2
 8006a82:	64b9      	str	r1, [r7, #72]	@ 0x48
 8006a84:	415b      	adcs	r3, r3
 8006a86:	64fb      	str	r3, [r7, #76]	@ 0x4c
 8006a88:	e9d7 2312 	ldrd	r2, r3, [r7, #72]	@ 0x48
 8006a8c:	4641      	mov	r1, r8
 8006a8e:	eb12 0a01 	adds.w	sl, r2, r1
 8006a92:	4649      	mov	r1, r9
 8006a94:	eb43 0b01 	adc.w	fp, r3, r1
 8006a98:	f04f 0200 	mov.w	r2, #0
 8006a9c:	f04f 0300 	mov.w	r3, #0
 8006aa0:	ea4f 03cb 	mov.w	r3, fp, lsl #3
 8006aa4:	ea43 735a 	orr.w	r3, r3, sl, lsr #29
 8006aa8:	ea4f 02ca 	mov.w	r2, sl, lsl #3
 8006aac:	4692      	mov	sl, r2
 8006aae:	469b      	mov	fp, r3
 8006ab0:	4643      	mov	r3, r8
 8006ab2:	eb1a 0303 	adds.w	r3, sl, r3
 8006ab6:	f8c7 30c8 	str.w	r3, [r7, #200]	@ 0xc8
 8006aba:	464b      	mov	r3, r9
 8006abc:	eb4b 0303 	adc.w	r3, fp, r3
 8006ac0:	f8c7 30cc 	str.w	r3, [r7, #204]	@ 0xcc
 8006ac4:	f8d7 30f4 	ldr.w	r3, [r7, #244]	@ 0xf4
 8006ac8:	685b      	ldr	r3, [r3, #4]
 8006aca:	2200      	movs	r2, #0
 8006acc:	f8c7 30c0 	str.w	r3, [r7, #192]	@ 0xc0
 8006ad0:	f8c7 20c4 	str.w	r2, [r7, #196]	@ 0xc4
 8006ad4:	e9d7 1230 	ldrd	r1, r2, [r7, #192]	@ 0xc0
 8006ad8:	460b      	mov	r3, r1
 8006ada:	18db      	adds	r3, r3, r3
 8006adc:	643b      	str	r3, [r7, #64]	@ 0x40
 8006ade:	4613      	mov	r3, r2
 8006ae0:	eb42 0303 	adc.w	r3, r2, r3
 8006ae4:	647b      	str	r3, [r7, #68]	@ 0x44
 8006ae6:	e9d7 2310 	ldrd	r2, r3, [r7, #64]	@ 0x40
 8006aea:	e9d7 0132 	ldrd	r0, r1, [r7, #200]	@ 0xc8
 8006aee:	f7f9 fff5 	bl	8000adc <__aeabi_uldivmod>
 8006af2:	4602      	mov	r2, r0
 8006af4:	460b      	mov	r3, r1
 8006af6:	4611      	mov	r1, r2
 8006af8:	4b3b      	ldr	r3, [pc, #236]	@ (8006be8 <UART_SetConfig+0x2d4>)
 8006afa:	fba3 2301 	umull	r2, r3, r3, r1
 8006afe:	095b      	lsrs	r3, r3, #5
 8006b00:	2264      	movs	r2, #100	@ 0x64
 8006b02:	fb02 f303 	mul.w	r3, r2, r3
 8006b06:	1acb      	subs	r3, r1, r3
 8006b08:	00db      	lsls	r3, r3, #3
 8006b0a:	f103 0232 	add.w	r2, r3, #50	@ 0x32
 8006b0e:	4b36      	ldr	r3, [pc, #216]	@ (8006be8 <UART_SetConfig+0x2d4>)
 8006b10:	fba3 2302 	umull	r2, r3, r3, r2
 8006b14:	095b      	lsrs	r3, r3, #5
 8006b16:	005b      	lsls	r3, r3, #1
 8006b18:	f403 73f8 	and.w	r3, r3, #496	@ 0x1f0
 8006b1c:	441c      	add	r4, r3
 8006b1e:	f8d7 30fc 	ldr.w	r3, [r7, #252]	@ 0xfc
 8006b22:	2200      	movs	r2, #0
 8006b24:	f8c7 30b8 	str.w	r3, [r7, #184]	@ 0xb8
 8006b28:	f8c7 20bc 	str.w	r2, [r7, #188]	@ 0xbc
 8006b2c:	e9d7 892e 	ldrd	r8, r9, [r7, #184]	@ 0xb8
 8006b30:	4642      	mov	r2, r8
 8006b32:	464b      	mov	r3, r9
 8006b34:	1891      	adds	r1, r2, r2
 8006b36:	63b9      	str	r1, [r7, #56]	@ 0x38
 8006b38:	415b      	adcs	r3, r3
 8006b3a:	63fb      	str	r3, [r7, #60]	@ 0x3c
 8006b3c:	e9d7 230e 	ldrd	r2, r3, [r7, #56]	@ 0x38
 8006b40:	4641      	mov	r1, r8
 8006b42:	1851      	adds	r1, r2, r1
 8006b44:	6339      	str	r1, [r7, #48]	@ 0x30
 8006b46:	4649      	mov	r1, r9
 8006b48:	414b      	adcs	r3, r1
 8006b4a:	637b      	str	r3, [r7, #52]	@ 0x34
 8006b4c:	f04f 0200 	mov.w	r2, #0
 8006b50:	f04f 0300 	mov.w	r3, #0
 8006b54:	e9d7 ab0c 	ldrd	sl, fp, [r7, #48]	@ 0x30
 8006b58:	4659      	mov	r1, fp
 8006b5a:	00cb      	lsls	r3, r1, #3
 8006b5c:	4651      	mov	r1, sl
 8006b5e:	ea43 7351 	orr.w	r3, r3, r1, lsr #29
 8006b62:	4651      	mov	r1, sl
 8006b64:	00ca      	lsls	r2, r1, #3
 8006b66:	4610      	mov	r0, r2
 8006b68:	4619      	mov	r1, r3
 8006b6a:	4603      	mov	r3, r0
 8006b6c:	4642      	mov	r2, r8
 8006b6e:	189b      	adds	r3, r3, r2
 8006b70:	f8c7 30b0 	str.w	r3, [r7, #176]	@ 0xb0
 8006b74:	464b      	mov	r3, r9
 8006b76:	460a      	mov	r2, r1
 8006b78:	eb42 0303 	adc.w	r3, r2, r3
 8006b7c:	f8c7 30b4 	str.w	r3, [r7, #180]	@ 0xb4
 8006b80:	f8d7 30f4 	ldr.w	r3, [r7, #244]	@ 0xf4
 8006b84:	685b      	ldr	r3, [r3, #4]
 8006b86:	2200      	movs	r2, #0
 8006b88:	f8c7 30a8 	str.w	r3, [r7, #168]	@ 0xa8
 8006b8c:	f8c7 20ac 	str.w	r2, [r7, #172]	@ 0xac
 8006b90:	e9d7 122a 	ldrd	r1, r2, [r7, #168]	@ 0xa8
 8006b94:	460b      	mov	r3, r1
 8006b96:	18db      	adds	r3, r3, r3
 8006b98:	62bb      	str	r3, [r7, #40]	@ 0x28
 8006b9a:	4613      	mov	r3, r2
 8006b9c:	eb42 0303 	adc.w	r3, r2, r3
 8006ba0:	62fb      	str	r3, [r7, #44]	@ 0x2c
 8006ba2:	e9d7 230a 	ldrd	r2, r3, [r7, #40]	@ 0x28
 8006ba6:	e9d7 012c 	ldrd	r0, r1, [r7, #176]	@ 0xb0
 8006baa:	f7f9 ff97 	bl	8000adc <__aeabi_uldivmod>
 8006bae:	4602      	mov	r2, r0
 8006bb0:	460b      	mov	r3, r1
 8006bb2:	4b0d      	ldr	r3, [pc, #52]	@ (8006be8 <UART_SetConfig+0x2d4>)
 8006bb4:	fba3 1302 	umull	r1, r3, r3, r2
 8006bb8:	095b      	lsrs	r3, r3, #5
 8006bba:	2164      	movs	r1, #100	@ 0x64
 8006bbc:	fb01 f303 	mul.w	r3, r1, r3
 8006bc0:	1ad3      	subs	r3, r2, r3
 8006bc2:	00db      	lsls	r3, r3, #3
 8006bc4:	3332      	adds	r3, #50	@ 0x32
 8006bc6:	4a08      	ldr	r2, [pc, #32]	@ (8006be8 <UART_SetConfig+0x2d4>)
 8006bc8:	fba2 2303 	umull	r2, r3, r2, r3
 8006bcc:	095b      	lsrs	r3, r3, #5
 8006bce:	f003 0207 	and.w	r2, r3, #7
 8006bd2:	f8d7 30f4 	ldr.w	r3, [r7, #244]	@ 0xf4
 8006bd6:	681b      	ldr	r3, [r3, #0]
 8006bd8:	4422      	add	r2, r4
 8006bda:	609a      	str	r2, [r3, #8]
  }
  else
  {
    huart->Instance->BRR = UART_BRR_SAMPLING16(pclk, huart->Init.BaudRate);
  }
}
 8006bdc:	e106      	b.n	8006dec <UART_SetConfig+0x4d8>
 8006bde:	bf00      	nop
 8006be0:	40011000 	.word	0x40011000
 8006be4:	40011400 	.word	0x40011400
 8006be8:	51eb851f 	.word	0x51eb851f
    huart->Instance->BRR = UART_BRR_SAMPLING16(pclk, huart->Init.BaudRate);
 8006bec:	f8d7 30fc 	ldr.w	r3, [r7, #252]	@ 0xfc
 8006bf0:	2200      	movs	r2, #0
 8006bf2:	f8c7 30a0 	str.w	r3, [r7, #160]	@ 0xa0
 8006bf6:	f8c7 20a4 	str.w	r2, [r7, #164]	@ 0xa4
 8006bfa:	e9d7 8928 	ldrd	r8, r9, [r7, #160]	@ 0xa0
 8006bfe:	4642      	mov	r2, r8
 8006c00:	464b      	mov	r3, r9
 8006c02:	1891      	adds	r1, r2, r2
 8006c04:	6239      	str	r1, [r7, #32]
 8006c06:	415b      	adcs	r3, r3
 8006c08:	627b      	str	r3, [r7, #36]	@ 0x24
 8006c0a:	e9d7 2308 	ldrd	r2, r3, [r7, #32]
 8006c0e:	4641      	mov	r1, r8
 8006c10:	1854      	adds	r4, r2, r1
 8006c12:	4649      	mov	r1, r9
 8006c14:	eb43 0501 	adc.w	r5, r3, r1
 8006c18:	f04f 0200 	mov.w	r2, #0
 8006c1c:	f04f 0300 	mov.w	r3, #0
 8006c20:	00eb      	lsls	r3, r5, #3
 8006c22:	ea43 7354 	orr.w	r3, r3, r4, lsr #29
 8006c26:	00e2      	lsls	r2, r4, #3
 8006c28:	4614      	mov	r4, r2
 8006c2a:	461d      	mov	r5, r3
 8006c2c:	4643      	mov	r3, r8
 8006c2e:	18e3      	adds	r3, r4, r3
 8006c30:	f8c7 3098 	str.w	r3, [r7, #152]	@ 0x98
 8006c34:	464b      	mov	r3, r9
 8006c36:	eb45 0303 	adc.w	r3, r5, r3
 8006c3a:	f8c7 309c 	str.w	r3, [r7, #156]	@ 0x9c
 8006c3e:	f8d7 30f4 	ldr.w	r3, [r7, #244]	@ 0xf4
 8006c42:	685b      	ldr	r3, [r3, #4]
 8006c44:	2200      	movs	r2, #0
 8006c46:	f8c7 3090 	str.w	r3, [r7, #144]	@ 0x90
 8006c4a:	f8c7 2094 	str.w	r2, [r7, #148]	@ 0x94
 8006c4e:	f04f 0200 	mov.w	r2, #0
 8006c52:	f04f 0300 	mov.w	r3, #0
 8006c56:	e9d7 4524 	ldrd	r4, r5, [r7, #144]	@ 0x90
 8006c5a:	4629      	mov	r1, r5
 8006c5c:	008b      	lsls	r3, r1, #2
 8006c5e:	4621      	mov	r1, r4
 8006c60:	ea43 7391 	orr.w	r3, r3, r1, lsr #30
 8006c64:	4621      	mov	r1, r4
 8006c66:	008a      	lsls	r2, r1, #2
 8006c68:	e9d7 0126 	ldrd	r0, r1, [r7, #152]	@ 0x98
 8006c6c:	f7f9 ff36 	bl	8000adc <__aeabi_uldivmod>
 8006c70:	4602      	mov	r2, r0
 8006c72:	460b      	mov	r3, r1
 8006c74:	4b60      	ldr	r3, [pc, #384]	@ (8006df8 <UART_SetConfig+0x4e4>)
 8006c76:	fba3 2302 	umull	r2, r3, r3, r2
 8006c7a:	095b      	lsrs	r3, r3, #5
 8006c7c:	011c      	lsls	r4, r3, #4
 8006c7e:	f8d7 30fc 	ldr.w	r3, [r7, #252]	@ 0xfc
 8006c82:	2200      	movs	r2, #0
 8006c84:	f8c7 3088 	str.w	r3, [r7, #136]	@ 0x88
 8006c88:	f8c7 208c 	str.w	r2, [r7, #140]	@ 0x8c
 8006c8c:	e9d7 8922 	ldrd	r8, r9, [r7, #136]	@ 0x88
 8006c90:	4642      	mov	r2, r8
 8006c92:	464b      	mov	r3, r9
 8006c94:	1891      	adds	r1, r2, r2
 8006c96:	61b9      	str	r1, [r7, #24]
 8006c98:	415b      	adcs	r3, r3
 8006c9a:	61fb      	str	r3, [r7, #28]
 8006c9c:	e9d7 2306 	ldrd	r2, r3, [r7, #24]
 8006ca0:	4641      	mov	r1, r8
 8006ca2:	1851      	adds	r1, r2, r1
 8006ca4:	6139      	str	r1, [r7, #16]
 8006ca6:	4649      	mov	r1, r9
 8006ca8:	414b      	adcs	r3, r1
 8006caa:	617b      	str	r3, [r7, #20]
 8006cac:	f04f 0200 	mov.w	r2, #0
 8006cb0:	f04f 0300 	mov.w	r3, #0
 8006cb4:	e9d7 ab04 	ldrd	sl, fp, [r7, #16]
 8006cb8:	4659      	mov	r1, fp
 8006cba:	00cb      	lsls	r3, r1, #3
 8006cbc:	4651      	mov	r1, sl
 8006cbe:	ea43 7351 	orr.w	r3, r3, r1, lsr #29
 8006cc2:	4651      	mov	r1, sl
 8006cc4:	00ca      	lsls	r2, r1, #3
 8006cc6:	4610      	mov	r0, r2
 8006cc8:	4619      	mov	r1, r3
 8006cca:	4603      	mov	r3, r0
 8006ccc:	4642      	mov	r2, r8
 8006cce:	189b      	adds	r3, r3, r2
 8006cd0:	f8c7 3080 	str.w	r3, [r7, #128]	@ 0x80
 8006cd4:	464b      	mov	r3, r9
 8006cd6:	460a      	mov	r2, r1
 8006cd8:	eb42 0303 	adc.w	r3, r2, r3
 8006cdc:	f8c7 3084 	str.w	r3, [r7, #132]	@ 0x84
 8006ce0:	f8d7 30f4 	ldr.w	r3, [r7, #244]	@ 0xf4
 8006ce4:	685b      	ldr	r3, [r3, #4]
 8006ce6:	2200      	movs	r2, #0
 8006ce8:	67bb      	str	r3, [r7, #120]	@ 0x78
 8006cea:	67fa      	str	r2, [r7, #124]	@ 0x7c
 8006cec:	f04f 0200 	mov.w	r2, #0
 8006cf0:	f04f 0300 	mov.w	r3, #0
 8006cf4:	e9d7 891e 	ldrd	r8, r9, [r7, #120]	@ 0x78
 8006cf8:	4649      	mov	r1, r9
 8006cfa:	008b      	lsls	r3, r1, #2
 8006cfc:	4641      	mov	r1, r8
 8006cfe:	ea43 7391 	orr.w	r3, r3, r1, lsr #30
 8006d02:	4641      	mov	r1, r8
 8006d04:	008a      	lsls	r2, r1, #2
 8006d06:	e9d7 0120 	ldrd	r0, r1, [r7, #128]	@ 0x80
 8006d0a:	f7f9 fee7 	bl	8000adc <__aeabi_uldivmod>
 8006d0e:	4602      	mov	r2, r0
 8006d10:	460b      	mov	r3, r1
 8006d12:	4611      	mov	r1, r2
 8006d14:	4b38      	ldr	r3, [pc, #224]	@ (8006df8 <UART_SetConfig+0x4e4>)
 8006d16:	fba3 2301 	umull	r2, r3, r3, r1
 8006d1a:	095b      	lsrs	r3, r3, #5
 8006d1c:	2264      	movs	r2, #100	@ 0x64
 8006d1e:	fb02 f303 	mul.w	r3, r2, r3
 8006d22:	1acb      	subs	r3, r1, r3
 8006d24:	011b      	lsls	r3, r3, #4
 8006d26:	3332      	adds	r3, #50	@ 0x32
 8006d28:	4a33      	ldr	r2, [pc, #204]	@ (8006df8 <UART_SetConfig+0x4e4>)
 8006d2a:	fba2 2303 	umull	r2, r3, r2, r3
 8006d2e:	095b      	lsrs	r3, r3, #5
 8006d30:	f003 03f0 	and.w	r3, r3, #240	@ 0xf0
 8006d34:	441c      	add	r4, r3
 8006d36:	f8d7 30fc 	ldr.w	r3, [r7, #252]	@ 0xfc
 8006d3a:	2200      	movs	r2, #0
 8006d3c:	673b      	str	r3, [r7, #112]	@ 0x70
 8006d3e:	677a      	str	r2, [r7, #116]	@ 0x74
 8006d40:	e9d7 891c 	ldrd	r8, r9, [r7, #112]	@ 0x70
 8006d44:	4642      	mov	r2, r8
 8006d46:	464b      	mov	r3, r9
 8006d48:	1891      	adds	r1, r2, r2
 8006d4a:	60b9      	str	r1, [r7, #8]
 8006d4c:	415b      	adcs	r3, r3
 8006d4e:	60fb      	str	r3, [r7, #12]
 8006d50:	e9d7 2302 	ldrd	r2, r3, [r7, #8]
 8006d54:	4641      	mov	r1, r8
 8006d56:	1851      	adds	r1, r2, r1
 8006d58:	6039      	str	r1, [r7, #0]
 8006d5a:	4649      	mov	r1, r9
 8006d5c:	414b      	adcs	r3, r1
 8006d5e:	607b      	str	r3, [r7, #4]
 8006d60:	f04f 0200 	mov.w	r2, #0
 8006d64:	f04f 0300 	mov.w	r3, #0
 8006d68:	e9d7 ab00 	ldrd	sl, fp, [r7]
 8006d6c:	4659      	mov	r1, fp
 8006d6e:	00cb      	lsls	r3, r1, #3
 8006d70:	4651      	mov	r1, sl
 8006d72:	ea43 7351 	orr.w	r3, r3, r1, lsr #29
 8006d76:	4651      	mov	r1, sl
 8006d78:	00ca      	lsls	r2, r1, #3
 8006d7a:	4610      	mov	r0, r2
 8006d7c:	4619      	mov	r1, r3
 8006d7e:	4603      	mov	r3, r0
 8006d80:	4642      	mov	r2, r8
 8006d82:	189b      	adds	r3, r3, r2
 8006d84:	66bb      	str	r3, [r7, #104]	@ 0x68
 8006d86:	464b      	mov	r3, r9
 8006d88:	460a      	mov	r2, r1
 8006d8a:	eb42 0303 	adc.w	r3, r2, r3
 8006d8e:	66fb      	str	r3, [r7, #108]	@ 0x6c
 8006d90:	f8d7 30f4 	ldr.w	r3, [r7, #244]	@ 0xf4
 8006d94:	685b      	ldr	r3, [r3, #4]
 8006d96:	2200      	movs	r2, #0
 8006d98:	663b      	str	r3, [r7, #96]	@ 0x60
 8006d9a:	667a      	str	r2, [r7, #100]	@ 0x64
 8006d9c:	f04f 0200 	mov.w	r2, #0
 8006da0:	f04f 0300 	mov.w	r3, #0
 8006da4:	e9d7 8918 	ldrd	r8, r9, [r7, #96]	@ 0x60
 8006da8:	4649      	mov	r1, r9
 8006daa:	008b      	lsls	r3, r1, #2
 8006dac:	4641      	mov	r1, r8
 8006dae:	ea43 7391 	orr.w	r3, r3, r1, lsr #30
 8006db2:	4641      	mov	r1, r8
 8006db4:	008a      	lsls	r2, r1, #2
 8006db6:	e9d7 011a 	ldrd	r0, r1, [r7, #104]	@ 0x68
 8006dba:	f7f9 fe8f 	bl	8000adc <__aeabi_uldivmod>
 8006dbe:	4602      	mov	r2, r0
 8006dc0:	460b      	mov	r3, r1
 8006dc2:	4b0d      	ldr	r3, [pc, #52]	@ (8006df8 <UART_SetConfig+0x4e4>)
 8006dc4:	fba3 1302 	umull	r1, r3, r3, r2
 8006dc8:	095b      	lsrs	r3, r3, #5
 8006dca:	2164      	movs	r1, #100	@ 0x64
 8006dcc:	fb01 f303 	mul.w	r3, r1, r3
 8006dd0:	1ad3      	subs	r3, r2, r3
 8006dd2:	011b      	lsls	r3, r3, #4
 8006dd4:	3332      	adds	r3, #50	@ 0x32
 8006dd6:	4a08      	ldr	r2, [pc, #32]	@ (8006df8 <UART_SetConfig+0x4e4>)
 8006dd8:	fba2 2303 	umull	r2, r3, r2, r3
 8006ddc:	095b      	lsrs	r3, r3, #5
 8006dde:	f003 020f 	and.w	r2, r3, #15
 8006de2:	f8d7 30f4 	ldr.w	r3, [r7, #244]	@ 0xf4
 8006de6:	681b      	ldr	r3, [r3, #0]
 8006de8:	4422      	add	r2, r4
 8006dea:	609a      	str	r2, [r3, #8]
}
 8006dec:	bf00      	nop
 8006dee:	f507 7780 	add.w	r7, r7, #256	@ 0x100
 8006df2:	46bd      	mov	sp, r7
 8006df4:	e8bd 8fb0 	ldmia.w	sp!, {r4, r5, r7, r8, r9, sl, fp, pc}
 8006df8:	51eb851f 	.word	0x51eb851f

08006dfc <siprintf>:
 8006dfc:	b40e      	push	{r1, r2, r3}
 8006dfe:	b510      	push	{r4, lr}
 8006e00:	b09d      	sub	sp, #116	@ 0x74
 8006e02:	ab1f      	add	r3, sp, #124	@ 0x7c
 8006e04:	9002      	str	r0, [sp, #8]
 8006e06:	9006      	str	r0, [sp, #24]
 8006e08:	f06f 4100 	mvn.w	r1, #2147483648	@ 0x80000000
 8006e0c:	480a      	ldr	r0, [pc, #40]	@ (8006e38 <siprintf+0x3c>)
 8006e0e:	9107      	str	r1, [sp, #28]
 8006e10:	9104      	str	r1, [sp, #16]
 8006e12:	490a      	ldr	r1, [pc, #40]	@ (8006e3c <siprintf+0x40>)
 8006e14:	f853 2b04 	ldr.w	r2, [r3], #4
 8006e18:	9105      	str	r1, [sp, #20]
 8006e1a:	2400      	movs	r4, #0
 8006e1c:	a902      	add	r1, sp, #8
 8006e1e:	6800      	ldr	r0, [r0, #0]
 8006e20:	9301      	str	r3, [sp, #4]
 8006e22:	941b      	str	r4, [sp, #108]	@ 0x6c
 8006e24:	f000 f994 	bl	8007150 <_svfiprintf_r>
 8006e28:	9b02      	ldr	r3, [sp, #8]
 8006e2a:	701c      	strb	r4, [r3, #0]
 8006e2c:	b01d      	add	sp, #116	@ 0x74
 8006e2e:	e8bd 4010 	ldmia.w	sp!, {r4, lr}
 8006e32:	b003      	add	sp, #12
 8006e34:	4770      	bx	lr
 8006e36:	bf00      	nop
 8006e38:	20000034 	.word	0x20000034
 8006e3c:	ffff0208 	.word	0xffff0208

08006e40 <memset>:
 8006e40:	4402      	add	r2, r0
 8006e42:	4603      	mov	r3, r0
 8006e44:	4293      	cmp	r3, r2
 8006e46:	d100      	bne.n	8006e4a <memset+0xa>
 8006e48:	4770      	bx	lr
 8006e4a:	f803 1b01 	strb.w	r1, [r3], #1
 8006e4e:	e7f9      	b.n	8006e44 <memset+0x4>

08006e50 <__errno>:
 8006e50:	4b01      	ldr	r3, [pc, #4]	@ (8006e58 <__errno+0x8>)
 8006e52:	6818      	ldr	r0, [r3, #0]
 8006e54:	4770      	bx	lr
 8006e56:	bf00      	nop
 8006e58:	20000034 	.word	0x20000034

08006e5c <__libc_init_array>:
 8006e5c:	b570      	push	{r4, r5, r6, lr}
 8006e5e:	4d0d      	ldr	r5, [pc, #52]	@ (8006e94 <__libc_init_array+0x38>)
 8006e60:	4c0d      	ldr	r4, [pc, #52]	@ (8006e98 <__libc_init_array+0x3c>)
 8006e62:	1b64      	subs	r4, r4, r5
 8006e64:	10a4      	asrs	r4, r4, #2
 8006e66:	2600      	movs	r6, #0
 8006e68:	42a6      	cmp	r6, r4
 8006e6a:	d109      	bne.n	8006e80 <__libc_init_array+0x24>
 8006e6c:	4d0b      	ldr	r5, [pc, #44]	@ (8006e9c <__libc_init_array+0x40>)
 8006e6e:	4c0c      	ldr	r4, [pc, #48]	@ (8006ea0 <__libc_init_array+0x44>)
 8006e70:	f000 fc64 	bl	800773c <_init>
 8006e74:	1b64      	subs	r4, r4, r5
 8006e76:	10a4      	asrs	r4, r4, #2
 8006e78:	2600      	movs	r6, #0
 8006e7a:	42a6      	cmp	r6, r4
 8006e7c:	d105      	bne.n	8006e8a <__libc_init_array+0x2e>
 8006e7e:	bd70      	pop	{r4, r5, r6, pc}
 8006e80:	f855 3b04 	ldr.w	r3, [r5], #4
 8006e84:	4798      	blx	r3
 8006e86:	3601      	adds	r6, #1
 8006e88:	e7ee      	b.n	8006e68 <__libc_init_array+0xc>
 8006e8a:	f855 3b04 	ldr.w	r3, [r5], #4
 8006e8e:	4798      	blx	r3
 8006e90:	3601      	adds	r6, #1
 8006e92:	e7f2      	b.n	8006e7a <__libc_init_array+0x1e>
 8006e94:	08007910 	.word	0x08007910
 8006e98:	08007910 	.word	0x08007910
 8006e9c:	08007910 	.word	0x08007910
 8006ea0:	08007914 	.word	0x08007914

08006ea4 <__retarget_lock_acquire_recursive>:
 8006ea4:	4770      	bx	lr

08006ea6 <__retarget_lock_release_recursive>:
 8006ea6:	4770      	bx	lr

08006ea8 <_free_r>:
 8006ea8:	b538      	push	{r3, r4, r5, lr}
 8006eaa:	4605      	mov	r5, r0
 8006eac:	2900      	cmp	r1, #0
 8006eae:	d041      	beq.n	8006f34 <_free_r+0x8c>
 8006eb0:	f851 3c04 	ldr.w	r3, [r1, #-4]
 8006eb4:	1f0c      	subs	r4, r1, #4
 8006eb6:	2b00      	cmp	r3, #0
 8006eb8:	bfb8      	it	lt
 8006eba:	18e4      	addlt	r4, r4, r3
 8006ebc:	f000 f8e0 	bl	8007080 <__malloc_lock>
 8006ec0:	4a1d      	ldr	r2, [pc, #116]	@ (8006f38 <_free_r+0x90>)
 8006ec2:	6813      	ldr	r3, [r2, #0]
 8006ec4:	b933      	cbnz	r3, 8006ed4 <_free_r+0x2c>
 8006ec6:	6063      	str	r3, [r4, #4]
 8006ec8:	6014      	str	r4, [r2, #0]
 8006eca:	4628      	mov	r0, r5
 8006ecc:	e8bd 4038 	ldmia.w	sp!, {r3, r4, r5, lr}
 8006ed0:	f000 b8dc 	b.w	800708c <__malloc_unlock>
 8006ed4:	42a3      	cmp	r3, r4
 8006ed6:	d908      	bls.n	8006eea <_free_r+0x42>
 8006ed8:	6820      	ldr	r0, [r4, #0]
 8006eda:	1821      	adds	r1, r4, r0
 8006edc:	428b      	cmp	r3, r1
 8006ede:	bf01      	itttt	eq
 8006ee0:	6819      	ldreq	r1, [r3, #0]
 8006ee2:	685b      	ldreq	r3, [r3, #4]
 8006ee4:	1809      	addeq	r1, r1, r0
 8006ee6:	6021      	streq	r1, [r4, #0]
 8006ee8:	e7ed      	b.n	8006ec6 <_free_r+0x1e>
 8006eea:	461a      	mov	r2, r3
 8006eec:	685b      	ldr	r3, [r3, #4]
 8006eee:	b10b      	cbz	r3, 8006ef4 <_free_r+0x4c>
 8006ef0:	42a3      	cmp	r3, r4
 8006ef2:	d9fa      	bls.n	8006eea <_free_r+0x42>
 8006ef4:	6811      	ldr	r1, [r2, #0]
 8006ef6:	1850      	adds	r0, r2, r1
 8006ef8:	42a0      	cmp	r0, r4
 8006efa:	d10b      	bne.n	8006f14 <_free_r+0x6c>
 8006efc:	6820      	ldr	r0, [r4, #0]
 8006efe:	4401      	add	r1, r0
 8006f00:	1850      	adds	r0, r2, r1
 8006f02:	4283      	cmp	r3, r0
 8006f04:	6011      	str	r1, [r2, #0]
 8006f06:	d1e0      	bne.n	8006eca <_free_r+0x22>
 8006f08:	6818      	ldr	r0, [r3, #0]
 8006f0a:	685b      	ldr	r3, [r3, #4]
 8006f0c:	6053      	str	r3, [r2, #4]
 8006f0e:	4408      	add	r0, r1
 8006f10:	6010      	str	r0, [r2, #0]
 8006f12:	e7da      	b.n	8006eca <_free_r+0x22>
 8006f14:	d902      	bls.n	8006f1c <_free_r+0x74>
 8006f16:	230c      	movs	r3, #12
 8006f18:	602b      	str	r3, [r5, #0]
 8006f1a:	e7d6      	b.n	8006eca <_free_r+0x22>
 8006f1c:	6820      	ldr	r0, [r4, #0]
 8006f1e:	1821      	adds	r1, r4, r0
 8006f20:	428b      	cmp	r3, r1
 8006f22:	bf04      	itt	eq
 8006f24:	6819      	ldreq	r1, [r3, #0]
 8006f26:	685b      	ldreq	r3, [r3, #4]
 8006f28:	6063      	str	r3, [r4, #4]
 8006f2a:	bf04      	itt	eq
 8006f2c:	1809      	addeq	r1, r1, r0
 8006f2e:	6021      	streq	r1, [r4, #0]
 8006f30:	6054      	str	r4, [r2, #4]
 8006f32:	e7ca      	b.n	8006eca <_free_r+0x22>
 8006f34:	bd38      	pop	{r3, r4, r5, pc}
 8006f36:	bf00      	nop
 8006f38:	20000444 	.word	0x20000444

08006f3c <sbrk_aligned>:
 8006f3c:	b570      	push	{r4, r5, r6, lr}
 8006f3e:	4e0f      	ldr	r6, [pc, #60]	@ (8006f7c <sbrk_aligned+0x40>)
 8006f40:	460c      	mov	r4, r1
 8006f42:	6831      	ldr	r1, [r6, #0]
 8006f44:	4605      	mov	r5, r0
 8006f46:	b911      	cbnz	r1, 8006f4e <sbrk_aligned+0x12>
 8006f48:	f000 fba4 	bl	8007694 <_sbrk_r>
 8006f4c:	6030      	str	r0, [r6, #0]
 8006f4e:	4621      	mov	r1, r4
 8006f50:	4628      	mov	r0, r5
 8006f52:	f000 fb9f 	bl	8007694 <_sbrk_r>
 8006f56:	1c43      	adds	r3, r0, #1
 8006f58:	d103      	bne.n	8006f62 <sbrk_aligned+0x26>
 8006f5a:	f04f 34ff 	mov.w	r4, #4294967295
 8006f5e:	4620      	mov	r0, r4
 8006f60:	bd70      	pop	{r4, r5, r6, pc}
 8006f62:	1cc4      	adds	r4, r0, #3
 8006f64:	f024 0403 	bic.w	r4, r4, #3
 8006f68:	42a0      	cmp	r0, r4
 8006f6a:	d0f8      	beq.n	8006f5e <sbrk_aligned+0x22>
 8006f6c:	1a21      	subs	r1, r4, r0
 8006f6e:	4628      	mov	r0, r5
 8006f70:	f000 fb90 	bl	8007694 <_sbrk_r>
 8006f74:	3001      	adds	r0, #1
 8006f76:	d1f2      	bne.n	8006f5e <sbrk_aligned+0x22>
 8006f78:	e7ef      	b.n	8006f5a <sbrk_aligned+0x1e>
 8006f7a:	bf00      	nop
 8006f7c:	20000440 	.word	0x20000440

08006f80 <_malloc_r>:
 8006f80:	e92d 43f8 	stmdb	sp!, {r3, r4, r5, r6, r7, r8, r9, lr}
 8006f84:	1ccd      	adds	r5, r1, #3
 8006f86:	f025 0503 	bic.w	r5, r5, #3
 8006f8a:	3508      	adds	r5, #8
 8006f8c:	2d0c      	cmp	r5, #12
 8006f8e:	bf38      	it	cc
 8006f90:	250c      	movcc	r5, #12
 8006f92:	2d00      	cmp	r5, #0
 8006f94:	4606      	mov	r6, r0
 8006f96:	db01      	blt.n	8006f9c <_malloc_r+0x1c>
 8006f98:	42a9      	cmp	r1, r5
 8006f9a:	d904      	bls.n	8006fa6 <_malloc_r+0x26>
 8006f9c:	230c      	movs	r3, #12
 8006f9e:	6033      	str	r3, [r6, #0]
 8006fa0:	2000      	movs	r0, #0
 8006fa2:	e8bd 83f8 	ldmia.w	sp!, {r3, r4, r5, r6, r7, r8, r9, pc}
 8006fa6:	f8df 80d4 	ldr.w	r8, [pc, #212]	@ 800707c <_malloc_r+0xfc>
 8006faa:	f000 f869 	bl	8007080 <__malloc_lock>
 8006fae:	f8d8 3000 	ldr.w	r3, [r8]
 8006fb2:	461c      	mov	r4, r3
 8006fb4:	bb44      	cbnz	r4, 8007008 <_malloc_r+0x88>
 8006fb6:	4629      	mov	r1, r5
 8006fb8:	4630      	mov	r0, r6
 8006fba:	f7ff ffbf 	bl	8006f3c <sbrk_aligned>
 8006fbe:	1c43      	adds	r3, r0, #1
 8006fc0:	4604      	mov	r4, r0
 8006fc2:	d158      	bne.n	8007076 <_malloc_r+0xf6>
 8006fc4:	f8d8 4000 	ldr.w	r4, [r8]
 8006fc8:	4627      	mov	r7, r4
 8006fca:	2f00      	cmp	r7, #0
 8006fcc:	d143      	bne.n	8007056 <_malloc_r+0xd6>
 8006fce:	2c00      	cmp	r4, #0
 8006fd0:	d04b      	beq.n	800706a <_malloc_r+0xea>
 8006fd2:	6823      	ldr	r3, [r4, #0]
 8006fd4:	4639      	mov	r1, r7
 8006fd6:	4630      	mov	r0, r6
 8006fd8:	eb04 0903 	add.w	r9, r4, r3
 8006fdc:	f000 fb5a 	bl	8007694 <_sbrk_r>
 8006fe0:	4581      	cmp	r9, r0
 8006fe2:	d142      	bne.n	800706a <_malloc_r+0xea>
 8006fe4:	6821      	ldr	r1, [r4, #0]
 8006fe6:	1a6d      	subs	r5, r5, r1
 8006fe8:	4629      	mov	r1, r5
 8006fea:	4630      	mov	r0, r6
 8006fec:	f7ff ffa6 	bl	8006f3c <sbrk_aligned>
 8006ff0:	3001      	adds	r0, #1
 8006ff2:	d03a      	beq.n	800706a <_malloc_r+0xea>
 8006ff4:	6823      	ldr	r3, [r4, #0]
 8006ff6:	442b      	add	r3, r5
 8006ff8:	6023      	str	r3, [r4, #0]
 8006ffa:	f8d8 3000 	ldr.w	r3, [r8]
 8006ffe:	685a      	ldr	r2, [r3, #4]
 8007000:	bb62      	cbnz	r2, 800705c <_malloc_r+0xdc>
 8007002:	f8c8 7000 	str.w	r7, [r8]
 8007006:	e00f      	b.n	8007028 <_malloc_r+0xa8>
 8007008:	6822      	ldr	r2, [r4, #0]
 800700a:	1b52      	subs	r2, r2, r5
 800700c:	d420      	bmi.n	8007050 <_malloc_r+0xd0>
 800700e:	2a0b      	cmp	r2, #11
 8007010:	d917      	bls.n	8007042 <_malloc_r+0xc2>
 8007012:	1961      	adds	r1, r4, r5
 8007014:	42a3      	cmp	r3, r4
 8007016:	6025      	str	r5, [r4, #0]
 8007018:	bf18      	it	ne
 800701a:	6059      	strne	r1, [r3, #4]
 800701c:	6863      	ldr	r3, [r4, #4]
 800701e:	bf08      	it	eq
 8007020:	f8c8 1000 	streq.w	r1, [r8]
 8007024:	5162      	str	r2, [r4, r5]
 8007026:	604b      	str	r3, [r1, #4]
 8007028:	4630      	mov	r0, r6
 800702a:	f000 f82f 	bl	800708c <__malloc_unlock>
 800702e:	f104 000b 	add.w	r0, r4, #11
 8007032:	1d23      	adds	r3, r4, #4
 8007034:	f020 0007 	bic.w	r0, r0, #7
 8007038:	1ac2      	subs	r2, r0, r3
 800703a:	bf1c      	itt	ne
 800703c:	1a1b      	subne	r3, r3, r0
 800703e:	50a3      	strne	r3, [r4, r2]
 8007040:	e7af      	b.n	8006fa2 <_malloc_r+0x22>
 8007042:	6862      	ldr	r2, [r4, #4]
 8007044:	42a3      	cmp	r3, r4
 8007046:	bf0c      	ite	eq
 8007048:	f8c8 2000 	streq.w	r2, [r8]
 800704c:	605a      	strne	r2, [r3, #4]
 800704e:	e7eb      	b.n	8007028 <_malloc_r+0xa8>
 8007050:	4623      	mov	r3, r4
 8007052:	6864      	ldr	r4, [r4, #4]
 8007054:	e7ae      	b.n	8006fb4 <_malloc_r+0x34>
 8007056:	463c      	mov	r4, r7
 8007058:	687f      	ldr	r7, [r7, #4]
 800705a:	e7b6      	b.n	8006fca <_malloc_r+0x4a>
 800705c:	461a      	mov	r2, r3
 800705e:	685b      	ldr	r3, [r3, #4]
 8007060:	42a3      	cmp	r3, r4
 8007062:	d1fb      	bne.n	800705c <_malloc_r+0xdc>
 8007064:	2300      	movs	r3, #0
 8007066:	6053      	str	r3, [r2, #4]
 8007068:	e7de      	b.n	8007028 <_malloc_r+0xa8>
 800706a:	230c      	movs	r3, #12
 800706c:	6033      	str	r3, [r6, #0]
 800706e:	4630      	mov	r0, r6
 8007070:	f000 f80c 	bl	800708c <__malloc_unlock>
 8007074:	e794      	b.n	8006fa0 <_malloc_r+0x20>
 8007076:	6005      	str	r5, [r0, #0]
 8007078:	e7d6      	b.n	8007028 <_malloc_r+0xa8>
 800707a:	bf00      	nop
 800707c:	20000444 	.word	0x20000444

08007080 <__malloc_lock>:
 8007080:	4801      	ldr	r0, [pc, #4]	@ (8007088 <__malloc_lock+0x8>)
 8007082:	f7ff bf0f 	b.w	8006ea4 <__retarget_lock_acquire_recursive>
 8007086:	bf00      	nop
 8007088:	2000043c 	.word	0x2000043c

0800708c <__malloc_unlock>:
 800708c:	4801      	ldr	r0, [pc, #4]	@ (8007094 <__malloc_unlock+0x8>)
 800708e:	f7ff bf0a 	b.w	8006ea6 <__retarget_lock_release_recursive>
 8007092:	bf00      	nop
 8007094:	2000043c 	.word	0x2000043c

08007098 <__ssputs_r>:
 8007098:	e92d 47f0 	stmdb	sp!, {r4, r5, r6, r7, r8, r9, sl, lr}
 800709c:	688e      	ldr	r6, [r1, #8]
 800709e:	461f      	mov	r7, r3
 80070a0:	42be      	cmp	r6, r7
 80070a2:	680b      	ldr	r3, [r1, #0]
 80070a4:	4682      	mov	sl, r0
 80070a6:	460c      	mov	r4, r1
 80070a8:	4690      	mov	r8, r2
 80070aa:	d82d      	bhi.n	8007108 <__ssputs_r+0x70>
 80070ac:	f9b1 200c 	ldrsh.w	r2, [r1, #12]
 80070b0:	f412 6f90 	tst.w	r2, #1152	@ 0x480
 80070b4:	d026      	beq.n	8007104 <__ssputs_r+0x6c>
 80070b6:	6965      	ldr	r5, [r4, #20]
 80070b8:	6909      	ldr	r1, [r1, #16]
 80070ba:	eb05 0545 	add.w	r5, r5, r5, lsl #1
 80070be:	eba3 0901 	sub.w	r9, r3, r1
 80070c2:	eb05 75d5 	add.w	r5, r5, r5, lsr #31
 80070c6:	1c7b      	adds	r3, r7, #1
 80070c8:	444b      	add	r3, r9
 80070ca:	106d      	asrs	r5, r5, #1
 80070cc:	429d      	cmp	r5, r3
 80070ce:	bf38      	it	cc
 80070d0:	461d      	movcc	r5, r3
 80070d2:	0553      	lsls	r3, r2, #21
 80070d4:	d527      	bpl.n	8007126 <__ssputs_r+0x8e>
 80070d6:	4629      	mov	r1, r5
 80070d8:	f7ff ff52 	bl	8006f80 <_malloc_r>
 80070dc:	4606      	mov	r6, r0
 80070de:	b360      	cbz	r0, 800713a <__ssputs_r+0xa2>
 80070e0:	6921      	ldr	r1, [r4, #16]
 80070e2:	464a      	mov	r2, r9
 80070e4:	f000 fae6 	bl	80076b4 <memcpy>
 80070e8:	89a3      	ldrh	r3, [r4, #12]
 80070ea:	f423 6390 	bic.w	r3, r3, #1152	@ 0x480
 80070ee:	f043 0380 	orr.w	r3, r3, #128	@ 0x80
 80070f2:	81a3      	strh	r3, [r4, #12]
 80070f4:	6126      	str	r6, [r4, #16]
 80070f6:	6165      	str	r5, [r4, #20]
 80070f8:	444e      	add	r6, r9
 80070fa:	eba5 0509 	sub.w	r5, r5, r9
 80070fe:	6026      	str	r6, [r4, #0]
 8007100:	60a5      	str	r5, [r4, #8]
 8007102:	463e      	mov	r6, r7
 8007104:	42be      	cmp	r6, r7
 8007106:	d900      	bls.n	800710a <__ssputs_r+0x72>
 8007108:	463e      	mov	r6, r7
 800710a:	6820      	ldr	r0, [r4, #0]
 800710c:	4632      	mov	r2, r6
 800710e:	4641      	mov	r1, r8
 8007110:	f000 faa6 	bl	8007660 <memmove>
 8007114:	68a3      	ldr	r3, [r4, #8]
 8007116:	1b9b      	subs	r3, r3, r6
 8007118:	60a3      	str	r3, [r4, #8]
 800711a:	6823      	ldr	r3, [r4, #0]
 800711c:	4433      	add	r3, r6
 800711e:	6023      	str	r3, [r4, #0]
 8007120:	2000      	movs	r0, #0
 8007122:	e8bd 87f0 	ldmia.w	sp!, {r4, r5, r6, r7, r8, r9, sl, pc}
 8007126:	462a      	mov	r2, r5
 8007128:	f000 fad2 	bl	80076d0 <_realloc_r>
 800712c:	4606      	mov	r6, r0
 800712e:	2800      	cmp	r0, #0
 8007130:	d1e0      	bne.n	80070f4 <__ssputs_r+0x5c>
 8007132:	6921      	ldr	r1, [r4, #16]
 8007134:	4650      	mov	r0, sl
 8007136:	f7ff feb7 	bl	8006ea8 <_free_r>
 800713a:	230c      	movs	r3, #12
 800713c:	f8ca 3000 	str.w	r3, [sl]
 8007140:	89a3      	ldrh	r3, [r4, #12]
 8007142:	f043 0340 	orr.w	r3, r3, #64	@ 0x40
 8007146:	81a3      	strh	r3, [r4, #12]
 8007148:	f04f 30ff 	mov.w	r0, #4294967295
 800714c:	e7e9      	b.n	8007122 <__ssputs_r+0x8a>
	...

08007150 <_svfiprintf_r>:
 8007150:	e92d 4ff0 	stmdb	sp!, {r4, r5, r6, r7, r8, r9, sl, fp, lr}
 8007154:	4698      	mov	r8, r3
 8007156:	898b      	ldrh	r3, [r1, #12]
 8007158:	061b      	lsls	r3, r3, #24
 800715a:	b09d      	sub	sp, #116	@ 0x74
 800715c:	4607      	mov	r7, r0
 800715e:	460d      	mov	r5, r1
 8007160:	4614      	mov	r4, r2
 8007162:	d510      	bpl.n	8007186 <_svfiprintf_r+0x36>
 8007164:	690b      	ldr	r3, [r1, #16]
 8007166:	b973      	cbnz	r3, 8007186 <_svfiprintf_r+0x36>
 8007168:	2140      	movs	r1, #64	@ 0x40
 800716a:	f7ff ff09 	bl	8006f80 <_malloc_r>
 800716e:	6028      	str	r0, [r5, #0]
 8007170:	6128      	str	r0, [r5, #16]
 8007172:	b930      	cbnz	r0, 8007182 <_svfiprintf_r+0x32>
 8007174:	230c      	movs	r3, #12
 8007176:	603b      	str	r3, [r7, #0]
 8007178:	f04f 30ff 	mov.w	r0, #4294967295
 800717c:	b01d      	add	sp, #116	@ 0x74
 800717e:	e8bd 8ff0 	ldmia.w	sp!, {r4, r5, r6, r7, r8, r9, sl, fp, pc}
 8007182:	2340      	movs	r3, #64	@ 0x40
 8007184:	616b      	str	r3, [r5, #20]
 8007186:	2300      	movs	r3, #0
 8007188:	9309      	str	r3, [sp, #36]	@ 0x24
 800718a:	2320      	movs	r3, #32
 800718c:	f88d 3029 	strb.w	r3, [sp, #41]	@ 0x29
 8007190:	f8cd 800c 	str.w	r8, [sp, #12]
 8007194:	2330      	movs	r3, #48	@ 0x30
 8007196:	f8df 819c 	ldr.w	r8, [pc, #412]	@ 8007334 <_svfiprintf_r+0x1e4>
 800719a:	f88d 302a 	strb.w	r3, [sp, #42]	@ 0x2a
 800719e:	f04f 0901 	mov.w	r9, #1
 80071a2:	4623      	mov	r3, r4
 80071a4:	469a      	mov	sl, r3
 80071a6:	f813 2b01 	ldrb.w	r2, [r3], #1
 80071aa:	b10a      	cbz	r2, 80071b0 <_svfiprintf_r+0x60>
 80071ac:	2a25      	cmp	r2, #37	@ 0x25
 80071ae:	d1f9      	bne.n	80071a4 <_svfiprintf_r+0x54>
 80071b0:	ebba 0b04 	subs.w	fp, sl, r4
 80071b4:	d00b      	beq.n	80071ce <_svfiprintf_r+0x7e>
 80071b6:	465b      	mov	r3, fp
 80071b8:	4622      	mov	r2, r4
 80071ba:	4629      	mov	r1, r5
 80071bc:	4638      	mov	r0, r7
 80071be:	f7ff ff6b 	bl	8007098 <__ssputs_r>
 80071c2:	3001      	adds	r0, #1
 80071c4:	f000 80a7 	beq.w	8007316 <_svfiprintf_r+0x1c6>
 80071c8:	9a09      	ldr	r2, [sp, #36]	@ 0x24
 80071ca:	445a      	add	r2, fp
 80071cc:	9209      	str	r2, [sp, #36]	@ 0x24
 80071ce:	f89a 3000 	ldrb.w	r3, [sl]
 80071d2:	2b00      	cmp	r3, #0
 80071d4:	f000 809f 	beq.w	8007316 <_svfiprintf_r+0x1c6>
 80071d8:	2300      	movs	r3, #0
 80071da:	f04f 32ff 	mov.w	r2, #4294967295
 80071de:	e9cd 2305 	strd	r2, r3, [sp, #20]
 80071e2:	f10a 0a01 	add.w	sl, sl, #1
 80071e6:	9304      	str	r3, [sp, #16]
 80071e8:	9307      	str	r3, [sp, #28]
 80071ea:	f88d 3053 	strb.w	r3, [sp, #83]	@ 0x53
 80071ee:	931a      	str	r3, [sp, #104]	@ 0x68
 80071f0:	4654      	mov	r4, sl
 80071f2:	2205      	movs	r2, #5
 80071f4:	f814 1b01 	ldrb.w	r1, [r4], #1
 80071f8:	484e      	ldr	r0, [pc, #312]	@ (8007334 <_svfiprintf_r+0x1e4>)
 80071fa:	f7f9 f801 	bl	8000200 <memchr>
 80071fe:	9a04      	ldr	r2, [sp, #16]
 8007200:	b9d8      	cbnz	r0, 800723a <_svfiprintf_r+0xea>
 8007202:	06d0      	lsls	r0, r2, #27
 8007204:	bf44      	itt	mi
 8007206:	2320      	movmi	r3, #32
 8007208:	f88d 3053 	strbmi.w	r3, [sp, #83]	@ 0x53
 800720c:	0711      	lsls	r1, r2, #28
 800720e:	bf44      	itt	mi
 8007210:	232b      	movmi	r3, #43	@ 0x2b
 8007212:	f88d 3053 	strbmi.w	r3, [sp, #83]	@ 0x53
 8007216:	f89a 3000 	ldrb.w	r3, [sl]
 800721a:	2b2a      	cmp	r3, #42	@ 0x2a
 800721c:	d015      	beq.n	800724a <_svfiprintf_r+0xfa>
 800721e:	9a07      	ldr	r2, [sp, #28]
 8007220:	4654      	mov	r4, sl
 8007222:	2000      	movs	r0, #0
 8007224:	f04f 0c0a 	mov.w	ip, #10
 8007228:	4621      	mov	r1, r4
 800722a:	f811 3b01 	ldrb.w	r3, [r1], #1
 800722e:	3b30      	subs	r3, #48	@ 0x30
 8007230:	2b09      	cmp	r3, #9
 8007232:	d94b      	bls.n	80072cc <_svfiprintf_r+0x17c>
 8007234:	b1b0      	cbz	r0, 8007264 <_svfiprintf_r+0x114>
 8007236:	9207      	str	r2, [sp, #28]
 8007238:	e014      	b.n	8007264 <_svfiprintf_r+0x114>
 800723a:	eba0 0308 	sub.w	r3, r0, r8
 800723e:	fa09 f303 	lsl.w	r3, r9, r3
 8007242:	4313      	orrs	r3, r2
 8007244:	9304      	str	r3, [sp, #16]
 8007246:	46a2      	mov	sl, r4
 8007248:	e7d2      	b.n	80071f0 <_svfiprintf_r+0xa0>
 800724a:	9b03      	ldr	r3, [sp, #12]
 800724c:	1d19      	adds	r1, r3, #4
 800724e:	681b      	ldr	r3, [r3, #0]
 8007250:	9103      	str	r1, [sp, #12]
 8007252:	2b00      	cmp	r3, #0
 8007254:	bfbb      	ittet	lt
 8007256:	425b      	neglt	r3, r3
 8007258:	f042 0202 	orrlt.w	r2, r2, #2
 800725c:	9307      	strge	r3, [sp, #28]
 800725e:	9307      	strlt	r3, [sp, #28]
 8007260:	bfb8      	it	lt
 8007262:	9204      	strlt	r2, [sp, #16]
 8007264:	7823      	ldrb	r3, [r4, #0]
 8007266:	2b2e      	cmp	r3, #46	@ 0x2e
 8007268:	d10a      	bne.n	8007280 <_svfiprintf_r+0x130>
 800726a:	7863      	ldrb	r3, [r4, #1]
 800726c:	2b2a      	cmp	r3, #42	@ 0x2a
 800726e:	d132      	bne.n	80072d6 <_svfiprintf_r+0x186>
 8007270:	9b03      	ldr	r3, [sp, #12]
 8007272:	1d1a      	adds	r2, r3, #4
 8007274:	681b      	ldr	r3, [r3, #0]
 8007276:	9203      	str	r2, [sp, #12]
 8007278:	ea43 73e3 	orr.w	r3, r3, r3, asr #31
 800727c:	3402      	adds	r4, #2
 800727e:	9305      	str	r3, [sp, #20]
 8007280:	f8df a0c0 	ldr.w	sl, [pc, #192]	@ 8007344 <_svfiprintf_r+0x1f4>
 8007284:	7821      	ldrb	r1, [r4, #0]
 8007286:	2203      	movs	r2, #3
 8007288:	4650      	mov	r0, sl
 800728a:	f7f8 ffb9 	bl	8000200 <memchr>
 800728e:	b138      	cbz	r0, 80072a0 <_svfiprintf_r+0x150>
 8007290:	9b04      	ldr	r3, [sp, #16]
 8007292:	eba0 000a 	sub.w	r0, r0, sl
 8007296:	2240      	movs	r2, #64	@ 0x40
 8007298:	4082      	lsls	r2, r0
 800729a:	4313      	orrs	r3, r2
 800729c:	3401      	adds	r4, #1
 800729e:	9304      	str	r3, [sp, #16]
 80072a0:	f814 1b01 	ldrb.w	r1, [r4], #1
 80072a4:	4824      	ldr	r0, [pc, #144]	@ (8007338 <_svfiprintf_r+0x1e8>)
 80072a6:	f88d 1028 	strb.w	r1, [sp, #40]	@ 0x28
 80072aa:	2206      	movs	r2, #6
 80072ac:	f7f8 ffa8 	bl	8000200 <memchr>
 80072b0:	2800      	cmp	r0, #0
 80072b2:	d036      	beq.n	8007322 <_svfiprintf_r+0x1d2>
 80072b4:	4b21      	ldr	r3, [pc, #132]	@ (800733c <_svfiprintf_r+0x1ec>)
 80072b6:	bb1b      	cbnz	r3, 8007300 <_svfiprintf_r+0x1b0>
 80072b8:	9b03      	ldr	r3, [sp, #12]
 80072ba:	3307      	adds	r3, #7
 80072bc:	f023 0307 	bic.w	r3, r3, #7
 80072c0:	3308      	adds	r3, #8
 80072c2:	9303      	str	r3, [sp, #12]
 80072c4:	9b09      	ldr	r3, [sp, #36]	@ 0x24
 80072c6:	4433      	add	r3, r6
 80072c8:	9309      	str	r3, [sp, #36]	@ 0x24
 80072ca:	e76a      	b.n	80071a2 <_svfiprintf_r+0x52>
 80072cc:	fb0c 3202 	mla	r2, ip, r2, r3
 80072d0:	460c      	mov	r4, r1
 80072d2:	2001      	movs	r0, #1
 80072d4:	e7a8      	b.n	8007228 <_svfiprintf_r+0xd8>
 80072d6:	2300      	movs	r3, #0
 80072d8:	3401      	adds	r4, #1
 80072da:	9305      	str	r3, [sp, #20]
 80072dc:	4619      	mov	r1, r3
 80072de:	f04f 0c0a 	mov.w	ip, #10
 80072e2:	4620      	mov	r0, r4
 80072e4:	f810 2b01 	ldrb.w	r2, [r0], #1
 80072e8:	3a30      	subs	r2, #48	@ 0x30
 80072ea:	2a09      	cmp	r2, #9
 80072ec:	d903      	bls.n	80072f6 <_svfiprintf_r+0x1a6>
 80072ee:	2b00      	cmp	r3, #0
 80072f0:	d0c6      	beq.n	8007280 <_svfiprintf_r+0x130>
 80072f2:	9105      	str	r1, [sp, #20]
 80072f4:	e7c4      	b.n	8007280 <_svfiprintf_r+0x130>
 80072f6:	fb0c 2101 	mla	r1, ip, r1, r2
 80072fa:	4604      	mov	r4, r0
 80072fc:	2301      	movs	r3, #1
 80072fe:	e7f0      	b.n	80072e2 <_svfiprintf_r+0x192>
 8007300:	ab03      	add	r3, sp, #12
 8007302:	9300      	str	r3, [sp, #0]
 8007304:	462a      	mov	r2, r5
 8007306:	4b0e      	ldr	r3, [pc, #56]	@ (8007340 <_svfiprintf_r+0x1f0>)
 8007308:	a904      	add	r1, sp, #16
 800730a:	4638      	mov	r0, r7
 800730c:	f3af 8000 	nop.w
 8007310:	1c42      	adds	r2, r0, #1
 8007312:	4606      	mov	r6, r0
 8007314:	d1d6      	bne.n	80072c4 <_svfiprintf_r+0x174>
 8007316:	89ab      	ldrh	r3, [r5, #12]
 8007318:	065b      	lsls	r3, r3, #25
 800731a:	f53f af2d 	bmi.w	8007178 <_svfiprintf_r+0x28>
 800731e:	9809      	ldr	r0, [sp, #36]	@ 0x24
 8007320:	e72c      	b.n	800717c <_svfiprintf_r+0x2c>
 8007322:	ab03      	add	r3, sp, #12
 8007324:	9300      	str	r3, [sp, #0]
 8007326:	462a      	mov	r2, r5
 8007328:	4b05      	ldr	r3, [pc, #20]	@ (8007340 <_svfiprintf_r+0x1f0>)
 800732a:	a904      	add	r1, sp, #16
 800732c:	4638      	mov	r0, r7
 800732e:	f000 f879 	bl	8007424 <_printf_i>
 8007332:	e7ed      	b.n	8007310 <_svfiprintf_r+0x1c0>
 8007334:	080078d4 	.word	0x080078d4
 8007338:	080078de 	.word	0x080078de
 800733c:	00000000 	.word	0x00000000
 8007340:	08007099 	.word	0x08007099
 8007344:	080078da 	.word	0x080078da

08007348 <_printf_common>:
 8007348:	e92d 47f0 	stmdb	sp!, {r4, r5, r6, r7, r8, r9, sl, lr}
 800734c:	4616      	mov	r6, r2
 800734e:	4698      	mov	r8, r3
 8007350:	688a      	ldr	r2, [r1, #8]
 8007352:	690b      	ldr	r3, [r1, #16]
 8007354:	f8dd 9020 	ldr.w	r9, [sp, #32]
 8007358:	4293      	cmp	r3, r2
 800735a:	bfb8      	it	lt
 800735c:	4613      	movlt	r3, r2
 800735e:	6033      	str	r3, [r6, #0]
 8007360:	f891 2043 	ldrb.w	r2, [r1, #67]	@ 0x43
 8007364:	4607      	mov	r7, r0
 8007366:	460c      	mov	r4, r1
 8007368:	b10a      	cbz	r2, 800736e <_printf_common+0x26>
 800736a:	3301      	adds	r3, #1
 800736c:	6033      	str	r3, [r6, #0]
 800736e:	6823      	ldr	r3, [r4, #0]
 8007370:	0699      	lsls	r1, r3, #26
 8007372:	bf42      	ittt	mi
 8007374:	6833      	ldrmi	r3, [r6, #0]
 8007376:	3302      	addmi	r3, #2
 8007378:	6033      	strmi	r3, [r6, #0]
 800737a:	6825      	ldr	r5, [r4, #0]
 800737c:	f015 0506 	ands.w	r5, r5, #6
 8007380:	d106      	bne.n	8007390 <_printf_common+0x48>
 8007382:	f104 0a19 	add.w	sl, r4, #25
 8007386:	68e3      	ldr	r3, [r4, #12]
 8007388:	6832      	ldr	r2, [r6, #0]
 800738a:	1a9b      	subs	r3, r3, r2
 800738c:	42ab      	cmp	r3, r5
 800738e:	dc26      	bgt.n	80073de <_printf_common+0x96>
 8007390:	f894 3043 	ldrb.w	r3, [r4, #67]	@ 0x43
 8007394:	6822      	ldr	r2, [r4, #0]
 8007396:	3b00      	subs	r3, #0
 8007398:	bf18      	it	ne
 800739a:	2301      	movne	r3, #1
 800739c:	0692      	lsls	r2, r2, #26
 800739e:	d42b      	bmi.n	80073f8 <_printf_common+0xb0>
 80073a0:	f104 0243 	add.w	r2, r4, #67	@ 0x43
 80073a4:	4641      	mov	r1, r8
 80073a6:	4638      	mov	r0, r7
 80073a8:	47c8      	blx	r9
 80073aa:	3001      	adds	r0, #1
 80073ac:	d01e      	beq.n	80073ec <_printf_common+0xa4>
 80073ae:	6823      	ldr	r3, [r4, #0]
 80073b0:	6922      	ldr	r2, [r4, #16]
 80073b2:	f003 0306 	and.w	r3, r3, #6
 80073b6:	2b04      	cmp	r3, #4
 80073b8:	bf02      	ittt	eq
 80073ba:	68e5      	ldreq	r5, [r4, #12]
 80073bc:	6833      	ldreq	r3, [r6, #0]
 80073be:	1aed      	subeq	r5, r5, r3
 80073c0:	68a3      	ldr	r3, [r4, #8]
 80073c2:	bf0c      	ite	eq
 80073c4:	ea25 75e5 	biceq.w	r5, r5, r5, asr #31
 80073c8:	2500      	movne	r5, #0
 80073ca:	4293      	cmp	r3, r2
 80073cc:	bfc4      	itt	gt
 80073ce:	1a9b      	subgt	r3, r3, r2
 80073d0:	18ed      	addgt	r5, r5, r3
 80073d2:	2600      	movs	r6, #0
 80073d4:	341a      	adds	r4, #26
 80073d6:	42b5      	cmp	r5, r6
 80073d8:	d11a      	bne.n	8007410 <_printf_common+0xc8>
 80073da:	2000      	movs	r0, #0
 80073dc:	e008      	b.n	80073f0 <_printf_common+0xa8>
 80073de:	2301      	movs	r3, #1
 80073e0:	4652      	mov	r2, sl
 80073e2:	4641      	mov	r1, r8
 80073e4:	4638      	mov	r0, r7
 80073e6:	47c8      	blx	r9
 80073e8:	3001      	adds	r0, #1
 80073ea:	d103      	bne.n	80073f4 <_printf_common+0xac>
 80073ec:	f04f 30ff 	mov.w	r0, #4294967295
 80073f0:	e8bd 87f0 	ldmia.w	sp!, {r4, r5, r6, r7, r8, r9, sl, pc}
 80073f4:	3501      	adds	r5, #1
 80073f6:	e7c6      	b.n	8007386 <_printf_common+0x3e>
 80073f8:	18e1      	adds	r1, r4, r3
 80073fa:	1c5a      	adds	r2, r3, #1
 80073fc:	2030      	movs	r0, #48	@ 0x30
 80073fe:	f881 0043 	strb.w	r0, [r1, #67]	@ 0x43
 8007402:	4422      	add	r2, r4
 8007404:	f894 1045 	ldrb.w	r1, [r4, #69]	@ 0x45
 8007408:	f882 1043 	strb.w	r1, [r2, #67]	@ 0x43
 800740c:	3302      	adds	r3, #2
 800740e:	e7c7      	b.n	80073a0 <_printf_common+0x58>
 8007410:	2301      	movs	r3, #1
 8007412:	4622      	mov	r2, r4
 8007414:	4641      	mov	r1, r8
 8007416:	4638      	mov	r0, r7
 8007418:	47c8      	blx	r9
 800741a:	3001      	adds	r0, #1
 800741c:	d0e6      	beq.n	80073ec <_printf_common+0xa4>
 800741e:	3601      	adds	r6, #1
 8007420:	e7d9      	b.n	80073d6 <_printf_common+0x8e>
	...

08007424 <_printf_i>:
 8007424:	e92d 47ff 	stmdb	sp!, {r0, r1, r2, r3, r4, r5, r6, r7, r8, r9, sl, lr}
 8007428:	7e0f      	ldrb	r7, [r1, #24]
 800742a:	9e0c      	ldr	r6, [sp, #48]	@ 0x30
 800742c:	2f78      	cmp	r7, #120	@ 0x78
 800742e:	4691      	mov	r9, r2
 8007430:	4680      	mov	r8, r0
 8007432:	460c      	mov	r4, r1
 8007434:	469a      	mov	sl, r3
 8007436:	f101 0243 	add.w	r2, r1, #67	@ 0x43
 800743a:	d807      	bhi.n	800744c <_printf_i+0x28>
 800743c:	2f62      	cmp	r7, #98	@ 0x62
 800743e:	d80a      	bhi.n	8007456 <_printf_i+0x32>
 8007440:	2f00      	cmp	r7, #0
 8007442:	f000 80d1 	beq.w	80075e8 <_printf_i+0x1c4>
 8007446:	2f58      	cmp	r7, #88	@ 0x58
 8007448:	f000 80b8 	beq.w	80075bc <_printf_i+0x198>
 800744c:	f104 0642 	add.w	r6, r4, #66	@ 0x42
 8007450:	f884 7042 	strb.w	r7, [r4, #66]	@ 0x42
 8007454:	e03a      	b.n	80074cc <_printf_i+0xa8>
 8007456:	f1a7 0363 	sub.w	r3, r7, #99	@ 0x63
 800745a:	2b15      	cmp	r3, #21
 800745c:	d8f6      	bhi.n	800744c <_printf_i+0x28>
 800745e:	a101      	add	r1, pc, #4	@ (adr r1, 8007464 <_printf_i+0x40>)
 8007460:	f851 f023 	ldr.w	pc, [r1, r3, lsl #2]
 8007464:	080074bd 	.word	0x080074bd
 8007468:	080074d1 	.word	0x080074d1
 800746c:	0800744d 	.word	0x0800744d
 8007470:	0800744d 	.word	0x0800744d
 8007474:	0800744d 	.word	0x0800744d
 8007478:	0800744d 	.word	0x0800744d
 800747c:	080074d1 	.word	0x080074d1
 8007480:	0800744d 	.word	0x0800744d
 8007484:	0800744d 	.word	0x0800744d
 8007488:	0800744d 	.word	0x0800744d
 800748c:	0800744d 	.word	0x0800744d
 8007490:	080075cf 	.word	0x080075cf
 8007494:	080074fb 	.word	0x080074fb
 8007498:	08007589 	.word	0x08007589
 800749c:	0800744d 	.word	0x0800744d
 80074a0:	0800744d 	.word	0x0800744d
 80074a4:	080075f1 	.word	0x080075f1
 80074a8:	0800744d 	.word	0x0800744d
 80074ac:	080074fb 	.word	0x080074fb
 80074b0:	0800744d 	.word	0x0800744d
 80074b4:	0800744d 	.word	0x0800744d
 80074b8:	08007591 	.word	0x08007591
 80074bc:	6833      	ldr	r3, [r6, #0]
 80074be:	1d1a      	adds	r2, r3, #4
 80074c0:	681b      	ldr	r3, [r3, #0]
 80074c2:	6032      	str	r2, [r6, #0]
 80074c4:	f104 0642 	add.w	r6, r4, #66	@ 0x42
 80074c8:	f884 3042 	strb.w	r3, [r4, #66]	@ 0x42
 80074cc:	2301      	movs	r3, #1
 80074ce:	e09c      	b.n	800760a <_printf_i+0x1e6>
 80074d0:	6833      	ldr	r3, [r6, #0]
 80074d2:	6820      	ldr	r0, [r4, #0]
 80074d4:	1d19      	adds	r1, r3, #4
 80074d6:	6031      	str	r1, [r6, #0]
 80074d8:	0606      	lsls	r6, r0, #24
 80074da:	d501      	bpl.n	80074e0 <_printf_i+0xbc>
 80074dc:	681d      	ldr	r5, [r3, #0]
 80074de:	e003      	b.n	80074e8 <_printf_i+0xc4>
 80074e0:	0645      	lsls	r5, r0, #25
 80074e2:	d5fb      	bpl.n	80074dc <_printf_i+0xb8>
 80074e4:	f9b3 5000 	ldrsh.w	r5, [r3]
 80074e8:	2d00      	cmp	r5, #0
 80074ea:	da03      	bge.n	80074f4 <_printf_i+0xd0>
 80074ec:	232d      	movs	r3, #45	@ 0x2d
 80074ee:	426d      	negs	r5, r5
 80074f0:	f884 3043 	strb.w	r3, [r4, #67]	@ 0x43
 80074f4:	4858      	ldr	r0, [pc, #352]	@ (8007658 <_printf_i+0x234>)
 80074f6:	230a      	movs	r3, #10
 80074f8:	e011      	b.n	800751e <_printf_i+0xfa>
 80074fa:	6821      	ldr	r1, [r4, #0]
 80074fc:	6833      	ldr	r3, [r6, #0]
 80074fe:	0608      	lsls	r0, r1, #24
 8007500:	f853 5b04 	ldr.w	r5, [r3], #4
 8007504:	d402      	bmi.n	800750c <_printf_i+0xe8>
 8007506:	0649      	lsls	r1, r1, #25
 8007508:	bf48      	it	mi
 800750a:	b2ad      	uxthmi	r5, r5
 800750c:	2f6f      	cmp	r7, #111	@ 0x6f
 800750e:	4852      	ldr	r0, [pc, #328]	@ (8007658 <_printf_i+0x234>)
 8007510:	6033      	str	r3, [r6, #0]
 8007512:	bf14      	ite	ne
 8007514:	230a      	movne	r3, #10
 8007516:	2308      	moveq	r3, #8
 8007518:	2100      	movs	r1, #0
 800751a:	f884 1043 	strb.w	r1, [r4, #67]	@ 0x43
 800751e:	6866      	ldr	r6, [r4, #4]
 8007520:	60a6      	str	r6, [r4, #8]
 8007522:	2e00      	cmp	r6, #0
 8007524:	db05      	blt.n	8007532 <_printf_i+0x10e>
 8007526:	6821      	ldr	r1, [r4, #0]
 8007528:	432e      	orrs	r6, r5
 800752a:	f021 0104 	bic.w	r1, r1, #4
 800752e:	6021      	str	r1, [r4, #0]
 8007530:	d04b      	beq.n	80075ca <_printf_i+0x1a6>
 8007532:	4616      	mov	r6, r2
 8007534:	fbb5 f1f3 	udiv	r1, r5, r3
 8007538:	fb03 5711 	mls	r7, r3, r1, r5
 800753c:	5dc7      	ldrb	r7, [r0, r7]
 800753e:	f806 7d01 	strb.w	r7, [r6, #-1]!
 8007542:	462f      	mov	r7, r5
 8007544:	42bb      	cmp	r3, r7
 8007546:	460d      	mov	r5, r1
 8007548:	d9f4      	bls.n	8007534 <_printf_i+0x110>
 800754a:	2b08      	cmp	r3, #8
 800754c:	d10b      	bne.n	8007566 <_printf_i+0x142>
 800754e:	6823      	ldr	r3, [r4, #0]
 8007550:	07df      	lsls	r7, r3, #31
 8007552:	d508      	bpl.n	8007566 <_printf_i+0x142>
 8007554:	6923      	ldr	r3, [r4, #16]
 8007556:	6861      	ldr	r1, [r4, #4]
 8007558:	4299      	cmp	r1, r3
 800755a:	bfde      	ittt	le
 800755c:	2330      	movle	r3, #48	@ 0x30
 800755e:	f806 3c01 	strble.w	r3, [r6, #-1]
 8007562:	f106 36ff 	addle.w	r6, r6, #4294967295
 8007566:	1b92      	subs	r2, r2, r6
 8007568:	6122      	str	r2, [r4, #16]
 800756a:	f8cd a000 	str.w	sl, [sp]
 800756e:	464b      	mov	r3, r9
 8007570:	aa03      	add	r2, sp, #12
 8007572:	4621      	mov	r1, r4
 8007574:	4640      	mov	r0, r8
 8007576:	f7ff fee7 	bl	8007348 <_printf_common>
 800757a:	3001      	adds	r0, #1
 800757c:	d14a      	bne.n	8007614 <_printf_i+0x1f0>
 800757e:	f04f 30ff 	mov.w	r0, #4294967295
 8007582:	b004      	add	sp, #16
 8007584:	e8bd 87f0 	ldmia.w	sp!, {r4, r5, r6, r7, r8, r9, sl, pc}
 8007588:	6823      	ldr	r3, [r4, #0]
 800758a:	f043 0320 	orr.w	r3, r3, #32
 800758e:	6023      	str	r3, [r4, #0]
 8007590:	4832      	ldr	r0, [pc, #200]	@ (800765c <_printf_i+0x238>)
 8007592:	2778      	movs	r7, #120	@ 0x78
 8007594:	f884 7045 	strb.w	r7, [r4, #69]	@ 0x45
 8007598:	6823      	ldr	r3, [r4, #0]
 800759a:	6831      	ldr	r1, [r6, #0]
 800759c:	061f      	lsls	r7, r3, #24
 800759e:	f851 5b04 	ldr.w	r5, [r1], #4
 80075a2:	d402      	bmi.n	80075aa <_printf_i+0x186>
 80075a4:	065f      	lsls	r7, r3, #25
 80075a6:	bf48      	it	mi
 80075a8:	b2ad      	uxthmi	r5, r5
 80075aa:	6031      	str	r1, [r6, #0]
 80075ac:	07d9      	lsls	r1, r3, #31
 80075ae:	bf44      	itt	mi
 80075b0:	f043 0320 	orrmi.w	r3, r3, #32
 80075b4:	6023      	strmi	r3, [r4, #0]
 80075b6:	b11d      	cbz	r5, 80075c0 <_printf_i+0x19c>
 80075b8:	2310      	movs	r3, #16
 80075ba:	e7ad      	b.n	8007518 <_printf_i+0xf4>
 80075bc:	4826      	ldr	r0, [pc, #152]	@ (8007658 <_printf_i+0x234>)
 80075be:	e7e9      	b.n	8007594 <_printf_i+0x170>
 80075c0:	6823      	ldr	r3, [r4, #0]
 80075c2:	f023 0320 	bic.w	r3, r3, #32
 80075c6:	6023      	str	r3, [r4, #0]
 80075c8:	e7f6      	b.n	80075b8 <_printf_i+0x194>
 80075ca:	4616      	mov	r6, r2
 80075cc:	e7bd      	b.n	800754a <_printf_i+0x126>
 80075ce:	6833      	ldr	r3, [r6, #0]
 80075d0:	6825      	ldr	r5, [r4, #0]
 80075d2:	6961      	ldr	r1, [r4, #20]
 80075d4:	1d18      	adds	r0, r3, #4
 80075d6:	6030      	str	r0, [r6, #0]
 80075d8:	062e      	lsls	r6, r5, #24
 80075da:	681b      	ldr	r3, [r3, #0]
 80075dc:	d501      	bpl.n	80075e2 <_printf_i+0x1be>
 80075de:	6019      	str	r1, [r3, #0]
 80075e0:	e002      	b.n	80075e8 <_printf_i+0x1c4>
 80075e2:	0668      	lsls	r0, r5, #25
 80075e4:	d5fb      	bpl.n	80075de <_printf_i+0x1ba>
 80075e6:	8019      	strh	r1, [r3, #0]
 80075e8:	2300      	movs	r3, #0
 80075ea:	6123      	str	r3, [r4, #16]
 80075ec:	4616      	mov	r6, r2
 80075ee:	e7bc      	b.n	800756a <_printf_i+0x146>
 80075f0:	6833      	ldr	r3, [r6, #0]
 80075f2:	1d1a      	adds	r2, r3, #4
 80075f4:	6032      	str	r2, [r6, #0]
 80075f6:	681e      	ldr	r6, [r3, #0]
 80075f8:	6862      	ldr	r2, [r4, #4]
 80075fa:	2100      	movs	r1, #0
 80075fc:	4630      	mov	r0, r6
 80075fe:	f7f8 fdff 	bl	8000200 <memchr>
 8007602:	b108      	cbz	r0, 8007608 <_printf_i+0x1e4>
 8007604:	1b80      	subs	r0, r0, r6
 8007606:	6060      	str	r0, [r4, #4]
 8007608:	6863      	ldr	r3, [r4, #4]
 800760a:	6123      	str	r3, [r4, #16]
 800760c:	2300      	movs	r3, #0
 800760e:	f884 3043 	strb.w	r3, [r4, #67]	@ 0x43
 8007612:	e7aa      	b.n	800756a <_printf_i+0x146>
 8007614:	6923      	ldr	r3, [r4, #16]
 8007616:	4632      	mov	r2, r6
 8007618:	4649      	mov	r1, r9
 800761a:	4640      	mov	r0, r8
 800761c:	47d0      	blx	sl
 800761e:	3001      	adds	r0, #1
 8007620:	d0ad      	beq.n	800757e <_printf_i+0x15a>
 8007622:	6823      	ldr	r3, [r4, #0]
 8007624:	079b      	lsls	r3, r3, #30
 8007626:	d413      	bmi.n	8007650 <_printf_i+0x22c>
 8007628:	68e0      	ldr	r0, [r4, #12]
 800762a:	9b03      	ldr	r3, [sp, #12]
 800762c:	4298      	cmp	r0, r3
 800762e:	bfb8      	it	lt
 8007630:	4618      	movlt	r0, r3
 8007632:	e7a6      	b.n	8007582 <_printf_i+0x15e>
 8007634:	2301      	movs	r3, #1
 8007636:	4632      	mov	r2, r6
 8007638:	4649      	mov	r1, r9
 800763a:	4640      	mov	r0, r8
 800763c:	47d0      	blx	sl
 800763e:	3001      	adds	r0, #1
 8007640:	d09d      	beq.n	800757e <_printf_i+0x15a>
 8007642:	3501      	adds	r5, #1
 8007644:	68e3      	ldr	r3, [r4, #12]
 8007646:	9903      	ldr	r1, [sp, #12]
 8007648:	1a5b      	subs	r3, r3, r1
 800764a:	42ab      	cmp	r3, r5
 800764c:	dcf2      	bgt.n	8007634 <_printf_i+0x210>
 800764e:	e7eb      	b.n	8007628 <_printf_i+0x204>
 8007650:	2500      	movs	r5, #0
 8007652:	f104 0619 	add.w	r6, r4, #25
 8007656:	e7f5      	b.n	8007644 <_printf_i+0x220>
 8007658:	080078e5 	.word	0x080078e5
 800765c:	080078f6 	.word	0x080078f6

08007660 <memmove>:
 8007660:	4288      	cmp	r0, r1
 8007662:	b510      	push	{r4, lr}
 8007664:	eb01 0402 	add.w	r4, r1, r2
 8007668:	d902      	bls.n	8007670 <memmove+0x10>
 800766a:	4284      	cmp	r4, r0
 800766c:	4623      	mov	r3, r4
 800766e:	d807      	bhi.n	8007680 <memmove+0x20>
 8007670:	1e43      	subs	r3, r0, #1
 8007672:	42a1      	cmp	r1, r4
 8007674:	d008      	beq.n	8007688 <memmove+0x28>
 8007676:	f811 2b01 	ldrb.w	r2, [r1], #1
 800767a:	f803 2f01 	strb.w	r2, [r3, #1]!
 800767e:	e7f8      	b.n	8007672 <memmove+0x12>
 8007680:	4402      	add	r2, r0
 8007682:	4601      	mov	r1, r0
 8007684:	428a      	cmp	r2, r1
 8007686:	d100      	bne.n	800768a <memmove+0x2a>
 8007688:	bd10      	pop	{r4, pc}
 800768a:	f813 4d01 	ldrb.w	r4, [r3, #-1]!
 800768e:	f802 4d01 	strb.w	r4, [r2, #-1]!
 8007692:	e7f7      	b.n	8007684 <memmove+0x24>

08007694 <_sbrk_r>:
 8007694:	b538      	push	{r3, r4, r5, lr}
 8007696:	4d06      	ldr	r5, [pc, #24]	@ (80076b0 <_sbrk_r+0x1c>)
 8007698:	2300      	movs	r3, #0
 800769a:	4604      	mov	r4, r0
 800769c:	4608      	mov	r0, r1
 800769e:	602b      	str	r3, [r5, #0]
 80076a0:	f7fa fee0 	bl	8002464 <_sbrk>
 80076a4:	1c43      	adds	r3, r0, #1
 80076a6:	d102      	bne.n	80076ae <_sbrk_r+0x1a>
 80076a8:	682b      	ldr	r3, [r5, #0]
 80076aa:	b103      	cbz	r3, 80076ae <_sbrk_r+0x1a>
 80076ac:	6023      	str	r3, [r4, #0]
 80076ae:	bd38      	pop	{r3, r4, r5, pc}
 80076b0:	20000438 	.word	0x20000438

080076b4 <memcpy>:
 80076b4:	440a      	add	r2, r1
 80076b6:	4291      	cmp	r1, r2
 80076b8:	f100 33ff 	add.w	r3, r0, #4294967295
 80076bc:	d100      	bne.n	80076c0 <memcpy+0xc>
 80076be:	4770      	bx	lr
 80076c0:	b510      	push	{r4, lr}
 80076c2:	f811 4b01 	ldrb.w	r4, [r1], #1
 80076c6:	f803 4f01 	strb.w	r4, [r3, #1]!
 80076ca:	4291      	cmp	r1, r2
 80076cc:	d1f9      	bne.n	80076c2 <memcpy+0xe>
 80076ce:	bd10      	pop	{r4, pc}

080076d0 <_realloc_r>:
 80076d0:	e92d 41f0 	stmdb	sp!, {r4, r5, r6, r7, r8, lr}
 80076d4:	4607      	mov	r7, r0
 80076d6:	4614      	mov	r4, r2
 80076d8:	460d      	mov	r5, r1
 80076da:	b921      	cbnz	r1, 80076e6 <_realloc_r+0x16>
 80076dc:	e8bd 41f0 	ldmia.w	sp!, {r4, r5, r6, r7, r8, lr}
 80076e0:	4611      	mov	r1, r2
 80076e2:	f7ff bc4d 	b.w	8006f80 <_malloc_r>
 80076e6:	b92a      	cbnz	r2, 80076f4 <_realloc_r+0x24>
 80076e8:	f7ff fbde 	bl	8006ea8 <_free_r>
 80076ec:	4625      	mov	r5, r4
 80076ee:	4628      	mov	r0, r5
 80076f0:	e8bd 81f0 	ldmia.w	sp!, {r4, r5, r6, r7, r8, pc}
 80076f4:	f000 f81a 	bl	800772c <_malloc_usable_size_r>
 80076f8:	4284      	cmp	r4, r0
 80076fa:	4606      	mov	r6, r0
 80076fc:	d802      	bhi.n	8007704 <_realloc_r+0x34>
 80076fe:	ebb4 0f50 	cmp.w	r4, r0, lsr #1
 8007702:	d8f4      	bhi.n	80076ee <_realloc_r+0x1e>
 8007704:	4621      	mov	r1, r4
 8007706:	4638      	mov	r0, r7
 8007708:	f7ff fc3a 	bl	8006f80 <_malloc_r>
 800770c:	4680      	mov	r8, r0
 800770e:	b908      	cbnz	r0, 8007714 <_realloc_r+0x44>
 8007710:	4645      	mov	r5, r8
 8007712:	e7ec      	b.n	80076ee <_realloc_r+0x1e>
 8007714:	42b4      	cmp	r4, r6
 8007716:	4622      	mov	r2, r4
 8007718:	4629      	mov	r1, r5
 800771a:	bf28      	it	cs
 800771c:	4632      	movcs	r2, r6
 800771e:	f7ff ffc9 	bl	80076b4 <memcpy>
 8007722:	4629      	mov	r1, r5
 8007724:	4638      	mov	r0, r7
 8007726:	f7ff fbbf 	bl	8006ea8 <_free_r>
 800772a:	e7f1      	b.n	8007710 <_realloc_r+0x40>

0800772c <_malloc_usable_size_r>:
 800772c:	f851 3c04 	ldr.w	r3, [r1, #-4]
 8007730:	1f18      	subs	r0, r3, #4
 8007732:	2b00      	cmp	r3, #0
 8007734:	bfbc      	itt	lt
 8007736:	580b      	ldrlt	r3, [r1, r0]
 8007738:	18c0      	addlt	r0, r0, r3
 800773a:	4770      	bx	lr

0800773c <_init>:
 800773c:	b5f8      	push	{r3, r4, r5, r6, r7, lr}
 800773e:	bf00      	nop
 8007740:	bcf8      	pop	{r3, r4, r5, r6, r7}
 8007742:	bc08      	pop	{r3}
 8007744:	469e      	mov	lr, r3
 8007746:	4770      	bx	lr

08007748 <_fini>:
 8007748:	b5f8      	push	{r3, r4, r5, r6, r7, lr}
 800774a:	bf00      	nop
 800774c:	bcf8      	pop	{r3, r4, r5, r6, r7}
 800774e:	bc08      	pop	{r3}
 8007750:	469e      	mov	lr, r3
 8007752:	4770      	bx	lr
